ARM GAS  C:\Users\Matthew\AppData\Local\Temp\cceTTHJm.s 			page 1


   1              		.cpu cortex-m0
   2              		.fpu softvfp
   3              		.eabi_attribute 20, 1
   4              		.eabi_attribute 21, 1
   5              		.eabi_attribute 23, 3
   6              		.eabi_attribute 24, 1
   7              		.eabi_attribute 25, 1
   8              		.eabi_attribute 26, 1
   9              		.eabi_attribute 30, 6
  10              		.eabi_attribute 34, 0
  11              		.eabi_attribute 18, 4
  12              		.code	16
  13              		.file	"accelerometer.c"
  14              		.text
  15              	.Ltext0:
  16              		.cfi_sections	.debug_frame
  17              		.section	.text.initAccelControl,"ax",%progbits
  18              		.align	2
  19              		.global	initAccelControl
  20              		.code	16
  21              		.thumb_func
  22              		.type	initAccelControl, %function
  23              	initAccelControl:
  24              	.LFB37:
  25              		.file 1 ".\\accelerometer.c"
   1:.\accelerometer.c **** /* ========================================
   2:.\accelerometer.c ****  *
   3:.\accelerometer.c ****  * Copyright YOUR COMPANY, THE YEAR
   4:.\accelerometer.c ****  * All Rights Reserved
   5:.\accelerometer.c ****  * UNPUBLISHED, LICENSED SOFTWARE.
   6:.\accelerometer.c ****  *
   7:.\accelerometer.c ****  * CONFIDENTIAL AND PROPRIETARY INFORMATION
   8:.\accelerometer.c ****  * WHICH IS THE PROPERTY OF your company.
   9:.\accelerometer.c ****  *
  10:.\accelerometer.c ****  * ========================================
  11:.\accelerometer.c **** */
  12:.\accelerometer.c **** 
  13:.\accelerometer.c **** #include <accelerometer.h>
  14:.\accelerometer.c **** //#include <math.h>
  15:.\accelerometer.c **** 
  16:.\accelerometer.c **** void initAccelControl(){     
  26              		.loc 1 16 0
  27              		.cfi_startproc
  28 0000 80B5     		push	{r7, lr}
  29              		.cfi_def_cfa_offset 8
  30              		.cfi_offset 7, -8
  31              		.cfi_offset 14, -4
  32 0002 00AF     		add	r7, sp, #0
  33              		.cfi_def_cfa_register 7
  17:.\accelerometer.c ****     
  18:.\accelerometer.c ****     readAccel(CTRL_REG1);
  34              		.loc 1 18 0
  35 0004 2A20     		mov	r0, #42
  36 0006 FFF7FEFF 		bl	readAccel
  19:.\accelerometer.c ****     writeAccel(CTRL_REG1, 0x00);     
  37              		.loc 1 19 0
  38 000a 2A20     		mov	r0, #42
ARM GAS  C:\Users\Matthew\AppData\Local\Temp\cceTTHJm.s 			page 2


  39 000c 0021     		mov	r1, #0
  40 000e FFF7FEFF 		bl	writeAccel
  20:.\accelerometer.c ****     
  21:.\accelerometer.c ****     /* REG 2 Settings
  22:.\accelerometer.c ****     Self Test:                      Disabled
  23:.\accelerometer.c ****     Software Reset:                 Enabled
  24:.\accelerometer.c ****     Sleep Power                     Low noise, Low power
  25:.\accelerometer.c ****     Auto-sleep:                     Disable
  26:.\accelerometer.c ****     Active Power:                   Low noise, Low power
  27:.\accelerometer.c ****     */
  28:.\accelerometer.c ****     writeAccel(CTRL_REG2, 0b01001001);
  41              		.loc 1 28 0
  42 0012 2B20     		mov	r0, #43
  43 0014 4921     		mov	r1, #73
  44 0016 FFF7FEFF 		bl	writeAccel
  29:.\accelerometer.c ****     
  30:.\accelerometer.c ****     /* REG 3 Settings
  31:.\accelerometer.c ****     FIFO Gate:                      Bypassed
  32:.\accelerometer.c ****     Transient Wake:                 Bypassed
  33:.\accelerometer.c ****     LNDPRT Wake:                    Bypassed
  34:.\accelerometer.c ****     Pulse Wake:                     Bypassed
  35:.\accelerometer.c ****     FF/MT Wake:                     Bypassed
  36:.\accelerometer.c ****     Interrupt Polarity:             Active High
  37:.\accelerometer.c ****     Interrupt:                      Push-Pull
  38:.\accelerometer.c ****     */
  39:.\accelerometer.c ****     writeAccel(CTRL_REG3, 0b00000010);
  45              		.loc 1 39 0
  46 001a 2C20     		mov	r0, #44
  47 001c 0221     		mov	r1, #2
  48 001e FFF7FEFF 		bl	writeAccel
  40:.\accelerometer.c ****     
  41:.\accelerometer.c ****     /* REG 4 Settings
  42:.\accelerometer.c ****     Auto-Sleep/Wake Interrupt:      Disabled
  43:.\accelerometer.c ****     FIFO Interrupt:                 Disabled
  44:.\accelerometer.c ****     Transient Interrupt:            Disabled
  45:.\accelerometer.c ****     LNDPRT Interrupt:               Disabled
  46:.\accelerometer.c ****     Pulse Interrupt:                Disabled
  47:.\accelerometer.c ****     FF/MT Interrupt:                Disabled
  48:.\accelerometer.c ****     Data Ready Interrupt:           Enabled
  49:.\accelerometer.c ****     */
  50:.\accelerometer.c ****     writeAccel(CTRL_REG4, 0b00000001);
  49              		.loc 1 50 0
  50 0022 2D20     		mov	r0, #45
  51 0024 0121     		mov	r1, #1
  52 0026 FFF7FEFF 		bl	writeAccel
  51:.\accelerometer.c ****     
  52:.\accelerometer.c ****     /* REG 5 Settings
  53:.\accelerometer.c ****     Auto-Sleep/Wake Interrupt:      Int 2
  54:.\accelerometer.c ****     FIFO Interrupt:                 Int 2
  55:.\accelerometer.c ****     Transient Interrupt:            Int 2
  56:.\accelerometer.c ****     LNDPRT Interrupt:               Int 2
  57:.\accelerometer.c ****     Pulse Interrupt:                Int 2
  58:.\accelerometer.c ****     FF/MT Interrupt:                Int 2
  59:.\accelerometer.c ****     Data Ready Interrupt:           Int 1
  60:.\accelerometer.c ****     */
  61:.\accelerometer.c ****     writeAccel(CTRL_REG5, 0b00000001);
  53              		.loc 1 61 0
ARM GAS  C:\Users\Matthew\AppData\Local\Temp\cceTTHJm.s 			page 3


  54 002a 2E20     		mov	r0, #46
  55 002c 0121     		mov	r1, #1
  56 002e FFF7FEFF 		bl	writeAccel
  62:.\accelerometer.c ****     
  63:.\accelerometer.c ****      /* REG 1 Settings
  64:.\accelerometer.c ****     Sleep mode sample frequency:    default
  65:.\accelerometer.c ****     Data rate Selection:            12.5Hz
  66:.\accelerometer.c ****     Fast Read                       On
  67:.\accelerometer.c ****     FS Selection:                   Active
  68:.\accelerometer.c ****     */
  69:.\accelerometer.c ****     writeAccel(CTRL_REG1, 0b00101011);    
  57              		.loc 1 69 0
  58 0032 2A20     		mov	r0, #42
  59 0034 2B21     		mov	r1, #43
  60 0036 FFF7FEFF 		bl	writeAccel
  70:.\accelerometer.c **** }
  61              		.loc 1 70 0
  62 003a BD46     		mov	sp, r7
  63              		@ sp needed
  64 003c 80BD     		pop	{r7, pc}
  65              		.cfi_endproc
  66              	.LFE37:
  67              		.size	initAccelControl, .-initAccelControl
  68 003e C046     		.section	.text.initAccelFFMT,"ax",%progbits
  69              		.align	2
  70              		.global	initAccelFFMT
  71              		.code	16
  72              		.thumb_func
  73              		.type	initAccelFFMT, %function
  74              	initAccelFFMT:
  75              	.LFB38:
  71:.\accelerometer.c **** 
  72:.\accelerometer.c **** void initAccelFFMT(){
  76              		.loc 1 72 0
  77              		.cfi_startproc
  78 0000 80B5     		push	{r7, lr}
  79              		.cfi_def_cfa_offset 8
  80              		.cfi_offset 7, -8
  81              		.cfi_offset 14, -4
  82 0002 00AF     		add	r7, sp, #0
  83              		.cfi_def_cfa_register 7
  73:.\accelerometer.c ****     /* FF/MT Configuration
  74:.\accelerometer.c ****     Event Latch:                    Enabled
  75:.\accelerometer.c ****     Mode:                           Freefall
  76:.\accelerometer.c ****     Z Flag:                         Enabled (flags detection when acceleration > threshold)
  77:.\accelerometer.c ****     y Flag:                         Enabled (flags detection when acceleration > threshold)
  78:.\accelerometer.c ****     x Flag:                         Enabled (flags detection when acceleration > threshold)
  79:.\accelerometer.c ****     */
  80:.\accelerometer.c ****     writeAccel(FF_MT_CFG, 0b10111000);
  84              		.loc 1 80 0
  85 0004 1520     		mov	r0, #21
  86 0006 B821     		mov	r1, #184
  87 0008 FFF7FEFF 		bl	writeAccel
  81:.\accelerometer.c ****     
  82:.\accelerometer.c ****     /* FF/MT Threshold
  83:.\accelerometer.c ****     Debounce Mode:                  Increment/Decrement
  84:.\accelerometer.c ****     Threshold:                      0 (for now)
ARM GAS  C:\Users\Matthew\AppData\Local\Temp\cceTTHJm.s 			page 4


  85:.\accelerometer.c ****     */
  86:.\accelerometer.c ****     writeAccel(FF_MT_THS, 0b00000000);
  88              		.loc 1 86 0
  89 000c 1720     		mov	r0, #23
  90 000e 0021     		mov	r1, #0
  91 0010 FFF7FEFF 		bl	writeAccel
  87:.\accelerometer.c ****     
  88:.\accelerometer.c ****     /* FF/MT Debounce ( minimum number of debounce sample counts that continuously match the detect
  89:.\accelerometer.c ****     Debounce:                       80 ms (based on ODR)
  90:.\accelerometer.c ****     */
  91:.\accelerometer.c ****     writeAccel(FF_MT_COUNT, 0b00000000); //not needed?
  92              		.loc 1 91 0
  93 0014 1820     		mov	r0, #24
  94 0016 0021     		mov	r1, #0
  95 0018 FFF7FEFF 		bl	writeAccel
  92:.\accelerometer.c **** }
  96              		.loc 1 92 0
  97 001c BD46     		mov	sp, r7
  98              		@ sp needed
  99 001e 80BD     		pop	{r7, pc}
 100              		.cfi_endproc
 101              	.LFE38:
 102              		.size	initAccelFFMT, .-initAccelFFMT
 103              		.section	.text.initAccelTransient,"ax",%progbits
 104              		.align	2
 105              		.global	initAccelTransient
 106              		.code	16
 107              		.thumb_func
 108              		.type	initAccelTransient, %function
 109              	initAccelTransient:
 110              	.LFB39:
  93:.\accelerometer.c **** 
  94:.\accelerometer.c **** void initAccelTransient(){
 111              		.loc 1 94 0
 112              		.cfi_startproc
 113 0000 80B5     		push	{r7, lr}
 114              		.cfi_def_cfa_offset 8
 115              		.cfi_offset 7, -8
 116              		.cfi_offset 14, -4
 117 0002 00AF     		add	r7, sp, #0
 118              		.cfi_def_cfa_register 7
  95:.\accelerometer.c ****     /* Transient Configuration
  96:.\accelerometer.c ****     Event Latch:                    Enabled
  97:.\accelerometer.c ****     Z Flag:                         Enabled (flags detection when acceleration > threshold)
  98:.\accelerometer.c ****     y Flag:                         Enabled (flags detection when acceleration > threshold)
  99:.\accelerometer.c ****     x Flag:                         Enabled (flags detection when acceleration > threshold)
 100:.\accelerometer.c ****     High Pass Filter:               Disabled
 101:.\accelerometer.c ****     */
 102:.\accelerometer.c ****     writeAccel(TRANSIENT_CFG, 0b00011110);
 119              		.loc 1 102 0
 120 0004 1D20     		mov	r0, #29
 121 0006 1E21     		mov	r1, #30
 122 0008 FFF7FEFF 		bl	writeAccel
 103:.\accelerometer.c ****     
 104:.\accelerometer.c ****     /* Transient Threshold
 105:.\accelerometer.c ****     Debounce Mode:                  Increment/Decrement
 106:.\accelerometer.c ****     Threshold:                      0 (for now)
ARM GAS  C:\Users\Matthew\AppData\Local\Temp\cceTTHJm.s 			page 5


 107:.\accelerometer.c ****     */
 108:.\accelerometer.c ****     writeAccel(TRANSIENT_THS, 0b00000000);
 123              		.loc 1 108 0
 124 000c 1F20     		mov	r0, #31
 125 000e 0021     		mov	r1, #0
 126 0010 FFF7FEFF 		bl	writeAccel
 109:.\accelerometer.c ****     
 110:.\accelerometer.c ****     /* FF/MT Debounce ( minimum number of debounce sample counts that continuously match the detect
 111:.\accelerometer.c ****     Debounce:                       80 ms (based on ODR)
 112:.\accelerometer.c ****     */
 113:.\accelerometer.c ****     writeAccel(TRANSIENT_COUNT, 0b00000000); //not needed?
 127              		.loc 1 113 0
 128 0014 2020     		mov	r0, #32
 129 0016 0021     		mov	r1, #0
 130 0018 FFF7FEFF 		bl	writeAccel
 114:.\accelerometer.c **** }
 131              		.loc 1 114 0
 132 001c BD46     		mov	sp, r7
 133              		@ sp needed
 134 001e 80BD     		pop	{r7, pc}
 135              		.cfi_endproc
 136              	.LFE39:
 137              		.size	initAccelTransient, .-initAccelTransient
 138              		.section	.text.initAccelPulse,"ax",%progbits
 139              		.align	2
 140              		.global	initAccelPulse
 141              		.code	16
 142              		.thumb_func
 143              		.type	initAccelPulse, %function
 144              	initAccelPulse:
 145              	.LFB40:
 115:.\accelerometer.c **** 
 116:.\accelerometer.c **** void initAccelPulse(){
 146              		.loc 1 116 0
 147              		.cfi_startproc
 148 0000 80B5     		push	{r7, lr}
 149              		.cfi_def_cfa_offset 8
 150              		.cfi_offset 7, -8
 151              		.cfi_offset 14, -4
 152 0002 00AF     		add	r7, sp, #0
 153              		.cfi_def_cfa_register 7
 117:.\accelerometer.c ****     /* Pulse Configuration
 118:.\accelerometer.c ****     Double Pulse Abort:             Not aborted
 119:.\accelerometer.c ****     Event Latch:                    Enabled
 120:.\accelerometer.c ****     Z Flag Double:                  Enabled (flags detection when acceleration > threshold)
 121:.\accelerometer.c ****     Z Flag Single:                  Enabled (flags detection when acceleration > threshold)
 122:.\accelerometer.c ****     y Flag Double:                  Enabled (flags detection when acceleration > threshold)
 123:.\accelerometer.c ****     y Flag Single:                  Enabled (flags detection when acceleration > threshold)
 124:.\accelerometer.c ****     x Flag Double:                  Enabled (flags detection when acceleration > threshold)
 125:.\accelerometer.c ****     x Flag Single:                  Enabled (flags detection when acceleration > threshold)
 126:.\accelerometer.c ****     */
 127:.\accelerometer.c ****     writeAccel(PULSE_CFG, 0b01111111);
 154              		.loc 1 127 0
 155 0004 2120     		mov	r0, #33
 156 0006 7F21     		mov	r1, #127
 157 0008 FFF7FEFF 		bl	writeAccel
 128:.\accelerometer.c ****     
ARM GAS  C:\Users\Matthew\AppData\Local\Temp\cceTTHJm.s 			page 6


 129:.\accelerometer.c ****     /* Pulse Thresholds
 130:.\accelerometer.c ****     Threshold:                      0 (for now)
 131:.\accelerometer.c ****     */
 132:.\accelerometer.c ****     writeAccel(PULSE_THSX, 0b00000000);
 158              		.loc 1 132 0
 159 000c 2320     		mov	r0, #35
 160 000e 0021     		mov	r1, #0
 161 0010 FFF7FEFF 		bl	writeAccel
 133:.\accelerometer.c ****     writeAccel(PULSE_THSY, 0b00000000);
 162              		.loc 1 133 0
 163 0014 2420     		mov	r0, #36
 164 0016 0021     		mov	r1, #0
 165 0018 FFF7FEFF 		bl	writeAccel
 134:.\accelerometer.c ****     writeAccel(PULSE_THSZ, 0b00000000);
 166              		.loc 1 134 0
 167 001c 2520     		mov	r0, #37
 168 001e 0021     		mov	r1, #0
 169 0020 FFF7FEFF 		bl	writeAccel
 135:.\accelerometer.c ****     
 136:.\accelerometer.c ****     /* Pulse Time Limit (Max length of a pulse)
 137:.\accelerometer.c ****     Time:                       20 ms (based on ODR)
 138:.\accelerometer.c ****     */
 139:.\accelerometer.c ****     writeAccel(PULSE_TMLT, 0b00000000); //not needed?
 170              		.loc 1 139 0
 171 0024 2620     		mov	r0, #38
 172 0026 0021     		mov	r1, #0
 173 0028 FFF7FEFF 		bl	writeAccel
 140:.\accelerometer.c ****     
 141:.\accelerometer.c ****     /* Pulse Latency (Min time between pulses?)
 142:.\accelerometer.c ****     Time:                       40 ms (based on ODR)
 143:.\accelerometer.c ****     */
 144:.\accelerometer.c ****     writeAccel(PULSE_LTCY, 0b00000000); //not needed?
 174              		.loc 1 144 0
 175 002c 2720     		mov	r0, #39
 176 002e 0021     		mov	r1, #0
 177 0030 FFF7FEFF 		bl	writeAccel
 145:.\accelerometer.c ****     
 146:.\accelerometer.c ****     /* Pulse Window (Max time after latency period that a second tap can be detected)
 147:.\accelerometer.c ****     Time:                       40 ms (based on ODR)
 148:.\accelerometer.c ****     */
 149:.\accelerometer.c ****     writeAccel(PULSE_WIND, 0b00000000); //not needed?
 178              		.loc 1 149 0
 179 0034 2820     		mov	r0, #40
 180 0036 0021     		mov	r1, #0
 181 0038 FFF7FEFF 		bl	writeAccel
 150:.\accelerometer.c **** }
 182              		.loc 1 150 0
 183 003c BD46     		mov	sp, r7
 184              		@ sp needed
 185 003e 80BD     		pop	{r7, pc}
 186              		.cfi_endproc
 187              	.LFE40:
 188              		.size	initAccelPulse, .-initAccelPulse
 189              		.section	.text.initAccelSleep,"ax",%progbits
 190              		.align	2
 191              		.global	initAccelSleep
 192              		.code	16
ARM GAS  C:\Users\Matthew\AppData\Local\Temp\cceTTHJm.s 			page 7


 193              		.thumb_func
 194              		.type	initAccelSleep, %function
 195              	initAccelSleep:
 196              	.LFB41:
 151:.\accelerometer.c **** 
 152:.\accelerometer.c **** void initAccelSleep(){
 197              		.loc 1 152 0
 198              		.cfi_startproc
 199 0000 80B5     		push	{r7, lr}
 200              		.cfi_def_cfa_offset 8
 201              		.cfi_offset 7, -8
 202              		.cfi_offset 14, -4
 203 0002 00AF     		add	r7, sp, #0
 204              		.cfi_def_cfa_register 7
 153:.\accelerometer.c ****     /* Auto-Wake/Sleep Detection (Min period of inactivty)
 154:.\accelerometer.c ****     Time:                       80 ms (based on ODR)
 155:.\accelerometer.c ****     */
 156:.\accelerometer.c ****     writeAccel(ASLP_COUNT, 0b00000000); //not needed?
 205              		.loc 1 156 0
 206 0004 2920     		mov	r0, #41
 207 0006 0021     		mov	r1, #0
 208 0008 FFF7FEFF 		bl	writeAccel
 157:.\accelerometer.c **** }
 209              		.loc 1 157 0
 210 000c BD46     		mov	sp, r7
 211              		@ sp needed
 212 000e 80BD     		pop	{r7, pc}
 213              		.cfi_endproc
 214              	.LFE41:
 215              		.size	initAccelSleep, .-initAccelSleep
 216              		.section	.text.getAccelX,"ax",%progbits
 217              		.align	2
 218              		.global	getAccelX
 219              		.code	16
 220              		.thumb_func
 221              		.type	getAccelX, %function
 222              	getAccelX:
 223              	.LFB42:
 158:.\accelerometer.c **** 
 159:.\accelerometer.c **** uint8 getAccelX(){
 224              		.loc 1 159 0
 225              		.cfi_startproc
 226 0000 80B5     		push	{r7, lr}
 227              		.cfi_def_cfa_offset 8
 228              		.cfi_offset 7, -8
 229              		.cfi_offset 14, -4
 230 0002 00AF     		add	r7, sp, #0
 231              		.cfi_def_cfa_register 7
 160:.\accelerometer.c ****     return readAccel(X_MSB);
 232              		.loc 1 160 0
 233 0004 0120     		mov	r0, #1
 234 0006 FFF7FEFF 		bl	readAccel
 235 000a 031C     		mov	r3, r0
 161:.\accelerometer.c **** }
 236              		.loc 1 161 0
 237 000c 181C     		mov	r0, r3
 238 000e BD46     		mov	sp, r7
ARM GAS  C:\Users\Matthew\AppData\Local\Temp\cceTTHJm.s 			page 8


 239              		@ sp needed
 240 0010 80BD     		pop	{r7, pc}
 241              		.cfi_endproc
 242              	.LFE42:
 243              		.size	getAccelX, .-getAccelX
 244 0012 C046     		.section	.text.getAccelY,"ax",%progbits
 245              		.align	2
 246              		.global	getAccelY
 247              		.code	16
 248              		.thumb_func
 249              		.type	getAccelY, %function
 250              	getAccelY:
 251              	.LFB43:
 162:.\accelerometer.c **** 
 163:.\accelerometer.c **** uint8 getAccelY(){
 252              		.loc 1 163 0
 253              		.cfi_startproc
 254 0000 80B5     		push	{r7, lr}
 255              		.cfi_def_cfa_offset 8
 256              		.cfi_offset 7, -8
 257              		.cfi_offset 14, -4
 258 0002 00AF     		add	r7, sp, #0
 259              		.cfi_def_cfa_register 7
 164:.\accelerometer.c ****     return readAccel(Y_MSB);
 260              		.loc 1 164 0
 261 0004 0320     		mov	r0, #3
 262 0006 FFF7FEFF 		bl	readAccel
 263 000a 031C     		mov	r3, r0
 165:.\accelerometer.c **** }
 264              		.loc 1 165 0
 265 000c 181C     		mov	r0, r3
 266 000e BD46     		mov	sp, r7
 267              		@ sp needed
 268 0010 80BD     		pop	{r7, pc}
 269              		.cfi_endproc
 270              	.LFE43:
 271              		.size	getAccelY, .-getAccelY
 272 0012 C046     		.section	.text.getAccelZ,"ax",%progbits
 273              		.align	2
 274              		.global	getAccelZ
 275              		.code	16
 276              		.thumb_func
 277              		.type	getAccelZ, %function
 278              	getAccelZ:
 279              	.LFB44:
 166:.\accelerometer.c **** 
 167:.\accelerometer.c **** uint8 getAccelZ(){
 280              		.loc 1 167 0
 281              		.cfi_startproc
 282 0000 80B5     		push	{r7, lr}
 283              		.cfi_def_cfa_offset 8
 284              		.cfi_offset 7, -8
 285              		.cfi_offset 14, -4
 286 0002 00AF     		add	r7, sp, #0
 287              		.cfi_def_cfa_register 7
 168:.\accelerometer.c ****     return readAccel(Z_MSB);
 288              		.loc 1 168 0
ARM GAS  C:\Users\Matthew\AppData\Local\Temp\cceTTHJm.s 			page 9


 289 0004 0520     		mov	r0, #5
 290 0006 FFF7FEFF 		bl	readAccel
 291 000a 031C     		mov	r3, r0
 169:.\accelerometer.c **** }
 292              		.loc 1 169 0
 293 000c 181C     		mov	r0, r3
 294 000e BD46     		mov	sp, r7
 295              		@ sp needed
 296 0010 80BD     		pop	{r7, pc}
 297              		.cfi_endproc
 298              	.LFE44:
 299              		.size	getAccelZ, .-getAccelZ
 300 0012 C046     		.section	.text.getAccelXYZ,"ax",%progbits
 301              		.align	2
 302              		.global	getAccelXYZ
 303              		.code	16
 304              		.thumb_func
 305              		.type	getAccelXYZ, %function
 306              	getAccelXYZ:
 307              	.LFB45:
 170:.\accelerometer.c **** 
 171:.\accelerometer.c **** int getAccelXYZ(){
 308              		.loc 1 171 0
 309              		.cfi_startproc
 310 0000 80B5     		push	{r7, lr}
 311              		.cfi_def_cfa_offset 8
 312              		.cfi_offset 7, -8
 313              		.cfi_offset 14, -4
 314 0002 84B0     		sub	sp, sp, #16
 315              		.cfi_def_cfa_offset 24
 316 0004 00AF     		add	r7, sp, #0
 317              		.cfi_def_cfa_register 7
 172:.\accelerometer.c ****     int x = getAccelX();
 318              		.loc 1 172 0
 319 0006 FFF7FEFF 		bl	getAccelX
 320 000a 031C     		mov	r3, r0
 321 000c FB60     		str	r3, [r7, #12]
 173:.\accelerometer.c ****     int y = getAccelY();
 322              		.loc 1 173 0
 323 000e FFF7FEFF 		bl	getAccelY
 324 0012 031C     		mov	r3, r0
 325 0014 BB60     		str	r3, [r7, #8]
 174:.\accelerometer.c ****     int z = getAccelZ();
 326              		.loc 1 174 0
 327 0016 FFF7FEFF 		bl	getAccelZ
 328 001a 031C     		mov	r3, r0
 329 001c 7B60     		str	r3, [r7, #4]
 175:.\accelerometer.c ****     
 176:.\accelerometer.c ****     return (x << 16) + (y << 8) + z;
 330              		.loc 1 176 0
 331 001e FB68     		ldr	r3, [r7, #12]
 332 0020 1A04     		lsl	r2, r3, #16
 333 0022 BB68     		ldr	r3, [r7, #8]
 334 0024 1B02     		lsl	r3, r3, #8
 335 0026 D218     		add	r2, r2, r3
 336 0028 7B68     		ldr	r3, [r7, #4]
 337 002a D318     		add	r3, r2, r3
ARM GAS  C:\Users\Matthew\AppData\Local\Temp\cceTTHJm.s 			page 10


 177:.\accelerometer.c **** }
 338              		.loc 1 177 0
 339 002c 181C     		mov	r0, r3
 340 002e BD46     		mov	sp, r7
 341 0030 04B0     		add	sp, sp, #16
 342              		@ sp needed
 343 0032 80BD     		pop	{r7, pc}
 344              		.cfi_endproc
 345              	.LFE45:
 346              		.size	getAccelXYZ, .-getAccelXYZ
 347              		.section	.text.writeAccel,"ax",%progbits
 348              		.align	2
 349              		.global	writeAccel
 350              		.code	16
 351              		.thumb_func
 352              		.type	writeAccel, %function
 353              	writeAccel:
 354              	.LFB46:
 178:.\accelerometer.c **** 
 179:.\accelerometer.c **** void writeAccel(uint8 reg, uint8 data){
 355              		.loc 1 179 0
 356              		.cfi_startproc
 357 0000 80B5     		push	{r7, lr}
 358              		.cfi_def_cfa_offset 8
 359              		.cfi_offset 7, -8
 360              		.cfi_offset 14, -4
 361 0002 84B0     		sub	sp, sp, #16
 362              		.cfi_def_cfa_offset 24
 363 0004 00AF     		add	r7, sp, #0
 364              		.cfi_def_cfa_register 7
 365 0006 021C     		mov	r2, r0
 366 0008 FB1D     		add	r3, r7, #7
 367 000a 1A70     		strb	r2, [r3]
 368 000c BB1D     		add	r3, r7, #6
 369 000e 0A1C     		add	r2, r1, #0
 370 0010 1A70     		strb	r2, [r3]
 180:.\accelerometer.c ****     uint8 Write_Buf[2]={0};
 371              		.loc 1 180 0
 372 0012 0C23     		mov	r3, #12
 373 0014 FB18     		add	r3, r7, r3
 374 0016 0022     		mov	r2, #0
 375 0018 1A80     		strh	r2, [r3]
 181:.\accelerometer.c ****     Write_Buf[0] = reg;               //Assign the first element to be the register you want to wri
 376              		.loc 1 181 0
 377 001a 0C23     		mov	r3, #12
 378 001c FB18     		add	r3, r7, r3
 379 001e FA1D     		add	r2, r7, #7
 380 0020 1278     		ldrb	r2, [r2]
 381 0022 1A70     		strb	r2, [r3]
 182:.\accelerometer.c ****     Write_Buf[1] = data;             //Assign the second elemnt to be the value you wish to write t
 382              		.loc 1 182 0
 383 0024 0C23     		mov	r3, #12
 384 0026 FB18     		add	r3, r7, r3
 385 0028 BA1D     		add	r2, r7, #6
 386 002a 1278     		ldrb	r2, [r2]
 387 002c 5A70     		strb	r2, [r3, #1]
 183:.\accelerometer.c ****     
ARM GAS  C:\Users\Matthew\AppData\Local\Temp\cceTTHJm.s 			page 11


 184:.\accelerometer.c ****     
 185:.\accelerometer.c ****     I2C_1_I2CMasterWriteBuf(ACCEL_ADDR, (uint8 *)Write_Buf, 2, I2C_1_I2C_MODE_COMPLETE_XFER);
 388              		.loc 1 185 0
 389 002e 0C23     		mov	r3, #12
 390 0030 FB18     		add	r3, r7, r3
 391 0032 1D20     		mov	r0, #29
 392 0034 191C     		mov	r1, r3
 393 0036 0222     		mov	r2, #2
 394 0038 0023     		mov	r3, #0
 395 003a FFF7FEFF 		bl	I2C_1_I2CMasterWriteBuf
 186:.\accelerometer.c ****     while((I2C_1_I2CMasterStatus()&I2C_1_I2C_MSTAT_WR_CMPLT)==0);
 396              		.loc 1 186 0
 397 003e C046     		mov	r8, r8
 398              	.L15:
 399              		.loc 1 186 0 is_stmt 0 discriminator 1
 400 0040 FFF7FEFF 		bl	I2C_1_I2CMasterStatus
 401 0044 021C     		mov	r2, r0
 402 0046 0223     		mov	r3, #2
 403 0048 1340     		and	r3, r2
 404 004a F9D0     		beq	.L15
 187:.\accelerometer.c ****         
 188:.\accelerometer.c ****     return;
 405              		.loc 1 188 0 is_stmt 1
 406 004c C046     		mov	r8, r8
 189:.\accelerometer.c **** }
 407              		.loc 1 189 0
 408 004e BD46     		mov	sp, r7
 409 0050 04B0     		add	sp, sp, #16
 410              		@ sp needed
 411 0052 80BD     		pop	{r7, pc}
 412              		.cfi_endproc
 413              	.LFE46:
 414              		.size	writeAccel, .-writeAccel
 415              		.section	.text.readAccel,"ax",%progbits
 416              		.align	2
 417              		.global	readAccel
 418              		.code	16
 419              		.thumb_func
 420              		.type	readAccel, %function
 421              	readAccel:
 422              	.LFB47:
 190:.\accelerometer.c **** 
 191:.\accelerometer.c **** uint8 readAccel(uint8 reg){
 423              		.loc 1 191 0
 424              		.cfi_startproc
 425 0000 80B5     		push	{r7, lr}
 426              		.cfi_def_cfa_offset 8
 427              		.cfi_offset 7, -8
 428              		.cfi_offset 14, -4
 429 0002 84B0     		sub	sp, sp, #16
 430              		.cfi_def_cfa_offset 24
 431 0004 00AF     		add	r7, sp, #0
 432              		.cfi_def_cfa_register 7
 433 0006 021C     		mov	r2, r0
 434 0008 FB1D     		add	r3, r7, #7
 435 000a 1A70     		strb	r2, [r3]
 192:.\accelerometer.c ****     uint8 Write_Buf[1] = {0}; //Buffer that will contain the register that will be read from
ARM GAS  C:\Users\Matthew\AppData\Local\Temp\cceTTHJm.s 			page 12


 436              		.loc 1 192 0
 437 000c 0C23     		mov	r3, #12
 438 000e FB18     		add	r3, r7, r3
 439 0010 0022     		mov	r2, #0
 440 0012 1A70     		strb	r2, [r3]
 193:.\accelerometer.c ****     Write_Buf[0] = reg;
 441              		.loc 1 193 0
 442 0014 0C23     		mov	r3, #12
 443 0016 FB18     		add	r3, r7, r3
 444 0018 FA1D     		add	r2, r7, #7
 445 001a 1278     		ldrb	r2, [r2]
 446 001c 1A70     		strb	r2, [r3]
 194:.\accelerometer.c ****     
 195:.\accelerometer.c ****     uint8 Read_Buf[1]={0};  //Buffer that will store the value read from the register
 447              		.loc 1 195 0
 448 001e 0823     		mov	r3, #8
 449 0020 FB18     		add	r3, r7, r3
 450 0022 0022     		mov	r2, #0
 451 0024 1A70     		strb	r2, [r3]
 196:.\accelerometer.c ****     
 197:.\accelerometer.c ****     //Step 1
 198:.\accelerometer.c ****     I2C_1_I2CMasterWriteBuf(ACCEL_ADDR, (uint8 *)Write_Buf, 1, I2C_1_I2C_MODE_NO_STOP);
 452              		.loc 1 198 0
 453 0026 0C23     		mov	r3, #12
 454 0028 FB18     		add	r3, r7, r3
 455 002a 1D20     		mov	r0, #29
 456 002c 191C     		mov	r1, r3
 457 002e 0122     		mov	r2, #1
 458 0030 0223     		mov	r3, #2
 459 0032 FFF7FEFF 		bl	I2C_1_I2CMasterWriteBuf
 199:.\accelerometer.c ****     while((I2C_1_I2CMasterStatus() & I2C_1_I2C_MSTAT_WR_CMPLT)==0){}
 460              		.loc 1 199 0
 461 0036 C046     		mov	r8, r8
 462              	.L18:
 463              		.loc 1 199 0 is_stmt 0 discriminator 1
 464 0038 FFF7FEFF 		bl	I2C_1_I2CMasterStatus
 465 003c 021C     		mov	r2, r0
 466 003e 0223     		mov	r3, #2
 467 0040 1340     		and	r3, r2
 468 0042 F9D0     		beq	.L18
 200:.\accelerometer.c ****     
 201:.\accelerometer.c ****     //Step 2
 202:.\accelerometer.c ****     I2C_1_I2CMasterReadBuf(ACCEL_ADDR, (uint8 *)Read_Buf, 1, I2C_1_I2C_MODE_REPEAT_START);
 469              		.loc 1 202 0 is_stmt 1
 470 0044 0823     		mov	r3, #8
 471 0046 FB18     		add	r3, r7, r3
 472 0048 1D20     		mov	r0, #29
 473 004a 191C     		mov	r1, r3
 474 004c 0122     		mov	r2, #1
 475 004e 0123     		mov	r3, #1
 476 0050 FFF7FEFF 		bl	I2C_1_I2CMasterReadBuf
 203:.\accelerometer.c ****     while((I2C_1_I2CMasterStatus() & I2C_1_I2C_MSTAT_RD_CMPLT)==0){}
 477              		.loc 1 203 0
 478 0054 C046     		mov	r8, r8
 479              	.L19:
 480              		.loc 1 203 0 is_stmt 0 discriminator 1
 481 0056 FFF7FEFF 		bl	I2C_1_I2CMasterStatus
ARM GAS  C:\Users\Matthew\AppData\Local\Temp\cceTTHJm.s 			page 13


 482 005a 021C     		mov	r2, r0
 483 005c 0123     		mov	r3, #1
 484 005e 1340     		and	r3, r2
 485 0060 F9D0     		beq	.L19
 204:.\accelerometer.c ****     
 205:.\accelerometer.c ****     return Read_Buf[0];
 486              		.loc 1 205 0 is_stmt 1
 487 0062 0823     		mov	r3, #8
 488 0064 FB18     		add	r3, r7, r3
 489 0066 1B78     		ldrb	r3, [r3]
 206:.\accelerometer.c **** }
 490              		.loc 1 206 0
 491 0068 181C     		mov	r0, r3
 492 006a BD46     		mov	sp, r7
 493 006c 04B0     		add	sp, sp, #16
 494              		@ sp needed
 495 006e 80BD     		pop	{r7, pc}
 496              		.cfi_endproc
 497              	.LFE47:
 498              		.size	readAccel, .-readAccel
 499              		.text
 500              	.Letext0:
 501              		.file 2 "Generated_Source\\PSoC4/cytypes.h"