ARM GAS  C:\Users\Matthew\AppData\Local\Temp\ccRMqeZg.s 			page 1


   1              		.cpu cortex-m0
   2              		.fpu softvfp
   3              		.eabi_attribute 20, 1
   4              		.eabi_attribute 21, 1
   5              		.eabi_attribute 23, 3
   6              		.eabi_attribute 24, 1
   7              		.eabi_attribute 25, 1
   8              		.eabi_attribute 26, 1
   9              		.eabi_attribute 30, 6
  10              		.eabi_attribute 34, 0
  11              		.eabi_attribute 18, 4
  12              		.code	16
  13              		.file	"CyLib.c"
  14              		.text
  15              	.Ltext0:
  16              		.cfi_sections	.debug_frame
  17              		.global	cydelayFreqHz
  18              		.data
  19              		.align	2
  20              		.type	cydelayFreqHz, %object
  21              		.size	cydelayFreqHz, 4
  22              	cydelayFreqHz:
  23 0000 006CDC02 		.word	48000000
  24              		.global	cydelayFreqKhz
  25              		.align	2
  26              		.type	cydelayFreqKhz, %object
  27              		.size	cydelayFreqKhz, 4
  28              	cydelayFreqKhz:
  29 0004 80BB0000 		.word	48000
  30              		.global	cydelayFreqMhz
  31              		.type	cydelayFreqMhz, %object
  32              		.size	cydelayFreqMhz, 1
  33              	cydelayFreqMhz:
  34 0008 30       		.byte	48
  35              		.global	cydelay32kMs
  36 0009 000000   		.align	2
  37              		.type	cydelay32kMs, %object
  38              		.size	cydelay32kMs, 4
  39              	cydelay32kMs:
  40 000c 0000C05D 		.word	1572864000
  41              		.bss
  42              		.align	2
  43              	CySysTickCallbacks:
  44 0000 00000000 		.space	20
  44      00000000 
  44      00000000 
  44      00000000 
  44      00000000 
  45              		.global	CySysTickInitVar
  46              		.align	2
  47              		.type	CySysTickInitVar, %object
  48              		.size	CySysTickInitVar, 4
  49              	CySysTickInitVar:
  50 0014 00000000 		.space	4
  51              		.global	cyImoFreqMhz2Reg
  52              		.section	.rodata
  53              		.align	2
ARM GAS  C:\Users\Matthew\AppData\Local\Temp\ccRMqeZg.s 			page 2


  54              		.type	cyImoFreqMhz2Reg, %object
  55              		.size	cyImoFreqMhz2Reg, 46
  56              	cyImoFreqMhz2Reg:
  57 0000 03       		.byte	3
  58 0001 04       		.byte	4
  59 0002 05       		.byte	5
  60 0003 06       		.byte	6
  61 0004 07       		.byte	7
  62 0005 08       		.byte	8
  63 0006 09       		.byte	9
  64 0007 0A       		.byte	10
  65 0008 0B       		.byte	11
  66 0009 0C       		.byte	12
  67 000a 0E       		.byte	14
  68 000b 0F       		.byte	15
  69 000c 10       		.byte	16
  70 000d 11       		.byte	17
  71 000e 12       		.byte	18
  72 000f 13       		.byte	19
  73 0010 14       		.byte	20
  74 0011 15       		.byte	21
  75 0012 16       		.byte	22
  76 0013 17       		.byte	23
  77 0014 18       		.byte	24
  78 0015 19       		.byte	25
  79 0016 1B       		.byte	27
  80 0017 1C       		.byte	28
  81 0018 1D       		.byte	29
  82 0019 1E       		.byte	30
  83 001a 1F       		.byte	31
  84 001b 20       		.byte	32
  85 001c 21       		.byte	33
  86 001d 22       		.byte	34
  87 001e 23       		.byte	35
  88 001f 25       		.byte	37
  89 0020 26       		.byte	38
  90 0021 27       		.byte	39
  91 0022 28       		.byte	40
  92 0023 29       		.byte	41
  93 0024 2A       		.byte	42
  94 0025 2B       		.byte	43
  95 0026 2E       		.byte	46
  96 0027 2F       		.byte	47
  97 0028 30       		.byte	48
  98 0029 31       		.byte	49
  99 002a 32       		.byte	50
 100 002b 33       		.byte	51
 101 002c 34       		.byte	52
 102 002d 35       		.byte	53
 103 002e 0000     		.section	.text.CySysClkImoStart,"ax",%progbits
 104              		.align	2
 105              		.global	CySysClkImoStart
 106              		.code	16
 107              		.thumb_func
 108              		.type	CySysClkImoStart, %function
 109              	CySysClkImoStart:
 110              	.LFB2:
ARM GAS  C:\Users\Matthew\AppData\Local\Temp\ccRMqeZg.s 			page 3


 111              		.file 1 ".\\Generated_Source\\PSoC4\\CyLib.c"
   1:.\Generated_Source\PSoC4/CyLib.c **** /***************************************************************************//**
   2:.\Generated_Source\PSoC4/CyLib.c **** * \file CyLib.c
   3:.\Generated_Source\PSoC4/CyLib.c **** * \version 5.40
   4:.\Generated_Source\PSoC4/CyLib.c **** *
   5:.\Generated_Source\PSoC4/CyLib.c **** * \brief Provides a system API for the Clocking, Interrupts, SysTick, and
   6:.\Generated_Source\PSoC4/CyLib.c **** * Voltage Detect.
   7:.\Generated_Source\PSoC4/CyLib.c **** *
   8:.\Generated_Source\PSoC4/CyLib.c **** * \note Documentation of the API's in this file is located in the PSoC 4 System
   9:.\Generated_Source\PSoC4/CyLib.c **** * Reference Guide provided with PSoC Creator.
  10:.\Generated_Source\PSoC4/CyLib.c **** *
  11:.\Generated_Source\PSoC4/CyLib.c **** ********************************************************************************
  12:.\Generated_Source\PSoC4/CyLib.c **** * \copyright
  13:.\Generated_Source\PSoC4/CyLib.c **** * Copyright 2010-2016, Cypress Semiconductor Corporation.  All rights reserved.
  14:.\Generated_Source\PSoC4/CyLib.c **** * You may use this file only in accordance with the license, terms, conditions,
  15:.\Generated_Source\PSoC4/CyLib.c **** * disclaimers, and limitations in the end user license agreement accompanying
  16:.\Generated_Source\PSoC4/CyLib.c **** * the software package with which this file was provided.
  17:.\Generated_Source\PSoC4/CyLib.c **** *******************************************************************************/
  18:.\Generated_Source\PSoC4/CyLib.c **** 
  19:.\Generated_Source\PSoC4/CyLib.c **** #include "CyLib.h"
  20:.\Generated_Source\PSoC4/CyLib.c **** 
  21:.\Generated_Source\PSoC4/CyLib.c **** /* CySysClkWriteImoFreq() || CySysClkImoEnableWcoLock() */
  22:.\Generated_Source\PSoC4/CyLib.c **** #if ((CY_IP_SRSSV2 && CY_IP_FMLT) || CY_IP_IMO_TRIMMABLE_BY_WCO)
  23:.\Generated_Source\PSoC4/CyLib.c ****     #include "CyFlash.h"
  24:.\Generated_Source\PSoC4/CyLib.c **** #endif /* (CY_IP_SRSSV2 && CY_IP_FMLT) */
  25:.\Generated_Source\PSoC4/CyLib.c **** 
  26:.\Generated_Source\PSoC4/CyLib.c **** /* Do not use these definitions directly in your application */
  27:.\Generated_Source\PSoC4/CyLib.c **** uint32 cydelayFreqHz  = CYDEV_BCLK__SYSCLK__HZ;
  28:.\Generated_Source\PSoC4/CyLib.c **** uint32 cydelayFreqKhz = (CYDEV_BCLK__SYSCLK__HZ + CY_DELAY_1K_MINUS_1_THRESHOLD) / CY_DELAY_1K_THRE
  29:.\Generated_Source\PSoC4/CyLib.c **** uint8  cydelayFreqMhz = (uint8)((CYDEV_BCLK__SYSCLK__HZ + CY_DELAY_1M_MINUS_1_THRESHOLD) / CY_DELAY
  30:.\Generated_Source\PSoC4/CyLib.c **** uint32 cydelay32kMs   = CY_DELAY_MS_OVERFLOW * ((CYDEV_BCLK__SYSCLK__HZ + CY_DELAY_1K_MINUS_1_THRES
  31:.\Generated_Source\PSoC4/CyLib.c ****                         CY_DELAY_1K_THRESHOLD);
  32:.\Generated_Source\PSoC4/CyLib.c **** 
  33:.\Generated_Source\PSoC4/CyLib.c **** 
  34:.\Generated_Source\PSoC4/CyLib.c **** static cySysTickCallback CySysTickCallbacks[CY_SYS_SYST_NUM_OF_CALLBACKS];
  35:.\Generated_Source\PSoC4/CyLib.c **** static void CySysTickServiceCallbacks(void);
  36:.\Generated_Source\PSoC4/CyLib.c **** #if (CY_IP_SRSSV2 && CY_IP_PLL)
  37:.\Generated_Source\PSoC4/CyLib.c ****     static uint32 CySysClkPllGetBypassMode(uint32 pll);
  38:.\Generated_Source\PSoC4/CyLib.c ****     static cystatus CySysClkPllConfigChangeAllowed(uint32 pll);
  39:.\Generated_Source\PSoC4/CyLib.c **** #endif /* #if (CY_IP_SRSSV2 && CY_IP_PLL) */
  40:.\Generated_Source\PSoC4/CyLib.c **** 
  41:.\Generated_Source\PSoC4/CyLib.c **** 
  42:.\Generated_Source\PSoC4/CyLib.c **** /***************************************************************************//**
  43:.\Generated_Source\PSoC4/CyLib.c **** * Indicates whether or not the SysTick has been initialized. The variable is
  44:.\Generated_Source\PSoC4/CyLib.c **** * initialized to 0 and set to 1 the first time CySysTickStart() is called.
  45:.\Generated_Source\PSoC4/CyLib.c **** *
  46:.\Generated_Source\PSoC4/CyLib.c **** * This allows the component to restart without reinitialization after the first
  47:.\Generated_Source\PSoC4/CyLib.c **** * call to the CySysTickStart() routine.
  48:.\Generated_Source\PSoC4/CyLib.c **** *
  49:.\Generated_Source\PSoC4/CyLib.c **** * If reinitialization of the SysTick is required, call CySysTickInit() before
  50:.\Generated_Source\PSoC4/CyLib.c **** * calling CySysTickStart(). Alternatively, the SysTick can be reinitialized by
  51:.\Generated_Source\PSoC4/CyLib.c **** * calling the CySysTickInit() and CySysTickEnable() functions.
  52:.\Generated_Source\PSoC4/CyLib.c **** *******************************************************************************/
  53:.\Generated_Source\PSoC4/CyLib.c **** uint32 CySysTickInitVar = 0u;
  54:.\Generated_Source\PSoC4/CyLib.c **** 
  55:.\Generated_Source\PSoC4/CyLib.c **** 
  56:.\Generated_Source\PSoC4/CyLib.c **** #if(CY_IP_SRSSV2)
ARM GAS  C:\Users\Matthew\AppData\Local\Temp\ccRMqeZg.s 			page 4


  57:.\Generated_Source\PSoC4/CyLib.c ****         /* Conversion between CySysClkWriteImoFreq() parameter and register's value */
  58:.\Generated_Source\PSoC4/CyLib.c ****         const uint8 cyImoFreqMhz2Reg[CY_SYS_CLK_IMO_FREQ_TABLE_SIZE] = {
  59:.\Generated_Source\PSoC4/CyLib.c ****             /*  3 MHz */ 0x03u,  /*  4 MHz */ 0x04u,  /*  5 MHz */ 0x05u,  /*  6 MHz */ 0x06u,
  60:.\Generated_Source\PSoC4/CyLib.c ****             /*  7 MHz */ 0x07u,  /*  8 MHz */ 0x08u,  /*  9 MHz */ 0x09u,  /* 10 MHz */ 0x0Au,
  61:.\Generated_Source\PSoC4/CyLib.c ****             /* 11 MHz */ 0x0Bu,  /* 12 MHz */ 0x0Cu,  /* 13 MHz */ 0x0Eu,  /* 14 MHz */ 0x0Fu,
  62:.\Generated_Source\PSoC4/CyLib.c ****             /* 15 MHz */ 0x10u,  /* 16 MHz */ 0x11u,  /* 17 MHz */ 0x12u,  /* 18 MHz */ 0x13u,
  63:.\Generated_Source\PSoC4/CyLib.c ****             /* 19 MHz */ 0x14u,  /* 20 MHz */ 0x15u,  /* 21 MHz */ 0x16u,  /* 22 MHz */ 0x17u,
  64:.\Generated_Source\PSoC4/CyLib.c ****             /* 23 MHz */ 0x18u,  /* 24 MHz */ 0x19u,  /* 25 MHz */ 0x1Bu,  /* 26 MHz */ 0x1Cu,
  65:.\Generated_Source\PSoC4/CyLib.c ****             /* 27 MHz */ 0x1Du,  /* 28 MHz */ 0x1Eu,  /* 29 MHz */ 0x1Fu,  /* 30 MHz */ 0x20u,
  66:.\Generated_Source\PSoC4/CyLib.c ****             /* 31 MHz */ 0x21u,  /* 32 MHz */ 0x22u,  /* 33 MHz */ 0x23u,  /* 34 MHz */ 0x25u,
  67:.\Generated_Source\PSoC4/CyLib.c ****             /* 35 MHz */ 0x26u,  /* 36 MHz */ 0x27u,  /* 37 MHz */ 0x28u,  /* 38 MHz */ 0x29u,
  68:.\Generated_Source\PSoC4/CyLib.c ****             /* 39 MHz */ 0x2Au,  /* 40 MHz */ 0x2Bu,  /* 41 MHz */ 0x2Eu,  /* 42 MHz */ 0x2Fu,
  69:.\Generated_Source\PSoC4/CyLib.c ****             /* 43 MHz */ 0x30u,  /* 44 MHz */ 0x31u,  /* 45 MHz */ 0x32u,  /* 46 MHz */ 0x33u,
  70:.\Generated_Source\PSoC4/CyLib.c ****             /* 47 MHz */ 0x34u,  /* 48 MHz */ 0x35u };
  71:.\Generated_Source\PSoC4/CyLib.c **** #endif /* (CY_IP_SRSSV2) */
  72:.\Generated_Source\PSoC4/CyLib.c **** 
  73:.\Generated_Source\PSoC4/CyLib.c **** #if (CY_IP_IMO_TRIMMABLE_BY_WCO)
  74:.\Generated_Source\PSoC4/CyLib.c ****         /* Conversion between IMO frequency and WCO DPLL max offset steps */
  75:.\Generated_Source\PSoC4/CyLib.c ****         const uint8 cyImoFreqMhz2DpllOffset[CY_SYS_CLK_IMO_FREQ_WCO_DPLL_TABLE_SIZE] = {
  76:.\Generated_Source\PSoC4/CyLib.c ****             /* 26 MHz */  238u, /* 27 MHz */  219u, /* 28 MHz */  201u, /* 29 MHz */  185u,
  77:.\Generated_Source\PSoC4/CyLib.c ****             /* 30 MHz */  170u, /* 31 MHz */  155u, /* 32 MHz */  142u, /* 33 MHz */  130u,
  78:.\Generated_Source\PSoC4/CyLib.c ****             /* 34 MHz */  118u, /* 35 MHz */  107u, /* 36 MHz */   96u, /* 37 MHz */  86u,
  79:.\Generated_Source\PSoC4/CyLib.c ****             /* 38 MHz */   77u, /* 39 MHz */   68u, /* 40 MHz */   59u, /* 41 MHz */  51u,
  80:.\Generated_Source\PSoC4/CyLib.c ****             /* 42 MHz */   44u, /* 43 MHz */   36u, /* 44 MHz */   29u, /* 45 MHz */  23u,
  81:.\Generated_Source\PSoC4/CyLib.c ****             /* 46 MHz */   16u, /* 47 MHz */   10u, /* 48 MHz */   4u };
  82:.\Generated_Source\PSoC4/CyLib.c **** #endif /* (CY_IP_IMO_TRIMMABLE_BY_WCO) */
  83:.\Generated_Source\PSoC4/CyLib.c **** 
  84:.\Generated_Source\PSoC4/CyLib.c **** /* Stored CY_SYS_CLK_IMO_TRIM4_REG when modified for USB lock */
  85:.\Generated_Source\PSoC4/CyLib.c **** #if (CY_IP_IMO_TRIMMABLE_BY_USB && CY_IP_SRSSV2)
  86:.\Generated_Source\PSoC4/CyLib.c ****     uint32 CySysClkImoTrim4 = 0u;
  87:.\Generated_Source\PSoC4/CyLib.c **** #endif /* (CY_IP_IMO_TRIMMABLE_BY_USB && CY_IP_SRSSV2) */
  88:.\Generated_Source\PSoC4/CyLib.c **** 
  89:.\Generated_Source\PSoC4/CyLib.c **** 
  90:.\Generated_Source\PSoC4/CyLib.c **** /*******************************************************************************
  91:.\Generated_Source\PSoC4/CyLib.c **** * Function Name: CySysClkImoStart
  92:.\Generated_Source\PSoC4/CyLib.c **** ****************************************************************************//**
  93:.\Generated_Source\PSoC4/CyLib.c **** *
  94:.\Generated_Source\PSoC4/CyLib.c **** * Enables the IMO.
  95:.\Generated_Source\PSoC4/CyLib.c **** *
  96:.\Generated_Source\PSoC4/CyLib.c **** * For PSoC 4100M / PSoC 4200M / PSoC 4000S / PSoC 4100S / PSoC 4400 devices,
  97:.\Generated_Source\PSoC4/CyLib.c **** * this function will also enable WCO lock if selected in the Design Wide
  98:.\Generated_Source\PSoC4/CyLib.c **** * Resources tab.
  99:.\Generated_Source\PSoC4/CyLib.c **** *
 100:.\Generated_Source\PSoC4/CyLib.c **** * For PSoC 4200L / devices, this function will also enable USB lock if selected
 101:.\Generated_Source\PSoC4/CyLib.c **** * in the Design Wide Resources tab.
 102:.\Generated_Source\PSoC4/CyLib.c **** *
 103:.\Generated_Source\PSoC4/CyLib.c **** *******************************************************************************/
 104:.\Generated_Source\PSoC4/CyLib.c **** void CySysClkImoStart(void)
 105:.\Generated_Source\PSoC4/CyLib.c **** {
 112              		.loc 1 105 0
 113              		.cfi_startproc
 114 0000 80B5     		push	{r7, lr}
 115              		.cfi_def_cfa_offset 8
 116              		.cfi_offset 7, -8
 117              		.cfi_offset 14, -4
 118 0002 00AF     		add	r7, sp, #0
 119              		.cfi_def_cfa_register 7
ARM GAS  C:\Users\Matthew\AppData\Local\Temp\ccRMqeZg.s 			page 5


 106:.\Generated_Source\PSoC4/CyLib.c ****     CY_SYS_CLK_IMO_CONFIG_REG |= CY_SYS_CLK_IMO_CONFIG_ENABLE;
 120              		.loc 1 106 0
 121 0004 044B     		ldr	r3, .L2
 122 0006 044A     		ldr	r2, .L2
 123 0008 1268     		ldr	r2, [r2]
 124 000a 8021     		mov	r1, #128
 125 000c 0906     		lsl	r1, r1, #24
 126 000e 0A43     		orr	r2, r1
 127 0010 1A60     		str	r2, [r3]
 107:.\Generated_Source\PSoC4/CyLib.c **** 
 108:.\Generated_Source\PSoC4/CyLib.c ****     #if (CY_IP_IMO_TRIMMABLE_BY_WCO)
 109:.\Generated_Source\PSoC4/CyLib.c ****         #if (CYDEV_IMO_TRIMMED_BY_WCO == 1u)
 110:.\Generated_Source\PSoC4/CyLib.c ****             CySysClkImoEnableWcoLock();
 111:.\Generated_Source\PSoC4/CyLib.c ****         #endif  /* (CYDEV_IMO_TRIMMED_BY_WCO == 1u) */
 112:.\Generated_Source\PSoC4/CyLib.c ****     #endif  /* (CY_IP_IMO_TRIMMABLE_BY_WCO) */
 113:.\Generated_Source\PSoC4/CyLib.c **** 
 114:.\Generated_Source\PSoC4/CyLib.c **** 
 115:.\Generated_Source\PSoC4/CyLib.c ****     #if (CY_IP_IMO_TRIMMABLE_BY_USB)
 116:.\Generated_Source\PSoC4/CyLib.c ****         #if (CYDEV_IMO_TRIMMED_BY_USB == 1u)
 117:.\Generated_Source\PSoC4/CyLib.c ****             CySysClkImoEnableUsbLock();
 118:.\Generated_Source\PSoC4/CyLib.c ****         #endif  /* (CYDEV_IMO_TRIMMED_BY_USB == 1u) */
 119:.\Generated_Source\PSoC4/CyLib.c ****     #endif  /* (CY_IP_IMO_TRIMMABLE_BY_USB) */
 120:.\Generated_Source\PSoC4/CyLib.c **** 
 121:.\Generated_Source\PSoC4/CyLib.c **** }
 128              		.loc 1 121 0
 129 0012 BD46     		mov	sp, r7
 130              		@ sp needed
 131 0014 80BD     		pop	{r7, pc}
 132              	.L3:
 133 0016 C046     		.align	2
 134              	.L2:
 135 0018 08010B40 		.word	1074462984
 136              		.cfi_endproc
 137              	.LFE2:
 138              		.size	CySysClkImoStart, .-CySysClkImoStart
 139              		.section	.text.CySysClkImoStop,"ax",%progbits
 140              		.align	2
 141              		.global	CySysClkImoStop
 142              		.code	16
 143              		.thumb_func
 144              		.type	CySysClkImoStop, %function
 145              	CySysClkImoStop:
 146              	.LFB3:
 122:.\Generated_Source\PSoC4/CyLib.c **** 
 123:.\Generated_Source\PSoC4/CyLib.c **** 
 124:.\Generated_Source\PSoC4/CyLib.c **** /*******************************************************************************
 125:.\Generated_Source\PSoC4/CyLib.c **** * Function Name: CySysClkImoStop
 126:.\Generated_Source\PSoC4/CyLib.c **** ****************************************************************************//**
 127:.\Generated_Source\PSoC4/CyLib.c **** *
 128:.\Generated_Source\PSoC4/CyLib.c **** * Disables the IMO.
 129:.\Generated_Source\PSoC4/CyLib.c **** *
 130:.\Generated_Source\PSoC4/CyLib.c **** * For PSoC 4100M / PSoC 4200M / PSoC 4000S / PSoC 4100S / PSoC 4400 devices,
 131:.\Generated_Source\PSoC4/CyLib.c **** * this function will also disable WCO lock.
 132:.\Generated_Source\PSoC4/CyLib.c **** *
 133:.\Generated_Source\PSoC4/CyLib.c **** * For PSoC PSoC 4200L devices, this function will also disable USB lock.
 134:.\Generated_Source\PSoC4/CyLib.c **** *
 135:.\Generated_Source\PSoC4/CyLib.c **** *******************************************************************************/
ARM GAS  C:\Users\Matthew\AppData\Local\Temp\ccRMqeZg.s 			page 6


 136:.\Generated_Source\PSoC4/CyLib.c **** void CySysClkImoStop(void)
 137:.\Generated_Source\PSoC4/CyLib.c **** {
 147              		.loc 1 137 0
 148              		.cfi_startproc
 149 0000 80B5     		push	{r7, lr}
 150              		.cfi_def_cfa_offset 8
 151              		.cfi_offset 7, -8
 152              		.cfi_offset 14, -4
 153 0002 00AF     		add	r7, sp, #0
 154              		.cfi_def_cfa_register 7
 138:.\Generated_Source\PSoC4/CyLib.c ****     #if (CY_IP_IMO_TRIMMABLE_BY_WCO)
 139:.\Generated_Source\PSoC4/CyLib.c ****         CySysClkImoDisableWcoLock();
 140:.\Generated_Source\PSoC4/CyLib.c ****     #endif  /* (CY_IP_IMO_TRIMMABLE_BY_WCO) */
 141:.\Generated_Source\PSoC4/CyLib.c **** 
 142:.\Generated_Source\PSoC4/CyLib.c ****     #if (CY_IP_IMO_TRIMMABLE_BY_USB)
 143:.\Generated_Source\PSoC4/CyLib.c ****         CySysClkImoDisableUsbLock();
 144:.\Generated_Source\PSoC4/CyLib.c ****     #endif  /* (CY_IP_IMO_TRIMMABLE_BY_USB) */
 145:.\Generated_Source\PSoC4/CyLib.c **** 
 146:.\Generated_Source\PSoC4/CyLib.c ****     CY_SYS_CLK_IMO_CONFIG_REG &= ( uint32 ) ( ~( uint32 )CY_SYS_CLK_IMO_CONFIG_ENABLE);
 155              		.loc 1 146 0
 156 0004 034B     		ldr	r3, .L5
 157 0006 034A     		ldr	r2, .L5
 158 0008 1268     		ldr	r2, [r2]
 159 000a 5200     		lsl	r2, r2, #1
 160 000c 5208     		lsr	r2, r2, #1
 161 000e 1A60     		str	r2, [r3]
 147:.\Generated_Source\PSoC4/CyLib.c **** }
 162              		.loc 1 147 0
 163 0010 BD46     		mov	sp, r7
 164              		@ sp needed
 165 0012 80BD     		pop	{r7, pc}
 166              	.L6:
 167              		.align	2
 168              	.L5:
 169 0014 08010B40 		.word	1074462984
 170              		.cfi_endproc
 171              	.LFE3:
 172              		.size	CySysClkImoStop, .-CySysClkImoStop
 173              		.section	.text.CySysClkWriteHfclkDirect,"ax",%progbits
 174              		.align	2
 175              		.global	CySysClkWriteHfclkDirect
 176              		.code	16
 177              		.thumb_func
 178              		.type	CySysClkWriteHfclkDirect, %function
 179              	CySysClkWriteHfclkDirect:
 180              	.LFB4:
 148:.\Generated_Source\PSoC4/CyLib.c **** 
 149:.\Generated_Source\PSoC4/CyLib.c **** #if (CY_IP_IMO_TRIMMABLE_BY_WCO)
 150:.\Generated_Source\PSoC4/CyLib.c **** 
 151:.\Generated_Source\PSoC4/CyLib.c ****     /*******************************************************************************
 152:.\Generated_Source\PSoC4/CyLib.c ****     * Function Name: CySysClkImoEnableWcoLock
 153:.\Generated_Source\PSoC4/CyLib.c ****     ****************************************************************************//**
 154:.\Generated_Source\PSoC4/CyLib.c ****     *
 155:.\Generated_Source\PSoC4/CyLib.c ****     * Enables the IMO to WCO lock feature. This function works only if the WCO is
 156:.\Generated_Source\PSoC4/CyLib.c ****     * already enabled. If the WCO is not enabled then this function returns
 157:.\Generated_Source\PSoC4/CyLib.c ****     * without enabling the lock feature.
 158:.\Generated_Source\PSoC4/CyLib.c ****     *
ARM GAS  C:\Users\Matthew\AppData\Local\Temp\ccRMqeZg.s 			page 7


 159:.\Generated_Source\PSoC4/CyLib.c ****     * It takes up to 20 ms for the IMO to stabilize. The delay is implemented with
 160:.\Generated_Source\PSoC4/CyLib.c ****     * CyDelay() function. The delay interval is measured based on the system
 161:.\Generated_Source\PSoC4/CyLib.c ****     * frequency defined by PSoC Creator at build time. If System clock frequency
 162:.\Generated_Source\PSoC4/CyLib.c ****     * is changed in runtime, the CyDelayFreq() with the appropriate parameter
 163:.\Generated_Source\PSoC4/CyLib.c ****     * should be called.
 164:.\Generated_Source\PSoC4/CyLib.c ****     *
 165:.\Generated_Source\PSoC4/CyLib.c ****     * For PSoC 4200L devices, note that the IMO can lock to either WCO or USB
 166:.\Generated_Source\PSoC4/CyLib.c ****     * but not both.
 167:.\Generated_Source\PSoC4/CyLib.c ****     *
 168:.\Generated_Source\PSoC4/CyLib.c ****     * This function is applicable for PSoC 4100M / PSoC 4200M / PSoC 4000S /
 169:.\Generated_Source\PSoC4/CyLib.c ****     * PSoC 4100S / PSoC 4400 / PSoC 4200L.
 170:.\Generated_Source\PSoC4/CyLib.c ****     *
 171:.\Generated_Source\PSoC4/CyLib.c ****     *******************************************************************************/
 172:.\Generated_Source\PSoC4/CyLib.c ****     void CySysClkImoEnableWcoLock(void)
 173:.\Generated_Source\PSoC4/CyLib.c ****     {
 174:.\Generated_Source\PSoC4/CyLib.c ****         #if(CY_IP_SRSSV2)
 175:.\Generated_Source\PSoC4/CyLib.c ****             uint32 i;
 176:.\Generated_Source\PSoC4/CyLib.c ****         #endif  /* (CY_IP_SRSSV2) */
 177:.\Generated_Source\PSoC4/CyLib.c **** 
 178:.\Generated_Source\PSoC4/CyLib.c ****         uint32 freq;
 179:.\Generated_Source\PSoC4/CyLib.c ****         uint8  interruptState;
 180:.\Generated_Source\PSoC4/CyLib.c ****         uint32 regTmp;
 181:.\Generated_Source\PSoC4/CyLib.c ****         uint32 lfLimit = 0u;
 182:.\Generated_Source\PSoC4/CyLib.c ****         volatile uint32 flashCtlReg;
 183:.\Generated_Source\PSoC4/CyLib.c **** 
 184:.\Generated_Source\PSoC4/CyLib.c ****         if (0u != CySysClkWcoEnabled())
 185:.\Generated_Source\PSoC4/CyLib.c ****         {
 186:.\Generated_Source\PSoC4/CyLib.c ****             interruptState = CyEnterCriticalSection();
 187:.\Generated_Source\PSoC4/CyLib.c **** 
 188:.\Generated_Source\PSoC4/CyLib.c ****             /* Set oscillator interface control port to WCO */
 189:.\Generated_Source\PSoC4/CyLib.c ****             #if (CY_IP_IMO_TRIMMABLE_BY_WCO && CY_IP_IMO_TRIMMABLE_BY_USB)
 190:.\Generated_Source\PSoC4/CyLib.c ****                 CY_SYS_CLK_OSCINTF_CTL_REG =
 191:.\Generated_Source\PSoC4/CyLib.c ****                     (CY_SYS_CLK_OSCINTF_CTL_REG & (uint32) ~CY_SYS_CLK_OSCINTF_CTL_PORT_SEL_MASK) |
 192:.\Generated_Source\PSoC4/CyLib.c ****                     CY_SYS_CLK_OSCINTF_CTL_PORT_SEL_WCO;
 193:.\Generated_Source\PSoC4/CyLib.c ****             #endif /* (CY_IP_IMO_TRIMMABLE_BY_WCO && CY_IP_IMO_TRIMMABLE_BY_USB) */
 194:.\Generated_Source\PSoC4/CyLib.c **** 
 195:.\Generated_Source\PSoC4/CyLib.c ****             /* Get current IMO frequency based on the register value */
 196:.\Generated_Source\PSoC4/CyLib.c ****             #if(CY_IP_SRSSV2)
 197:.\Generated_Source\PSoC4/CyLib.c ****                 freq = CY_SYS_CLK_IMO_MIN_FREQ_MHZ;
 198:.\Generated_Source\PSoC4/CyLib.c ****                 for(i = 0u; i < CY_SYS_CLK_IMO_FREQ_TABLE_SIZE; i++)
 199:.\Generated_Source\PSoC4/CyLib.c ****                 {
 200:.\Generated_Source\PSoC4/CyLib.c ****                     if ((uint8) (CY_SYS_CLK_IMO_TRIM2_REG & CY_SYS_CLK_IMO_FREQ_BITS_MASK) == cyImo
 201:.\Generated_Source\PSoC4/CyLib.c ****                     {
 202:.\Generated_Source\PSoC4/CyLib.c ****                         freq = i + CY_SYS_CLK_IMO_FREQ_TABLE_OFFSET;
 203:.\Generated_Source\PSoC4/CyLib.c ****                         break;
 204:.\Generated_Source\PSoC4/CyLib.c ****                     }
 205:.\Generated_Source\PSoC4/CyLib.c ****                 }
 206:.\Generated_Source\PSoC4/CyLib.c ****             #else
 207:.\Generated_Source\PSoC4/CyLib.c ****                 /* Calculate frequency by shifting register field value and adding constant. */
 208:.\Generated_Source\PSoC4/CyLib.c ****                 #if(CY_IP_SRSSLT)
 209:.\Generated_Source\PSoC4/CyLib.c ****                     freq = (((uint32) ((CY_SYS_CLK_IMO_SELECT_REG & ((uint32) CY_SYS_CLK_IMO_SELECT
 210:.\Generated_Source\PSoC4/CyLib.c ****                                         CY_SYS_CLK_IMO_SELECT_FREQ_SHIFT) + CY_SYS_CLK_IMO_MIN_FREQ
 211:.\Generated_Source\PSoC4/CyLib.c ****                                       ((CY_SYS_CLK_SELECT_REG >> CY_SYS_CLK_SELECT_HFCLK_DIV_SHIFT)
 212:.\Generated_Source\PSoC4/CyLib.c ****                                        (uint32) CY_SYS_CLK_SELECT_HFCLK_DIV_MASK));
 213:.\Generated_Source\PSoC4/CyLib.c ****                 #else
 214:.\Generated_Source\PSoC4/CyLib.c ****                     freq = ((uint32) ((CY_SYS_CLK_IMO_SELECT_REG & ((uint32) CY_SYS_CLK_IMO_SELECT_
 215:.\Generated_Source\PSoC4/CyLib.c ****                                        CY_SYS_CLK_IMO_SELECT_FREQ_SHIFT) + CY_SYS_CLK_IMO_MIN_FREQ_
ARM GAS  C:\Users\Matthew\AppData\Local\Temp\ccRMqeZg.s 			page 8


 216:.\Generated_Source\PSoC4/CyLib.c ****                 #endif  /* (CY_IP_SRSSLT) */
 217:.\Generated_Source\PSoC4/CyLib.c **** 
 218:.\Generated_Source\PSoC4/CyLib.c ****             #endif  /* (CY_IP_SRSSV2) */
 219:.\Generated_Source\PSoC4/CyLib.c **** 
 220:.\Generated_Source\PSoC4/CyLib.c ****             /* For the WCO locking mode, the IMO gain needs to be CY_SYS_CLK_IMO_TRIM4_GAIN */
 221:.\Generated_Source\PSoC4/CyLib.c ****             #if(CY_IP_SRSSV2)
 222:.\Generated_Source\PSoC4/CyLib.c ****                 if ((CY_SYS_CLK_IMO_TRIM4_REG & CY_SYS_CLK_IMO_TRIM4_GAIN_MASK) == 0u)
 223:.\Generated_Source\PSoC4/CyLib.c ****                 {
 224:.\Generated_Source\PSoC4/CyLib.c **** 			         CY_SYS_CLK_IMO_TRIM4_REG = (CY_SYS_CLK_IMO_TRIM4_REG & (uint32) ~CY_SYS_CLK_IMO_TRIM4_G
 225:.\Generated_Source\PSoC4/CyLib.c **** 			                  				     CY_SYS_CLK_IMO_TRIM4_WCO_GAIN;
 226:.\Generated_Source\PSoC4/CyLib.c ****                 }
 227:.\Generated_Source\PSoC4/CyLib.c ****             #endif /* (CY_IP_SRSSV2) */
 228:.\Generated_Source\PSoC4/CyLib.c **** 
 229:.\Generated_Source\PSoC4/CyLib.c ****             regTmp  = CY_SYS_CLK_WCO_DPLL_REG & ~(CY_SYS_CLK_WCO_DPLL_MULT_MASK |
 230:.\Generated_Source\PSoC4/CyLib.c ****                                                   CY_SYS_CLK_WCO_CONFIG_DPLL_LF_IGAIN_MASK |
 231:.\Generated_Source\PSoC4/CyLib.c ****                                                   CY_SYS_CLK_WCO_CONFIG_DPLL_LF_PGAIN_MASK |
 232:.\Generated_Source\PSoC4/CyLib.c ****                                                   CY_SYS_CLK_WCO_CONFIG_DPLL_LF_LIMIT_MASK);
 233:.\Generated_Source\PSoC4/CyLib.c **** 
 234:.\Generated_Source\PSoC4/CyLib.c ****             /* Set multiplier to determine IMO frequency in multiples of the WCO frequency */
 235:.\Generated_Source\PSoC4/CyLib.c ****             regTmp |= (CY_SYS_CLK_WCO_DPLL_MULT_VALUE(freq) & CY_SYS_CLK_WCO_DPLL_MULT_MASK);
 236:.\Generated_Source\PSoC4/CyLib.c **** 
 237:.\Generated_Source\PSoC4/CyLib.c ****             /* Set DPLL Loop Filter Integral and Proportional Gains Setting */
 238:.\Generated_Source\PSoC4/CyLib.c ****             regTmp |= (CY_SYS_CLK_WCO_CONFIG_DPLL_LF_IGAIN | CY_SYS_CLK_WCO_CONFIG_DPLL_LF_PGAIN);
 239:.\Generated_Source\PSoC4/CyLib.c **** 
 240:.\Generated_Source\PSoC4/CyLib.c ****             /* Set maximum allowed IMO offset */
 241:.\Generated_Source\PSoC4/CyLib.c ****             if (freq < CY_SYS_CLK_IMO_FREQ_WCO_DPLL_SAFE_POINT)
 242:.\Generated_Source\PSoC4/CyLib.c ****             {
 243:.\Generated_Source\PSoC4/CyLib.c ****                 regTmp |= (CY_SYS_CLK_WCO_CONFIG_DPLL_LF_LIMIT_MAX << CY_SYS_CLK_WCO_CONFIG_DPLL_LF
 244:.\Generated_Source\PSoC4/CyLib.c ****             }
 245:.\Generated_Source\PSoC4/CyLib.c ****             else
 246:.\Generated_Source\PSoC4/CyLib.c ****             {
 247:.\Generated_Source\PSoC4/CyLib.c ****                 lfLimit = (uint32) CY_SFLASH_IMO_TRIM_REG(freq - CY_SYS_CLK_IMO_MIN_FREQ_MHZ) +
 248:.\Generated_Source\PSoC4/CyLib.c ****                     cyImoFreqMhz2DpllOffset[freq - CY_SYS_CLK_IMO_FREQ_WCO_DPLL_TABLE_OFFSET];
 249:.\Generated_Source\PSoC4/CyLib.c **** 
 250:.\Generated_Source\PSoC4/CyLib.c ****                 lfLimit = (lfLimit > CY_SYS_CLK_WCO_CONFIG_DPLL_LF_LIMIT_MAX) ?
 251:.\Generated_Source\PSoC4/CyLib.c ****                     CY_SYS_CLK_WCO_CONFIG_DPLL_LF_LIMIT_MAX : lfLimit;
 252:.\Generated_Source\PSoC4/CyLib.c **** 
 253:.\Generated_Source\PSoC4/CyLib.c ****                 regTmp |= (lfLimit << CY_SYS_CLK_WCO_CONFIG_DPLL_LF_LIMIT_SHIFT);
 254:.\Generated_Source\PSoC4/CyLib.c ****             }
 255:.\Generated_Source\PSoC4/CyLib.c **** 
 256:.\Generated_Source\PSoC4/CyLib.c ****             CY_SYS_CLK_WCO_DPLL_REG = regTmp;
 257:.\Generated_Source\PSoC4/CyLib.c **** 
 258:.\Generated_Source\PSoC4/CyLib.c ****             flashCtlReg = CY_FLASH_CTL_REG;
 259:.\Generated_Source\PSoC4/CyLib.c ****             CySysFlashSetWaitCycles(CY_SYS_CLK_IMO_MAX_FREQ_MHZ);
 260:.\Generated_Source\PSoC4/CyLib.c ****             CY_SYS_CLK_WCO_CONFIG_REG |= CY_SYS_CLK_WCO_CONFIG_DPLL_ENABLE;
 261:.\Generated_Source\PSoC4/CyLib.c ****             CyDelay(CY_SYS_CLK_WCO_IMO_TIMEOUT_MS);
 262:.\Generated_Source\PSoC4/CyLib.c ****             CY_FLASH_CTL_REG = flashCtlReg;
 263:.\Generated_Source\PSoC4/CyLib.c **** 
 264:.\Generated_Source\PSoC4/CyLib.c ****             CyExitCriticalSection(interruptState);
 265:.\Generated_Source\PSoC4/CyLib.c ****         }
 266:.\Generated_Source\PSoC4/CyLib.c ****     }
 267:.\Generated_Source\PSoC4/CyLib.c **** 
 268:.\Generated_Source\PSoC4/CyLib.c **** 
 269:.\Generated_Source\PSoC4/CyLib.c ****     /*******************************************************************************
 270:.\Generated_Source\PSoC4/CyLib.c ****     * Function Name: CySysClkImoDisableWcoLock
 271:.\Generated_Source\PSoC4/CyLib.c ****     ****************************************************************************//**
 272:.\Generated_Source\PSoC4/CyLib.c ****     *
ARM GAS  C:\Users\Matthew\AppData\Local\Temp\ccRMqeZg.s 			page 9


 273:.\Generated_Source\PSoC4/CyLib.c ****     * Disables the IMO to WCO lock feature.
 274:.\Generated_Source\PSoC4/CyLib.c ****     *
 275:.\Generated_Source\PSoC4/CyLib.c ****     * For PSoC 4200L devices, note that the IMO can lock to either WCO or USB
 276:.\Generated_Source\PSoC4/CyLib.c ****     * but not both.
 277:.\Generated_Source\PSoC4/CyLib.c ****     *
 278:.\Generated_Source\PSoC4/CyLib.c ****     * This function is applicable for PSoC 4100M / PSoC 4200M / PSoC 4000S /
 279:.\Generated_Source\PSoC4/CyLib.c ****     * PSoC 4100S / PSoC 4400 / PSoC 4200L.
 280:.\Generated_Source\PSoC4/CyLib.c ****     *
 281:.\Generated_Source\PSoC4/CyLib.c ****     *******************************************************************************/
 282:.\Generated_Source\PSoC4/CyLib.c ****     void CySysClkImoDisableWcoLock(void)
 283:.\Generated_Source\PSoC4/CyLib.c ****     {
 284:.\Generated_Source\PSoC4/CyLib.c ****         CY_SYS_CLK_WCO_CONFIG_REG &= (uint32) ~CY_SYS_CLK_WCO_CONFIG_DPLL_ENABLE;
 285:.\Generated_Source\PSoC4/CyLib.c ****     }
 286:.\Generated_Source\PSoC4/CyLib.c **** 
 287:.\Generated_Source\PSoC4/CyLib.c **** 
 288:.\Generated_Source\PSoC4/CyLib.c ****     /*******************************************************************************
 289:.\Generated_Source\PSoC4/CyLib.c ****     * Function Name: CySysClkImoGetWcoLock
 290:.\Generated_Source\PSoC4/CyLib.c ****     ****************************************************************************//**
 291:.\Generated_Source\PSoC4/CyLib.c ****     *
 292:.\Generated_Source\PSoC4/CyLib.c ****     * Reports the IMO to WCO lock enable state.
 293:.\Generated_Source\PSoC4/CyLib.c ****     *
 294:.\Generated_Source\PSoC4/CyLib.c ****     * This function is applicable for PSoC 4100M / PSoC 4200M / PSoC 4000S /
 295:.\Generated_Source\PSoC4/CyLib.c ****     * PSoC 4100S / PSoC 4400 / PSoC 4200L.
 296:.\Generated_Source\PSoC4/CyLib.c ****     *
 297:.\Generated_Source\PSoC4/CyLib.c ****     * \return 1 if IMO to WCO lock is enabled.
 298:.\Generated_Source\PSoC4/CyLib.c ****     * \return 0 if IMO to WCO lock is disabled.
 299:.\Generated_Source\PSoC4/CyLib.c ****     *
 300:.\Generated_Source\PSoC4/CyLib.c ****     *******************************************************************************/
 301:.\Generated_Source\PSoC4/CyLib.c ****     uint32 CySysClkImoGetWcoLock(void)
 302:.\Generated_Source\PSoC4/CyLib.c ****     {
 303:.\Generated_Source\PSoC4/CyLib.c ****         return ((0u != (CY_SYS_CLK_WCO_CONFIG_REG & CY_SYS_CLK_WCO_CONFIG_DPLL_ENABLE)) ?
 304:.\Generated_Source\PSoC4/CyLib.c ****                 (uint32) 1u :
 305:.\Generated_Source\PSoC4/CyLib.c ****                 (uint32) 0u);
 306:.\Generated_Source\PSoC4/CyLib.c ****     }
 307:.\Generated_Source\PSoC4/CyLib.c **** 
 308:.\Generated_Source\PSoC4/CyLib.c **** #endif /* (CY_IP_IMO_TRIMMABLE_BY_WCO) */
 309:.\Generated_Source\PSoC4/CyLib.c **** 
 310:.\Generated_Source\PSoC4/CyLib.c **** 
 311:.\Generated_Source\PSoC4/CyLib.c **** #if (CY_IP_IMO_TRIMMABLE_BY_USB)
 312:.\Generated_Source\PSoC4/CyLib.c **** 
 313:.\Generated_Source\PSoC4/CyLib.c ****     /*******************************************************************************
 314:.\Generated_Source\PSoC4/CyLib.c ****     * Function Name: CySysClkImoEnableUsbLock
 315:.\Generated_Source\PSoC4/CyLib.c ****     ****************************************************************************//**
 316:.\Generated_Source\PSoC4/CyLib.c ****     *
 317:.\Generated_Source\PSoC4/CyLib.c ****     * Enables the IMO to USB lock feature.
 318:.\Generated_Source\PSoC4/CyLib.c ****     *
 319:.\Generated_Source\PSoC4/CyLib.c ****     * This function must be called before CySysClkWriteImoFreq().
 320:.\Generated_Source\PSoC4/CyLib.c ****     *
 321:.\Generated_Source\PSoC4/CyLib.c ****     * This function is called from CySysClkImoStart() function if USB lock
 322:.\Generated_Source\PSoC4/CyLib.c ****     * selected in the Design Wide Resources tab.
 323:.\Generated_Source\PSoC4/CyLib.c ****     *
 324:.\Generated_Source\PSoC4/CyLib.c ****     * This is applicable for PSoC 4200L family of devices only. For PSoC 4200L
 325:.\Generated_Source\PSoC4/CyLib.c ****     * devices, the IMO can lock to either WCO or USB, but not both.
 326:.\Generated_Source\PSoC4/CyLib.c ****     *
 327:.\Generated_Source\PSoC4/CyLib.c ****     *******************************************************************************/
 328:.\Generated_Source\PSoC4/CyLib.c ****     void CySysClkImoEnableUsbLock(void)
 329:.\Generated_Source\PSoC4/CyLib.c ****     {
ARM GAS  C:\Users\Matthew\AppData\Local\Temp\ccRMqeZg.s 			page 10


 330:.\Generated_Source\PSoC4/CyLib.c ****         /* Set oscillator interface control port to USB */
 331:.\Generated_Source\PSoC4/CyLib.c ****         #if (CY_IP_IMO_TRIMMABLE_BY_WCO && CY_IP_IMO_TRIMMABLE_BY_USB)
 332:.\Generated_Source\PSoC4/CyLib.c ****             CY_SYS_CLK_OSCINTF_CTL_REG = (CY_SYS_CLK_OSCINTF_CTL_REG & (uint32) ~CY_SYS_CLK_OSCINTF
 333:.\Generated_Source\PSoC4/CyLib.c ****                                           CY_SYS_CLK_OSCINTF_CTL_PORT_SEL_USB;
 334:.\Generated_Source\PSoC4/CyLib.c ****         #endif /* (CY_IP_IMO_TRIMMABLE_BY_WCO && CY_IP_IMO_TRIMMABLE_BY_USB) */
 335:.\Generated_Source\PSoC4/CyLib.c **** 
 336:.\Generated_Source\PSoC4/CyLib.c ****         #if(CY_IP_SRSSV2)
 337:.\Generated_Source\PSoC4/CyLib.c ****             /* Save CY_SYS_CLK_IMO_TRIM4_REG and set IMO gain for USB lock */
 338:.\Generated_Source\PSoC4/CyLib.c ****             CySysClkImoTrim4 = CY_SYS_CLK_IMO_TRIM4_REG & (uint32) ~CY_SYS_CLK_IMO_TRIM4_GAIN_MASK;
 339:.\Generated_Source\PSoC4/CyLib.c ****             CY_SYS_CLK_IMO_TRIM4_REG = (CY_SYS_CLK_IMO_TRIM4_REG & (uint32) ~CY_SYS_CLK_IMO_TRIM4_G
 340:.\Generated_Source\PSoC4/CyLib.c ****                                         CY_SYS_CLK_IMO_TRIM4_USB_GAIN;
 341:.\Generated_Source\PSoC4/CyLib.c ****         #endif  /* (CY_IP_SRSSV2) */
 342:.\Generated_Source\PSoC4/CyLib.c **** 
 343:.\Generated_Source\PSoC4/CyLib.c ****         CY_SYS_CLK_USBDEVv2_CR1_REG |= CY_SYS_CLK_USBDEVv2_CR1_ENABLE_LOCK;
 344:.\Generated_Source\PSoC4/CyLib.c ****     }
 345:.\Generated_Source\PSoC4/CyLib.c **** 
 346:.\Generated_Source\PSoC4/CyLib.c **** 
 347:.\Generated_Source\PSoC4/CyLib.c ****     /*******************************************************************************
 348:.\Generated_Source\PSoC4/CyLib.c ****     * Function Name: CySysClkImoDisableUsbLock
 349:.\Generated_Source\PSoC4/CyLib.c ****     ****************************************************************************//**
 350:.\Generated_Source\PSoC4/CyLib.c ****     *
 351:.\Generated_Source\PSoC4/CyLib.c ****     * Disables the IMO to USB lock feature.
 352:.\Generated_Source\PSoC4/CyLib.c ****     *
 353:.\Generated_Source\PSoC4/CyLib.c ****     * This function is called from CySysClkImoStop() function if USB lock selected
 354:.\Generated_Source\PSoC4/CyLib.c ****     * in the Design Wide Resources tab.
 355:.\Generated_Source\PSoC4/CyLib.c ****     *
 356:.\Generated_Source\PSoC4/CyLib.c ****     * This is applicable for PSoC 4200L family of devices only. For PSoC 4200L
 357:.\Generated_Source\PSoC4/CyLib.c ****     * devices, the IMO can lock to either WCO or USB, but not both.
 358:.\Generated_Source\PSoC4/CyLib.c ****     *
 359:.\Generated_Source\PSoC4/CyLib.c ****     *******************************************************************************/
 360:.\Generated_Source\PSoC4/CyLib.c ****     void CySysClkImoDisableUsbLock(void)
 361:.\Generated_Source\PSoC4/CyLib.c ****     {
 362:.\Generated_Source\PSoC4/CyLib.c ****         CY_SYS_CLK_USBDEVv2_CR1_REG &= (uint32) ~CY_SYS_CLK_USBDEVv2_CR1_ENABLE_LOCK;
 363:.\Generated_Source\PSoC4/CyLib.c **** 
 364:.\Generated_Source\PSoC4/CyLib.c ****         #if(CY_IP_SRSSV2)
 365:.\Generated_Source\PSoC4/CyLib.c ****             /* Restore CY_SYS_CLK_IMO_TRIM4_REG */
 366:.\Generated_Source\PSoC4/CyLib.c ****             CY_SYS_CLK_IMO_TRIM4_REG = (CY_SYS_CLK_IMO_TRIM4_REG & (uint32) ~CY_SYS_CLK_IMO_TRIM4_G
 367:.\Generated_Source\PSoC4/CyLib.c ****                                     CySysClkImoTrim4;
 368:.\Generated_Source\PSoC4/CyLib.c ****         #endif  /* (CY_IP_SRSSV2) */
 369:.\Generated_Source\PSoC4/CyLib.c ****     }
 370:.\Generated_Source\PSoC4/CyLib.c **** 
 371:.\Generated_Source\PSoC4/CyLib.c **** 
 372:.\Generated_Source\PSoC4/CyLib.c ****     /*******************************************************************************
 373:.\Generated_Source\PSoC4/CyLib.c ****     * Function Name: CySysClkImoGetUsbLock
 374:.\Generated_Source\PSoC4/CyLib.c ****     ****************************************************************************//**
 375:.\Generated_Source\PSoC4/CyLib.c ****     *
 376:.\Generated_Source\PSoC4/CyLib.c ****     * Reports the IMO to USB lock enable state.
 377:.\Generated_Source\PSoC4/CyLib.c ****     *
 378:.\Generated_Source\PSoC4/CyLib.c ****     * This is applicable for PSoC 4200L family of devices only. For PSoC 4200L
 379:.\Generated_Source\PSoC4/CyLib.c ****     * devices, the IMO can lock to either WCO or USB, but not both.
 380:.\Generated_Source\PSoC4/CyLib.c ****     *
 381:.\Generated_Source\PSoC4/CyLib.c ****     * \return 1 if IMO to USB lock is enabled.
 382:.\Generated_Source\PSoC4/CyLib.c ****     * \return 0 if IMO to USB lock is disabled.
 383:.\Generated_Source\PSoC4/CyLib.c ****     *
 384:.\Generated_Source\PSoC4/CyLib.c ****     *******************************************************************************/
 385:.\Generated_Source\PSoC4/CyLib.c ****     uint32 CySysClkImoGetUsbLock(void)
 386:.\Generated_Source\PSoC4/CyLib.c ****     {
ARM GAS  C:\Users\Matthew\AppData\Local\Temp\ccRMqeZg.s 			page 11


 387:.\Generated_Source\PSoC4/CyLib.c ****         return ((0u != (CY_SYS_CLK_USBDEVv2_CR1_REG & CY_SYS_CLK_USBDEVv2_CR1_ENABLE_LOCK)) ?
 388:.\Generated_Source\PSoC4/CyLib.c ****                 (uint32) 1u :
 389:.\Generated_Source\PSoC4/CyLib.c ****                 (uint32) 0u);
 390:.\Generated_Source\PSoC4/CyLib.c ****     }
 391:.\Generated_Source\PSoC4/CyLib.c **** #endif  /* (CY_IP_IMO_TRIMMABLE_BY_USB) */
 392:.\Generated_Source\PSoC4/CyLib.c **** 
 393:.\Generated_Source\PSoC4/CyLib.c **** 
 394:.\Generated_Source\PSoC4/CyLib.c **** 
 395:.\Generated_Source\PSoC4/CyLib.c **** /*******************************************************************************
 396:.\Generated_Source\PSoC4/CyLib.c **** * Function Name: CySysClkWriteHfclkDirect
 397:.\Generated_Source\PSoC4/CyLib.c **** ****************************************************************************//**
 398:.\Generated_Source\PSoC4/CyLib.c **** *
 399:.\Generated_Source\PSoC4/CyLib.c **** * Selects the direct source for the HFCLK.
 400:.\Generated_Source\PSoC4/CyLib.c **** *
 401:.\Generated_Source\PSoC4/CyLib.c **** * The new source must be running and stable before calling this function.
 402:.\Generated_Source\PSoC4/CyLib.c **** *
 403:.\Generated_Source\PSoC4/CyLib.c **** * PSoC 4000:
 404:.\Generated_Source\PSoC4/CyLib.c **** * The SYSCLK has a maximum speed of 16 MHz, so HFCLK and SYSCLK dividers should
 405:.\Generated_Source\PSoC4/CyLib.c **** * be selected in a way to not to exceed 16 MHz for the System clock.
 406:.\Generated_Source\PSoC4/CyLib.c **** *
 407:.\Generated_Source\PSoC4/CyLib.c **** * If the SYSCLK clock frequency increases during device operation, call
 408:.\Generated_Source\PSoC4/CyLib.c **** * CySysFlashSetWaitCycles() with the appropriate parameter to adjust the number
 409:.\Generated_Source\PSoC4/CyLib.c **** * of clock cycles the cache will wait before sampling data comes back from
 410:.\Generated_Source\PSoC4/CyLib.c **** * Flash. If the SYSCLK clock frequency decreases, you can call
 411:.\Generated_Source\PSoC4/CyLib.c **** * CySysFlashSetWaitCycles() to improve the CPU performance. See
 412:.\Generated_Source\PSoC4/CyLib.c **** * CySysFlashSetWaitCycles() description for more information.
 413:.\Generated_Source\PSoC4/CyLib.c **** *
 414:.\Generated_Source\PSoC4/CyLib.c **** * Do not select PLL as the source for HFCLK if PLL output frequency exceeds
 415:.\Generated_Source\PSoC4/CyLib.c **** * maximum permissible value for HFCLK.
 416:.\Generated_Source\PSoC4/CyLib.c **** *
 417:.\Generated_Source\PSoC4/CyLib.c **** * \param clkSelect One of the available HFCLK direct sources.
 418:.\Generated_Source\PSoC4/CyLib.c **** * CY_SYS_CLK_HFCLK_IMO     IMO.
 419:.\Generated_Source\PSoC4/CyLib.c **** * CY_SYS_CLK_HFCLK_EXTCLK  External clock pin.
 420:.\Generated_Source\PSoC4/CyLib.c **** * CY_SYS_CLK_HFCLK_ECO     External crystal oscillator. Applicable for
 421:.\Generated_Source\PSoC4/CyLib.c **** *                          PSoC 4100 BLE / PSoC 4200 BLE / PSoC 4200L.
 422:.\Generated_Source\PSoC4/CyLib.c **** * CY_SYS_CLK_HFCLK_PLL0    PLL#0. Applicable for PSoC 4200L.
 423:.\Generated_Source\PSoC4/CyLib.c **** * CY_SYS_CLK_HFCLK_PLL1    PLL#1. Applicable for PSoC 4200L.
 424:.\Generated_Source\PSoC4/CyLib.c **** *
 425:.\Generated_Source\PSoC4/CyLib.c **** *******************************************************************************/
 426:.\Generated_Source\PSoC4/CyLib.c **** void CySysClkWriteHfclkDirect(uint32 clkSelect)
 427:.\Generated_Source\PSoC4/CyLib.c **** {
 181              		.loc 1 427 0
 182              		.cfi_startproc
 183 0000 90B5     		push	{r4, r7, lr}
 184              		.cfi_def_cfa_offset 12
 185              		.cfi_offset 4, -12
 186              		.cfi_offset 7, -8
 187              		.cfi_offset 14, -4
 188 0002 85B0     		sub	sp, sp, #20
 189              		.cfi_def_cfa_offset 32
 190 0004 00AF     		add	r7, sp, #0
 191              		.cfi_def_cfa_register 7
 192 0006 7860     		str	r0, [r7, #4]
 428:.\Generated_Source\PSoC4/CyLib.c ****     uint8  interruptState;
 429:.\Generated_Source\PSoC4/CyLib.c ****     uint32 tmpReg;
 430:.\Generated_Source\PSoC4/CyLib.c **** 
 431:.\Generated_Source\PSoC4/CyLib.c ****     interruptState = CyEnterCriticalSection();
ARM GAS  C:\Users\Matthew\AppData\Local\Temp\ccRMqeZg.s 			page 12


 193              		.loc 1 431 0
 194 0008 0F23     		mov	r3, #15
 195 000a FC18     		add	r4, r7, r3
 196 000c FFF7FEFF 		bl	CyEnterCriticalSection
 197 0010 031C     		mov	r3, r0
 198 0012 2370     		strb	r3, [r4]
 432:.\Generated_Source\PSoC4/CyLib.c **** 
 433:.\Generated_Source\PSoC4/CyLib.c **** 
 434:.\Generated_Source\PSoC4/CyLib.c ****     tmpReg = CY_SYS_CLK_SELECT_REG & ~(CY_SYS_CLK_SELECT_DIRECT_SEL_MASK |
 199              		.loc 1 434 0
 200 0014 0B4B     		ldr	r3, .L8
 201 0016 1B68     		ldr	r3, [r3]
 202 0018 0722     		mov	r2, #7
 203 001a 9343     		bic	r3, r2
 204 001c BB60     		str	r3, [r7, #8]
 435:.\Generated_Source\PSoC4/CyLib.c ****                                        CY_SYS_CLK_SELECT_HFCLK_SEL_MASK);
 436:.\Generated_Source\PSoC4/CyLib.c **** 
 437:.\Generated_Source\PSoC4/CyLib.c **** #if (CY_IP_SRSSV2 && CY_IP_PLL)
 438:.\Generated_Source\PSoC4/CyLib.c ****     if ((CY_SYS_CLK_HFCLK_PLL0 == clkSelect) || (CY_SYS_CLK_HFCLK_PLL1 == clkSelect))
 439:.\Generated_Source\PSoC4/CyLib.c ****     {
 440:.\Generated_Source\PSoC4/CyLib.c ****         tmpReg |= (clkSelect & CY_SYS_CLK_SELECT_HFCLK_SEL_MASK);
 441:.\Generated_Source\PSoC4/CyLib.c ****     }
 442:.\Generated_Source\PSoC4/CyLib.c ****     else
 443:.\Generated_Source\PSoC4/CyLib.c **** #endif /* (CY_IP_SRSSV2 && CY_IP_PLL) */
 444:.\Generated_Source\PSoC4/CyLib.c ****     {
 445:.\Generated_Source\PSoC4/CyLib.c ****         tmpReg |= (clkSelect & CY_SYS_CLK_SELECT_DIRECT_SEL_MASK);
 205              		.loc 1 445 0
 206 001e 7B68     		ldr	r3, [r7, #4]
 207 0020 0722     		mov	r2, #7
 208 0022 1340     		and	r3, r2
 209 0024 BA68     		ldr	r2, [r7, #8]
 210 0026 1343     		orr	r3, r2
 211 0028 BB60     		str	r3, [r7, #8]
 446:.\Generated_Source\PSoC4/CyLib.c ****     }
 447:.\Generated_Source\PSoC4/CyLib.c **** 
 448:.\Generated_Source\PSoC4/CyLib.c ****     CY_SYS_CLK_SELECT_REG = tmpReg;
 212              		.loc 1 448 0
 213 002a 064B     		ldr	r3, .L8
 214 002c BA68     		ldr	r2, [r7, #8]
 215 002e 1A60     		str	r2, [r3]
 449:.\Generated_Source\PSoC4/CyLib.c **** 
 450:.\Generated_Source\PSoC4/CyLib.c ****     CyExitCriticalSection(interruptState);
 216              		.loc 1 450 0
 217 0030 0F23     		mov	r3, #15
 218 0032 FB18     		add	r3, r7, r3
 219 0034 1B78     		ldrb	r3, [r3]
 220 0036 181C     		mov	r0, r3
 221 0038 FFF7FEFF 		bl	CyExitCriticalSection
 451:.\Generated_Source\PSoC4/CyLib.c **** }
 222              		.loc 1 451 0
 223 003c BD46     		mov	sp, r7
 224 003e 05B0     		add	sp, sp, #20
 225              		@ sp needed
 226 0040 90BD     		pop	{r4, r7, pc}
 227              	.L9:
 228 0042 C046     		.align	2
 229              	.L8:
ARM GAS  C:\Users\Matthew\AppData\Local\Temp\ccRMqeZg.s 			page 13


 230 0044 00010B40 		.word	1074462976
 231              		.cfi_endproc
 232              	.LFE4:
 233              		.size	CySysClkWriteHfclkDirect, .-CySysClkWriteHfclkDirect
 234              		.section	.text.CySysClkGetSysclkSource,"ax",%progbits
 235              		.align	2
 236              		.global	CySysClkGetSysclkSource
 237              		.code	16
 238              		.thumb_func
 239              		.type	CySysClkGetSysclkSource, %function
 240              	CySysClkGetSysclkSource:
 241              	.LFB5:
 452:.\Generated_Source\PSoC4/CyLib.c **** 
 453:.\Generated_Source\PSoC4/CyLib.c **** 
 454:.\Generated_Source\PSoC4/CyLib.c **** /*******************************************************************************
 455:.\Generated_Source\PSoC4/CyLib.c **** * Function Name: CySysClkGetSysclkSource
 456:.\Generated_Source\PSoC4/CyLib.c **** ****************************************************************************//**
 457:.\Generated_Source\PSoC4/CyLib.c **** *
 458:.\Generated_Source\PSoC4/CyLib.c **** * Returns the source of the System clock.
 459:.\Generated_Source\PSoC4/CyLib.c **** *
 460:.\Generated_Source\PSoC4/CyLib.c **** * \return The same as \ref CySysClkWriteHfclkDirect() function parameters.
 461:.\Generated_Source\PSoC4/CyLib.c **** *
 462:.\Generated_Source\PSoC4/CyLib.c **** *******************************************************************************/
 463:.\Generated_Source\PSoC4/CyLib.c **** uint32 CySysClkGetSysclkSource(void)
 464:.\Generated_Source\PSoC4/CyLib.c **** {
 242              		.loc 1 464 0
 243              		.cfi_startproc
 244 0000 90B5     		push	{r4, r7, lr}
 245              		.cfi_def_cfa_offset 12
 246              		.cfi_offset 4, -12
 247              		.cfi_offset 7, -8
 248              		.cfi_offset 14, -4
 249 0002 83B0     		sub	sp, sp, #12
 250              		.cfi_def_cfa_offset 24
 251 0004 00AF     		add	r7, sp, #0
 252              		.cfi_def_cfa_register 7
 465:.\Generated_Source\PSoC4/CyLib.c ****     uint8  interruptState;
 466:.\Generated_Source\PSoC4/CyLib.c ****     uint32 sysclkSource;
 467:.\Generated_Source\PSoC4/CyLib.c **** 
 468:.\Generated_Source\PSoC4/CyLib.c ****     interruptState = CyEnterCriticalSection();
 253              		.loc 1 468 0
 254 0006 FC1D     		add	r4, r7, #7
 255 0008 FFF7FEFF 		bl	CyEnterCriticalSection
 256 000c 031C     		mov	r3, r0
 257 000e 2370     		strb	r3, [r4]
 469:.\Generated_Source\PSoC4/CyLib.c **** 
 470:.\Generated_Source\PSoC4/CyLib.c **** #if (CY_IP_SRSSV2 && CY_IP_PLL)
 471:.\Generated_Source\PSoC4/CyLib.c ****     if ((CY_SYS_CLK_SELECT_REG & CY_SYS_CLK_SELECT_HFCLK_SEL_MASK) != 0u)
 472:.\Generated_Source\PSoC4/CyLib.c ****     {
 473:.\Generated_Source\PSoC4/CyLib.c ****         sysclkSource = (CY_SYS_CLK_SELECT_REG & CY_SYS_CLK_SELECT_HFCLK_SEL_MASK);
 474:.\Generated_Source\PSoC4/CyLib.c ****     }
 475:.\Generated_Source\PSoC4/CyLib.c ****     else
 476:.\Generated_Source\PSoC4/CyLib.c **** #endif /* (CY_IP_SRSSV2 && CY_IP_PLL) */
 477:.\Generated_Source\PSoC4/CyLib.c ****     {
 478:.\Generated_Source\PSoC4/CyLib.c ****         sysclkSource = (CY_SYS_CLK_SELECT_REG & CY_SYS_CLK_SELECT_DIRECT_SEL_MASK);
 258              		.loc 1 478 0
 259 0010 074B     		ldr	r3, .L12
ARM GAS  C:\Users\Matthew\AppData\Local\Temp\ccRMqeZg.s 			page 14


 260 0012 1B68     		ldr	r3, [r3]
 261 0014 0722     		mov	r2, #7
 262 0016 1340     		and	r3, r2
 263 0018 3B60     		str	r3, [r7]
 479:.\Generated_Source\PSoC4/CyLib.c ****     }
 480:.\Generated_Source\PSoC4/CyLib.c **** 
 481:.\Generated_Source\PSoC4/CyLib.c ****     CyExitCriticalSection(interruptState);
 264              		.loc 1 481 0
 265 001a FB1D     		add	r3, r7, #7
 266 001c 1B78     		ldrb	r3, [r3]
 267 001e 181C     		mov	r0, r3
 268 0020 FFF7FEFF 		bl	CyExitCriticalSection
 482:.\Generated_Source\PSoC4/CyLib.c **** 
 483:.\Generated_Source\PSoC4/CyLib.c ****     return (sysclkSource);
 269              		.loc 1 483 0
 270 0024 3B68     		ldr	r3, [r7]
 484:.\Generated_Source\PSoC4/CyLib.c **** }
 271              		.loc 1 484 0
 272 0026 181C     		mov	r0, r3
 273 0028 BD46     		mov	sp, r7
 274 002a 03B0     		add	sp, sp, #12
 275              		@ sp needed
 276 002c 90BD     		pop	{r4, r7, pc}
 277              	.L13:
 278 002e C046     		.align	2
 279              	.L12:
 280 0030 00010B40 		.word	1074462976
 281              		.cfi_endproc
 282              	.LFE5:
 283              		.size	CySysClkGetSysclkSource, .-CySysClkGetSysclkSource
 284              		.section	.text.CySysClkWriteSysclkDiv,"ax",%progbits
 285              		.align	2
 286              		.global	CySysClkWriteSysclkDiv
 287              		.code	16
 288              		.thumb_func
 289              		.type	CySysClkWriteSysclkDiv, %function
 290              	CySysClkWriteSysclkDiv:
 291              	.LFB6:
 485:.\Generated_Source\PSoC4/CyLib.c **** 
 486:.\Generated_Source\PSoC4/CyLib.c **** 
 487:.\Generated_Source\PSoC4/CyLib.c **** /*******************************************************************************
 488:.\Generated_Source\PSoC4/CyLib.c **** * Function Name: CySysClkWriteSysclkDiv
 489:.\Generated_Source\PSoC4/CyLib.c **** ****************************************************************************//**
 490:.\Generated_Source\PSoC4/CyLib.c **** *
 491:.\Generated_Source\PSoC4/CyLib.c **** * Selects the prescaler divide amount for SYSCLK from HFCLK.
 492:.\Generated_Source\PSoC4/CyLib.c **** *
 493:.\Generated_Source\PSoC4/CyLib.c **** * PSoC 4000: The SYSCLK has the speed of 16 MHz, so HFCLK and SYSCLK dividers
 494:.\Generated_Source\PSoC4/CyLib.c **** * should be selected in a way, not to exceed 16 MHz for SYSCLK.
 495:.\Generated_Source\PSoC4/CyLib.c **** *
 496:.\Generated_Source\PSoC4/CyLib.c **** * PSoC 4100 \ PSoC 4100 BLE \ PSoC 4100M: The SYSCLK has the speed of 24 MHz,
 497:.\Generated_Source\PSoC4/CyLib.c **** * so HFCLK and SYSCLK dividers should be selected in a way, not to exceed 24 MHz
 498:.\Generated_Source\PSoC4/CyLib.c **** * for SYSCLK.
 499:.\Generated_Source\PSoC4/CyLib.c **** *
 500:.\Generated_Source\PSoC4/CyLib.c **** * If the SYSCLK clock frequency increases during the device operation, call
 501:.\Generated_Source\PSoC4/CyLib.c **** * \ref CySysFlashSetWaitCycles() with the appropriate parameter to adjust the
 502:.\Generated_Source\PSoC4/CyLib.c **** * number of clock cycles the cache will wait before sampling data comes back
 503:.\Generated_Source\PSoC4/CyLib.c **** * from Flash. If the SYSCLK clock frequency decreases, you can call
ARM GAS  C:\Users\Matthew\AppData\Local\Temp\ccRMqeZg.s 			page 15


 504:.\Generated_Source\PSoC4/CyLib.c **** * \ref CySysFlashSetWaitCycles() to improve the CPU performance. See
 505:.\Generated_Source\PSoC4/CyLib.c **** * \ref CySysFlashSetWaitCycles() description for more information.
 506:.\Generated_Source\PSoC4/CyLib.c **** *
 507:.\Generated_Source\PSoC4/CyLib.c **** * \param divider Power of 2 prescaler selection
 508:.\Generated_Source\PSoC4/CyLib.c **** *  CY_SYS_CLK_SYSCLK_DIV1        SYSCLK = HFCLK / 1
 509:.\Generated_Source\PSoC4/CyLib.c **** *  CY_SYS_CLK_SYSCLK_DIV2        SYSCLK = HFCLK / 2
 510:.\Generated_Source\PSoC4/CyLib.c **** *  CY_SYS_CLK_SYSCLK_DIV4        SYSCLK = HFCLK / 4
 511:.\Generated_Source\PSoC4/CyLib.c **** *  CY_SYS_CLK_SYSCLK_DIV8        SYSCLK = HFCLK / 8
 512:.\Generated_Source\PSoC4/CyLib.c **** *  CY_SYS_CLK_SYSCLK_DIV16       SYSCLK = HFCLK / 16  (N/A for 4000 Family)
 513:.\Generated_Source\PSoC4/CyLib.c **** *  CY_SYS_CLK_SYSCLK_DIV32       SYSCLK = HFCLK / 32  (N/A for 4000 Family)
 514:.\Generated_Source\PSoC4/CyLib.c **** *  CY_SYS_CLK_SYSCLK_DIV64       SYSCLK = HFCLK / 64  (N/A for 4000 Family)
 515:.\Generated_Source\PSoC4/CyLib.c **** *  CY_SYS_CLK_SYSCLK_DIV128      SYSCLK = HFCLK / 128 (N/A for 4000 Family)
 516:.\Generated_Source\PSoC4/CyLib.c **** *
 517:.\Generated_Source\PSoC4/CyLib.c **** *******************************************************************************/
 518:.\Generated_Source\PSoC4/CyLib.c **** void CySysClkWriteSysclkDiv(uint32 divider)
 519:.\Generated_Source\PSoC4/CyLib.c **** {
 292              		.loc 1 519 0
 293              		.cfi_startproc
 294 0000 90B5     		push	{r4, r7, lr}
 295              		.cfi_def_cfa_offset 12
 296              		.cfi_offset 4, -12
 297              		.cfi_offset 7, -8
 298              		.cfi_offset 14, -4
 299 0002 85B0     		sub	sp, sp, #20
 300              		.cfi_def_cfa_offset 32
 301 0004 00AF     		add	r7, sp, #0
 302              		.cfi_def_cfa_register 7
 303 0006 7860     		str	r0, [r7, #4]
 520:.\Generated_Source\PSoC4/CyLib.c ****     uint8  interruptState;
 521:.\Generated_Source\PSoC4/CyLib.c **** 
 522:.\Generated_Source\PSoC4/CyLib.c ****     interruptState = CyEnterCriticalSection();
 304              		.loc 1 522 0
 305 0008 0F23     		mov	r3, #15
 306 000a FC18     		add	r4, r7, r3
 307 000c FFF7FEFF 		bl	CyEnterCriticalSection
 308 0010 031C     		mov	r3, r0
 309 0012 2370     		strb	r3, [r4]
 523:.\Generated_Source\PSoC4/CyLib.c **** 
 524:.\Generated_Source\PSoC4/CyLib.c ****     CY_SYS_CLK_SELECT_REG = ((uint32)(((uint32)divider & CY_SYS_CLK_SELECT_SYSCLK_DIV_MASK) <<
 310              		.loc 1 524 0
 311 0014 094B     		ldr	r3, .L15
 312 0016 7A68     		ldr	r2, [r7, #4]
 313 0018 0721     		mov	r1, #7
 314 001a 0A40     		and	r2, r1
 315 001c D104     		lsl	r1, r2, #19
 525:.\Generated_Source\PSoC4/CyLib.c ****                                     CY_SYS_CLK_SELECT_SYSCLK_DIV_SHIFT)) |
 526:.\Generated_Source\PSoC4/CyLib.c ****                             (CY_SYS_CLK_SELECT_REG & ((uint32)(~(uint32)(CY_SYS_CLK_SELECT_SYSCLK_D
 316              		.loc 1 526 0
 317 001e 074A     		ldr	r2, .L15
 318 0020 1268     		ldr	r2, [r2]
 319 0022 0748     		ldr	r0, .L15+4
 320 0024 0240     		and	r2, r0
 525:.\Generated_Source\PSoC4/CyLib.c ****                                     CY_SYS_CLK_SELECT_SYSCLK_DIV_SHIFT)) |
 321              		.loc 1 525 0
 322 0026 0A43     		orr	r2, r1
 524:.\Generated_Source\PSoC4/CyLib.c ****                                     CY_SYS_CLK_SELECT_SYSCLK_DIV_SHIFT)) |
 323              		.loc 1 524 0
ARM GAS  C:\Users\Matthew\AppData\Local\Temp\ccRMqeZg.s 			page 16


 324 0028 1A60     		str	r2, [r3]
 527:.\Generated_Source\PSoC4/CyLib.c ****                                     CY_SYS_CLK_SELECT_SYSCLK_DIV_SHIFT))));
 528:.\Generated_Source\PSoC4/CyLib.c **** 
 529:.\Generated_Source\PSoC4/CyLib.c ****     CyExitCriticalSection(interruptState);
 325              		.loc 1 529 0
 326 002a 0F23     		mov	r3, #15
 327 002c FB18     		add	r3, r7, r3
 328 002e 1B78     		ldrb	r3, [r3]
 329 0030 181C     		mov	r0, r3
 330 0032 FFF7FEFF 		bl	CyExitCriticalSection
 530:.\Generated_Source\PSoC4/CyLib.c **** }
 331              		.loc 1 530 0
 332 0036 BD46     		mov	sp, r7
 333 0038 05B0     		add	sp, sp, #20
 334              		@ sp needed
 335 003a 90BD     		pop	{r4, r7, pc}
 336              	.L16:
 337              		.align	2
 338              	.L15:
 339 003c 00010B40 		.word	1074462976
 340 0040 FFFFC7FF 		.word	-3670017
 341              		.cfi_endproc
 342              	.LFE6:
 343              		.size	CySysClkWriteSysclkDiv, .-CySysClkWriteSysclkDiv
 344              		.section	.text.CySysClkWriteImoFreq,"ax",%progbits
 345              		.align	2
 346              		.global	CySysClkWriteImoFreq
 347              		.code	16
 348              		.thumb_func
 349              		.type	CySysClkWriteImoFreq, %function
 350              	CySysClkWriteImoFreq:
 351              	.LFB7:
 531:.\Generated_Source\PSoC4/CyLib.c **** 
 532:.\Generated_Source\PSoC4/CyLib.c **** 
 533:.\Generated_Source\PSoC4/CyLib.c **** /*******************************************************************************
 534:.\Generated_Source\PSoC4/CyLib.c **** * Function Name: CySysClkWriteImoFreq
 535:.\Generated_Source\PSoC4/CyLib.c **** ****************************************************************************//**
 536:.\Generated_Source\PSoC4/CyLib.c **** *
 537:.\Generated_Source\PSoC4/CyLib.c **** * Sets the frequency of the IMO.
 538:.\Generated_Source\PSoC4/CyLib.c **** *
 539:.\Generated_Source\PSoC4/CyLib.c **** * PSoC 4000: The SYSCLK has the speed of 16 MHz, so HFCLK and SYSCLK dividers
 540:.\Generated_Source\PSoC4/CyLib.c **** * should be selected in a way, not to exceed 16 MHz for SYSCLK.
 541:.\Generated_Source\PSoC4/CyLib.c **** *
 542:.\Generated_Source\PSoC4/CyLib.c **** * PSoC 4100 \ PSoC 4100 BLE \ PSoC 4100M: The SYSCLK has the speed of 24 MHz,
 543:.\Generated_Source\PSoC4/CyLib.c **** * so HFCLK and SYSCLK dividers should be selected in a way, not to exceed 24 MHz
 544:.\Generated_Source\PSoC4/CyLib.c **** * for SYSCLK.
 545:.\Generated_Source\PSoC4/CyLib.c **** *
 546:.\Generated_Source\PSoC4/CyLib.c **** * For PSoC 4200M and PSoC 4200L device families, if WCO lock feature is enabled
 547:.\Generated_Source\PSoC4/CyLib.c **** * then this API will disable the lock, write the new IMO frequency and then
 548:.\Generated_Source\PSoC4/CyLib.c **** * re-enable the lock.
 549:.\Generated_Source\PSoC4/CyLib.c **** *
 550:.\Generated_Source\PSoC4/CyLib.c **** * For PSoC 4200L device families, this function enables the USB lock when 24 or
 551:.\Generated_Source\PSoC4/CyLib.c **** * 48 MHz passed as a parameter if the USB lock option is enabled in Design Wide
 552:.\Generated_Source\PSoC4/CyLib.c **** * Resources tab or CySysClkImoEnableUsbLock() was called before. Note the USB
 553:.\Generated_Source\PSoC4/CyLib.c **** * lock is disabled during IMO frequency change.
 554:.\Generated_Source\PSoC4/CyLib.c **** *
 555:.\Generated_Source\PSoC4/CyLib.c **** * The CPU is halted if new frequency is invalid and project is compiled
ARM GAS  C:\Users\Matthew\AppData\Local\Temp\ccRMqeZg.s 			page 17


 556:.\Generated_Source\PSoC4/CyLib.c **** * in debug mode.
 557:.\Generated_Source\PSoC4/CyLib.c **** *
 558:.\Generated_Source\PSoC4/CyLib.c **** * If the SYSCLK clock frequency increases during the device operation, call
 559:.\Generated_Source\PSoC4/CyLib.c **** * \ref CySysFlashSetWaitCycles() with the appropriate parameter to adjust the
 560:.\Generated_Source\PSoC4/CyLib.c **** * number of clock cycles the cache will wait before sampling data comes back
 561:.\Generated_Source\PSoC4/CyLib.c **** * from Flash. If the SYSCLK clock frequency decreases, you can call
 562:.\Generated_Source\PSoC4/CyLib.c **** * \ref CySysFlashSetWaitCycles() to improve the CPU performance. See
 563:.\Generated_Source\PSoC4/CyLib.c **** * \ref CySysFlashSetWaitCycles() description for more information.
 564:.\Generated_Source\PSoC4/CyLib.c **** *
 565:.\Generated_Source\PSoC4/CyLib.c **** * PSoC 4000: The System Clock (SYSCLK) has maximum speed of 16 MHz, so HFCLK
 566:.\Generated_Source\PSoC4/CyLib.c **** * and SYSCLK dividers should be selected in a way, to not to exceed 16 MHz for
 567:.\Generated_Source\PSoC4/CyLib.c **** * the System clock.
 568:.\Generated_Source\PSoC4/CyLib.c **** *
 569:.\Generated_Source\PSoC4/CyLib.c **** * \param freq All PSoC 4 families excluding the following: Valid range [3-48]
 570:.\Generated_Source\PSoC4/CyLib.c **** * with step size equals 1. PSoC 4000: Valid values are 24, 32, and 48.
 571:.\Generated_Source\PSoC4/CyLib.c **** * PSoC 4000S / PSoC 4100S / PSoC 4400: Valid range [24-48] with step size equals
 572:.\Generated_Source\PSoC4/CyLib.c **** * 4.
 573:.\Generated_Source\PSoC4/CyLib.c **** *
 574:.\Generated_Source\PSoC4/CyLib.c **** *******************************************************************************/
 575:.\Generated_Source\PSoC4/CyLib.c **** #if(CY_IP_SRSSV2)
 576:.\Generated_Source\PSoC4/CyLib.c ****     void CySysClkWriteImoFreq(uint32 freq)
 577:.\Generated_Source\PSoC4/CyLib.c ****     {
 352              		.loc 1 577 0
 353              		.cfi_startproc
 354 0000 90B5     		push	{r4, r7, lr}
 355              		.cfi_def_cfa_offset 12
 356              		.cfi_offset 4, -12
 357              		.cfi_offset 7, -8
 358              		.cfi_offset 14, -4
 359 0002 85B0     		sub	sp, sp, #20
 360              		.cfi_def_cfa_offset 32
 361 0004 00AF     		add	r7, sp, #0
 362              		.cfi_def_cfa_register 7
 363 0006 7860     		str	r0, [r7, #4]
 578:.\Generated_Source\PSoC4/CyLib.c ****         #if (CY_IP_FMLT)
 579:.\Generated_Source\PSoC4/CyLib.c ****             volatile uint32   parameters[2u];
 580:.\Generated_Source\PSoC4/CyLib.c ****             volatile uint32   regValues[4u];
 581:.\Generated_Source\PSoC4/CyLib.c ****         #else
 582:.\Generated_Source\PSoC4/CyLib.c ****             uint8  bgTrim4;
 583:.\Generated_Source\PSoC4/CyLib.c ****             uint8  bgTrim5;
 584:.\Generated_Source\PSoC4/CyLib.c ****             uint8  newImoTrim2Value;
 585:.\Generated_Source\PSoC4/CyLib.c ****             uint8  currentImoTrim2Value;
 586:.\Generated_Source\PSoC4/CyLib.c ****             uint8  imoTrim1Value;
 587:.\Generated_Source\PSoC4/CyLib.c ****         #endif /* (CY_IP_FM) */
 588:.\Generated_Source\PSoC4/CyLib.c **** 
 589:.\Generated_Source\PSoC4/CyLib.c ****         #if (CY_IP_IMO_TRIMMABLE_BY_WCO)
 590:.\Generated_Source\PSoC4/CyLib.c ****             uint32 wcoLock = 0u;
 591:.\Generated_Source\PSoC4/CyLib.c ****         #endif  /* (CY_IP_IMO_TRIMMABLE_BY_WCO) */
 592:.\Generated_Source\PSoC4/CyLib.c **** 
 593:.\Generated_Source\PSoC4/CyLib.c ****         #if (CY_IP_IMO_TRIMMABLE_BY_USB)
 594:.\Generated_Source\PSoC4/CyLib.c ****             uint32 usbLock = 0u;
 595:.\Generated_Source\PSoC4/CyLib.c ****         #endif  /* (CY_IP_IMO_TRIMMABLE_BY_USB) */
 596:.\Generated_Source\PSoC4/CyLib.c **** 
 597:.\Generated_Source\PSoC4/CyLib.c ****         uint8  interruptState;
 598:.\Generated_Source\PSoC4/CyLib.c **** 
 599:.\Generated_Source\PSoC4/CyLib.c **** 
 600:.\Generated_Source\PSoC4/CyLib.c ****         interruptState = CyEnterCriticalSection();
ARM GAS  C:\Users\Matthew\AppData\Local\Temp\ccRMqeZg.s 			page 18


 364              		.loc 1 600 0
 365 0008 0C23     		mov	r3, #12
 366 000a FC18     		add	r4, r7, r3
 367 000c FFF7FEFF 		bl	CyEnterCriticalSection
 368 0010 031C     		mov	r3, r0
 369 0012 2370     		strb	r3, [r4]
 601:.\Generated_Source\PSoC4/CyLib.c **** 
 602:.\Generated_Source\PSoC4/CyLib.c ****         #if (CY_IP_IMO_TRIMMABLE_BY_WCO)
 603:.\Generated_Source\PSoC4/CyLib.c ****             if(0u != CySysClkImoGetWcoLock())
 604:.\Generated_Source\PSoC4/CyLib.c ****             {
 605:.\Generated_Source\PSoC4/CyLib.c ****                 wcoLock = 1u;
 606:.\Generated_Source\PSoC4/CyLib.c ****                 CySysClkImoDisableWcoLock();
 607:.\Generated_Source\PSoC4/CyLib.c ****             }
 608:.\Generated_Source\PSoC4/CyLib.c ****         #endif  /* (CY_IP_IMO_TRIMMABLE_BY_WCO) */
 609:.\Generated_Source\PSoC4/CyLib.c **** 
 610:.\Generated_Source\PSoC4/CyLib.c **** 
 611:.\Generated_Source\PSoC4/CyLib.c ****         #if (CY_IP_IMO_TRIMMABLE_BY_USB)
 612:.\Generated_Source\PSoC4/CyLib.c **** 
 613:.\Generated_Source\PSoC4/CyLib.c ****             #if (CYDEV_IMO_TRIMMED_BY_USB == 0u)
 614:.\Generated_Source\PSoC4/CyLib.c ****                 if(0u != CySysClkImoGetUsbLock())
 615:.\Generated_Source\PSoC4/CyLib.c ****                 {
 616:.\Generated_Source\PSoC4/CyLib.c ****             #endif  /* (CYDEV_IMO_TRIMMED_BY_USB == 0u) */
 617:.\Generated_Source\PSoC4/CyLib.c **** 
 618:.\Generated_Source\PSoC4/CyLib.c ****                 if ((24u == freq) || (48u == freq))
 619:.\Generated_Source\PSoC4/CyLib.c ****                 {
 620:.\Generated_Source\PSoC4/CyLib.c ****                     usbLock = 1u;
 621:.\Generated_Source\PSoC4/CyLib.c ****                     CySysClkImoDisableUsbLock();
 622:.\Generated_Source\PSoC4/CyLib.c ****                 }
 623:.\Generated_Source\PSoC4/CyLib.c **** 
 624:.\Generated_Source\PSoC4/CyLib.c ****             #if (CYDEV_IMO_TRIMMED_BY_USB == 0u)
 625:.\Generated_Source\PSoC4/CyLib.c ****                 }
 626:.\Generated_Source\PSoC4/CyLib.c ****             #endif  /* (CYDEV_IMO_TRIMMED_BY_USB == 0u) */
 627:.\Generated_Source\PSoC4/CyLib.c **** 
 628:.\Generated_Source\PSoC4/CyLib.c ****         #endif  /* (CYDEV_IMO_TRIMMED_BY_USB == 0u) */
 629:.\Generated_Source\PSoC4/CyLib.c **** 
 630:.\Generated_Source\PSoC4/CyLib.c **** 
 631:.\Generated_Source\PSoC4/CyLib.c ****         #if (CY_IP_FMLT)
 632:.\Generated_Source\PSoC4/CyLib.c **** 
 633:.\Generated_Source\PSoC4/CyLib.c ****             /* FM-Lite Clock Restore */
 634:.\Generated_Source\PSoC4/CyLib.c ****             regValues[0u] = CY_SYS_CLK_IMO_CONFIG_REG;
 635:.\Generated_Source\PSoC4/CyLib.c ****             regValues[1u] = CY_SYS_CLK_SELECT_REG;
 636:.\Generated_Source\PSoC4/CyLib.c ****             regValues[2u] = cyImoFreqMhz2Reg[freq - CY_SYS_CLK_IMO_FREQ_TABLE_OFFSET];
 637:.\Generated_Source\PSoC4/CyLib.c ****             regValues[3u] = CY_FLASH_CTL_REG;
 638:.\Generated_Source\PSoC4/CyLib.c **** 
 639:.\Generated_Source\PSoC4/CyLib.c ****             parameters[0u] =
 640:.\Generated_Source\PSoC4/CyLib.c ****                 (uint32) ((CY_FLASH_KEY_TWO(CY_FLASH_API_OPCODE_CLK_RESTORE) <<  CY_FLASH_PARAM_KEY
 641:.\Generated_Source\PSoC4/CyLib.c ****                             CY_FLASH_KEY_ONE);
 642:.\Generated_Source\PSoC4/CyLib.c ****             parameters[1u] = (uint32) &regValues[0u];
 643:.\Generated_Source\PSoC4/CyLib.c **** 
 644:.\Generated_Source\PSoC4/CyLib.c ****             CY_FLASH_CPUSS_SYSARG_REG = (uint32) &parameters[0u];
 645:.\Generated_Source\PSoC4/CyLib.c ****             CY_FLASH_CPUSS_SYSREQ_REG = CY_FLASH_CPUSS_REQ_START | CY_FLASH_API_OPCODE_CLK_RESTORE;
 646:.\Generated_Source\PSoC4/CyLib.c ****             (void) CY_FLASH_CPUSS_SYSARG_REG;
 647:.\Generated_Source\PSoC4/CyLib.c **** 
 648:.\Generated_Source\PSoC4/CyLib.c ****         #else /* (CY_IP_FM) */
 649:.\Generated_Source\PSoC4/CyLib.c **** 
 650:.\Generated_Source\PSoC4/CyLib.c ****         if ((freq >= CY_SYS_CLK_IMO_MIN_FREQ_MHZ) && (freq <= CY_SYS_CLK_IMO_MAX_FREQ_MHZ))
 370              		.loc 1 650 0
ARM GAS  C:\Users\Matthew\AppData\Local\Temp\ccRMqeZg.s 			page 19


 371 0014 7B68     		ldr	r3, [r7, #4]
 372 0016 022B     		cmp	r3, #2
 373 0018 00D8     		bhi	.LCB233
 374 001a B4E0     		b	.L18	@long jump
 375              	.LCB233:
 376              		.loc 1 650 0 is_stmt 0 discriminator 1
 377 001c 7B68     		ldr	r3, [r7, #4]
 378 001e 302B     		cmp	r3, #48
 379 0020 00D9     		bls	.LCB236
 380 0022 B0E0     		b	.L18	@long jump
 381              	.LCB236:
 651:.\Generated_Source\PSoC4/CyLib.c ****         {
 652:.\Generated_Source\PSoC4/CyLib.c ****             if(freq <= CY_SFLASH_IMO_MAXF0_REG)
 382              		.loc 1 652 0 is_stmt 1
 383 0024 5E4B     		ldr	r3, .L29
 384 0026 1B78     		ldrb	r3, [r3]
 385 0028 DBB2     		uxtb	r3, r3
 386 002a 1A1E     		sub	r2, r3, #0
 387 002c 7B68     		ldr	r3, [r7, #4]
 388 002e 9A42     		cmp	r2, r3
 389 0030 0AD3     		bcc	.L19
 653:.\Generated_Source\PSoC4/CyLib.c ****             {
 654:.\Generated_Source\PSoC4/CyLib.c ****                 bgTrim4 = CY_SFLASH_IMO_ABS0_REG;
 390              		.loc 1 654 0
 391 0032 5C4A     		ldr	r2, .L29+4
 392 0034 0F23     		mov	r3, #15
 393 0036 FB18     		add	r3, r7, r3
 394 0038 1278     		ldrb	r2, [r2]
 395 003a 1A70     		strb	r2, [r3]
 655:.\Generated_Source\PSoC4/CyLib.c ****                 bgTrim5 = CY_SFLASH_IMO_TMPCO0_REG;
 396              		.loc 1 655 0
 397 003c 5A4A     		ldr	r2, .L29+8
 398 003e 0E23     		mov	r3, #14
 399 0040 FB18     		add	r3, r7, r3
 400 0042 1278     		ldrb	r2, [r2]
 401 0044 1A70     		strb	r2, [r3]
 402 0046 3FE0     		b	.L20
 403              	.L19:
 656:.\Generated_Source\PSoC4/CyLib.c ****             }
 657:.\Generated_Source\PSoC4/CyLib.c ****             else if(freq <= CY_SFLASH_IMO_MAXF1_REG)
 404              		.loc 1 657 0
 405 0048 584B     		ldr	r3, .L29+12
 406 004a 1B78     		ldrb	r3, [r3]
 407 004c DBB2     		uxtb	r3, r3
 408 004e 1A1E     		sub	r2, r3, #0
 409 0050 7B68     		ldr	r3, [r7, #4]
 410 0052 9A42     		cmp	r2, r3
 411 0054 0AD3     		bcc	.L21
 658:.\Generated_Source\PSoC4/CyLib.c ****             {
 659:.\Generated_Source\PSoC4/CyLib.c ****                 bgTrim4 = CY_SFLASH_IMO_ABS1_REG;
 412              		.loc 1 659 0
 413 0056 564A     		ldr	r2, .L29+16
 414 0058 0F23     		mov	r3, #15
 415 005a FB18     		add	r3, r7, r3
 416 005c 1278     		ldrb	r2, [r2]
 417 005e 1A70     		strb	r2, [r3]
 660:.\Generated_Source\PSoC4/CyLib.c ****                 bgTrim5 = CY_SFLASH_IMO_TMPCO1_REG;
ARM GAS  C:\Users\Matthew\AppData\Local\Temp\ccRMqeZg.s 			page 20


 418              		.loc 1 660 0
 419 0060 544A     		ldr	r2, .L29+20
 420 0062 0E23     		mov	r3, #14
 421 0064 FB18     		add	r3, r7, r3
 422 0066 1278     		ldrb	r2, [r2]
 423 0068 1A70     		strb	r2, [r3]
 424 006a 2DE0     		b	.L20
 425              	.L21:
 661:.\Generated_Source\PSoC4/CyLib.c ****             }
 662:.\Generated_Source\PSoC4/CyLib.c ****             else if(freq <= CY_SFLASH_IMO_MAXF2_REG)
 426              		.loc 1 662 0
 427 006c 524B     		ldr	r3, .L29+24
 428 006e 1B78     		ldrb	r3, [r3]
 429 0070 DBB2     		uxtb	r3, r3
 430 0072 1A1E     		sub	r2, r3, #0
 431 0074 7B68     		ldr	r3, [r7, #4]
 432 0076 9A42     		cmp	r2, r3
 433 0078 0AD3     		bcc	.L22
 663:.\Generated_Source\PSoC4/CyLib.c ****             {
 664:.\Generated_Source\PSoC4/CyLib.c ****                 bgTrim4 = CY_SFLASH_IMO_ABS2_REG;
 434              		.loc 1 664 0
 435 007a 504A     		ldr	r2, .L29+28
 436 007c 0F23     		mov	r3, #15
 437 007e FB18     		add	r3, r7, r3
 438 0080 1278     		ldrb	r2, [r2]
 439 0082 1A70     		strb	r2, [r3]
 665:.\Generated_Source\PSoC4/CyLib.c ****                 bgTrim5 = CY_SFLASH_IMO_TMPCO2_REG;
 440              		.loc 1 665 0
 441 0084 4E4A     		ldr	r2, .L29+32
 442 0086 0E23     		mov	r3, #14
 443 0088 FB18     		add	r3, r7, r3
 444 008a 1278     		ldrb	r2, [r2]
 445 008c 1A70     		strb	r2, [r3]
 446 008e 1BE0     		b	.L20
 447              	.L22:
 666:.\Generated_Source\PSoC4/CyLib.c ****             }
 667:.\Generated_Source\PSoC4/CyLib.c ****             else if(freq <= CY_SFLASH_IMO_MAXF3_REG)
 448              		.loc 1 667 0
 449 0090 4C4B     		ldr	r3, .L29+36
 450 0092 1B78     		ldrb	r3, [r3]
 451 0094 DBB2     		uxtb	r3, r3
 452 0096 1A1E     		sub	r2, r3, #0
 453 0098 7B68     		ldr	r3, [r7, #4]
 454 009a 9A42     		cmp	r2, r3
 455 009c 0AD3     		bcc	.L23
 668:.\Generated_Source\PSoC4/CyLib.c ****             {
 669:.\Generated_Source\PSoC4/CyLib.c ****                 bgTrim4 = CY_SFLASH_IMO_ABS3_REG;
 456              		.loc 1 669 0
 457 009e 4A4A     		ldr	r2, .L29+40
 458 00a0 0F23     		mov	r3, #15
 459 00a2 FB18     		add	r3, r7, r3
 460 00a4 1278     		ldrb	r2, [r2]
 461 00a6 1A70     		strb	r2, [r3]
 670:.\Generated_Source\PSoC4/CyLib.c ****                 bgTrim5 = CY_SFLASH_IMO_TMPCO3_REG;
 462              		.loc 1 670 0
 463 00a8 484A     		ldr	r2, .L29+44
 464 00aa 0E23     		mov	r3, #14
ARM GAS  C:\Users\Matthew\AppData\Local\Temp\ccRMqeZg.s 			page 21


 465 00ac FB18     		add	r3, r7, r3
 466 00ae 1278     		ldrb	r2, [r2]
 467 00b0 1A70     		strb	r2, [r3]
 468 00b2 09E0     		b	.L20
 469              	.L23:
 671:.\Generated_Source\PSoC4/CyLib.c ****             }
 672:.\Generated_Source\PSoC4/CyLib.c ****             else
 673:.\Generated_Source\PSoC4/CyLib.c ****             {
 674:.\Generated_Source\PSoC4/CyLib.c ****                 bgTrim4 = CY_SFLASH_IMO_ABS4_REG;
 470              		.loc 1 674 0
 471 00b4 464A     		ldr	r2, .L29+48
 472 00b6 0F23     		mov	r3, #15
 473 00b8 FB18     		add	r3, r7, r3
 474 00ba 1278     		ldrb	r2, [r2]
 475 00bc 1A70     		strb	r2, [r3]
 675:.\Generated_Source\PSoC4/CyLib.c ****                 bgTrim5 = CY_SFLASH_IMO_TMPCO4_REG;
 476              		.loc 1 675 0
 477 00be 454A     		ldr	r2, .L29+52
 478 00c0 0E23     		mov	r3, #14
 479 00c2 FB18     		add	r3, r7, r3
 480 00c4 1278     		ldrb	r2, [r2]
 481 00c6 1A70     		strb	r2, [r3]
 482              	.L20:
 676:.\Generated_Source\PSoC4/CyLib.c ****             }
 677:.\Generated_Source\PSoC4/CyLib.c **** 
 678:.\Generated_Source\PSoC4/CyLib.c ****             /* Get IMO_TRIM2 value for the new frequency */
 679:.\Generated_Source\PSoC4/CyLib.c ****             newImoTrim2Value = cyImoFreqMhz2Reg[freq - CY_SYS_CLK_IMO_FREQ_TABLE_OFFSET];
 483              		.loc 1 679 0
 484 00c8 7B68     		ldr	r3, [r7, #4]
 485 00ca DA1E     		sub	r2, r3, #3
 486 00cc 0B23     		mov	r3, #11
 487 00ce FB18     		add	r3, r7, r3
 488 00d0 4149     		ldr	r1, .L29+56
 489 00d2 8A5C     		ldrb	r2, [r1, r2]
 490 00d4 1A70     		strb	r2, [r3]
 680:.\Generated_Source\PSoC4/CyLib.c **** 
 681:.\Generated_Source\PSoC4/CyLib.c **** 
 682:.\Generated_Source\PSoC4/CyLib.c ****             /****************************************************************************
 683:.\Generated_Source\PSoC4/CyLib.c ****             * The IMO can have a different trim per frequency. To avoid possible corner
 684:.\Generated_Source\PSoC4/CyLib.c ****             * cases where a trim change can exceed the maximum frequency, the trim must
 685:.\Generated_Source\PSoC4/CyLib.c ****             * be applied at a frequency that is low enough.
 686:.\Generated_Source\PSoC4/CyLib.c ****             *
 687:.\Generated_Source\PSoC4/CyLib.c ****             * Comparing IMO_TRIM2 values for the current and new frequencies, since
 688:.\Generated_Source\PSoC4/CyLib.c ****             * IMO_TRIM2 value as a function of IMO frequency is a strictly increasing
 689:.\Generated_Source\PSoC4/CyLib.c ****             * function and is time-invariant.
 690:.\Generated_Source\PSoC4/CyLib.c ****             ***************************************************************************/
 691:.\Generated_Source\PSoC4/CyLib.c ****             if ((newImoTrim2Value >= CY_SYS_CLK_IMO_BOUNDARY_FREQ_TRIM2) && (freq >= CY_SYS_CLK_IMO
 491              		.loc 1 691 0
 492 00d6 0B23     		mov	r3, #11
 493 00d8 FB18     		add	r3, r7, r3
 494 00da 1B78     		ldrb	r3, [r3]
 495 00dc 2F2B     		cmp	r3, #47
 496 00de 0DD9     		bls	.L24
 497              		.loc 1 691 0 is_stmt 0 discriminator 1
 498 00e0 7B68     		ldr	r3, [r7, #4]
 499 00e2 2A2B     		cmp	r3, #42
 500 00e4 0AD9     		bls	.L24
ARM GAS  C:\Users\Matthew\AppData\Local\Temp\ccRMqeZg.s 			page 22


 692:.\Generated_Source\PSoC4/CyLib.c ****             {
 693:.\Generated_Source\PSoC4/CyLib.c ****                 /* Set boundary IMO frequency: safe for IMO above 48 MHZ trimming */
 694:.\Generated_Source\PSoC4/CyLib.c ****                 CY_SYS_CLK_IMO_TRIM2_REG = (uint32) cyImoFreqMhz2Reg[CY_SYS_CLK_IMO_TEMP_FREQ_MHZ -
 501              		.loc 1 694 0 is_stmt 1
 502 00e6 3D4B     		ldr	r3, .L29+60
 503 00e8 1922     		mov	r2, #25
 504 00ea 1A60     		str	r2, [r3]
 695:.\Generated_Source\PSoC4/CyLib.c ****                                                                      CY_SYS_CLK_IMO_FREQ_TABLE_OFFS
 696:.\Generated_Source\PSoC4/CyLib.c **** 
 697:.\Generated_Source\PSoC4/CyLib.c ****                 CyDelayCycles(CY_SYS_CLK_IMO_FREQ_TIMEOUT_CYCLES);
 505              		.loc 1 697 0
 506 00ec 0520     		mov	r0, #5
 507 00ee FFF7FEFF 		bl	CyDelayCycles
 698:.\Generated_Source\PSoC4/CyLib.c **** 
 699:.\Generated_Source\PSoC4/CyLib.c ****                 currentImoTrim2Value = CY_SYS_CLK_IMO_TEMP_FREQ_TRIM2;
 508              		.loc 1 699 0
 509 00f2 0D23     		mov	r3, #13
 510 00f4 FB18     		add	r3, r7, r3
 511 00f6 1922     		mov	r2, #25
 512 00f8 1A70     		strb	r2, [r3]
 513 00fa 07E0     		b	.L25
 514              	.L24:
 700:.\Generated_Source\PSoC4/CyLib.c ****             }
 701:.\Generated_Source\PSoC4/CyLib.c ****             else
 702:.\Generated_Source\PSoC4/CyLib.c ****             {
 703:.\Generated_Source\PSoC4/CyLib.c ****                 currentImoTrim2Value = (uint8) (CY_SYS_CLK_IMO_TRIM2_REG & CY_SYS_CLK_IMO_FREQ_BITS
 515              		.loc 1 703 0
 516 00fc 374B     		ldr	r3, .L29+60
 517 00fe 1B68     		ldr	r3, [r3]
 518 0100 DAB2     		uxtb	r2, r3
 519 0102 0D23     		mov	r3, #13
 520 0104 FB18     		add	r3, r7, r3
 521 0106 3F21     		mov	r1, #63
 522 0108 0A40     		and	r2, r1
 523 010a 1A70     		strb	r2, [r3]
 524              	.L25:
 704:.\Generated_Source\PSoC4/CyLib.c ****             }
 705:.\Generated_Source\PSoC4/CyLib.c **** 
 706:.\Generated_Source\PSoC4/CyLib.c **** 
 707:.\Generated_Source\PSoC4/CyLib.c ****             /***************************************************************************
 708:.\Generated_Source\PSoC4/CyLib.c ****             * A trim change needs to be allowed to settle (within 5us) before the Freq
 709:.\Generated_Source\PSoC4/CyLib.c ****             * can be changed to a new frequency.
 710:.\Generated_Source\PSoC4/CyLib.c ****             *
 711:.\Generated_Source\PSoC4/CyLib.c ****             * Comparing IMO_TRIM2 values for the current and new frequencies, since
 712:.\Generated_Source\PSoC4/CyLib.c ****             * IMO_TRIM2 value as a function of IMO frequency is a strictly increasing
 713:.\Generated_Source\PSoC4/CyLib.c ****             * function and is time-invariant.
 714:.\Generated_Source\PSoC4/CyLib.c ****             ***************************************************************************/
 715:.\Generated_Source\PSoC4/CyLib.c ****             if (newImoTrim2Value < currentImoTrim2Value)
 525              		.loc 1 715 0
 526 010c 0B23     		mov	r3, #11
 527 010e FA18     		add	r2, r7, r3
 528 0110 0D23     		mov	r3, #13
 529 0112 FB18     		add	r3, r7, r3
 530 0114 1278     		ldrb	r2, [r2]
 531 0116 1B78     		ldrb	r3, [r3]
 532 0118 9A42     		cmp	r2, r3
 533 011a 08D2     		bcs	.L26
ARM GAS  C:\Users\Matthew\AppData\Local\Temp\ccRMqeZg.s 			page 23


 716:.\Generated_Source\PSoC4/CyLib.c ****             {
 717:.\Generated_Source\PSoC4/CyLib.c ****                 /* Set new IMO frequency */
 718:.\Generated_Source\PSoC4/CyLib.c ****                 CY_SYS_CLK_IMO_TRIM2_REG = cyImoFreqMhz2Reg[freq - CY_SYS_CLK_IMO_FREQ_TABLE_OFFSET
 534              		.loc 1 718 0
 535 011c 2F4B     		ldr	r3, .L29+60
 536 011e 7A68     		ldr	r2, [r7, #4]
 537 0120 033A     		sub	r2, r2, #3
 538 0122 2D49     		ldr	r1, .L29+56
 539 0124 8A5C     		ldrb	r2, [r1, r2]
 540 0126 1A60     		str	r2, [r3]
 719:.\Generated_Source\PSoC4/CyLib.c ****                 CyDelayCycles(CY_SYS_CLK_IMO_FREQ_TIMEOUT_CYCLES);
 541              		.loc 1 719 0
 542 0128 0520     		mov	r0, #5
 543 012a FFF7FEFF 		bl	CyDelayCycles
 544              	.L26:
 720:.\Generated_Source\PSoC4/CyLib.c ****             }
 721:.\Generated_Source\PSoC4/CyLib.c **** 
 722:.\Generated_Source\PSoC4/CyLib.c ****             /* Set trims for the new IMO frequency */
 723:.\Generated_Source\PSoC4/CyLib.c **** 
 724:.\Generated_Source\PSoC4/CyLib.c ****             #if (CY_IP_IMO_TRIMMABLE_BY_USB)
 725:.\Generated_Source\PSoC4/CyLib.c ****                 if ((1u == usbLock) && (48u == freq))
 726:.\Generated_Source\PSoC4/CyLib.c ****                 {
 727:.\Generated_Source\PSoC4/CyLib.c ****                     imoTrim1Value = CY_SFLASH_IMO_TRIM_USBMODE_48_REG;
 728:.\Generated_Source\PSoC4/CyLib.c ****                 }
 729:.\Generated_Source\PSoC4/CyLib.c ****                 else if ((1u == usbLock) && (24u == freq))
 730:.\Generated_Source\PSoC4/CyLib.c ****                 {
 731:.\Generated_Source\PSoC4/CyLib.c ****                     imoTrim1Value = CY_SFLASH_IMO_TRIM_USBMODE_24_REG;
 732:.\Generated_Source\PSoC4/CyLib.c ****                 }
 733:.\Generated_Source\PSoC4/CyLib.c ****                 else
 734:.\Generated_Source\PSoC4/CyLib.c ****                 {
 735:.\Generated_Source\PSoC4/CyLib.c ****                     imoTrim1Value = (uint8) CY_SFLASH_IMO_TRIM_REG(freq - CY_SYS_CLK_IMO_FREQ_TABLE
 736:.\Generated_Source\PSoC4/CyLib.c ****                 }
 737:.\Generated_Source\PSoC4/CyLib.c ****             #else
 738:.\Generated_Source\PSoC4/CyLib.c ****                 imoTrim1Value = (uint8) CY_SFLASH_IMO_TRIM_REG(freq - CY_SYS_CLK_IMO_FREQ_TABLE_OFF
 545              		.loc 1 738 0
 546 012e 7B68     		ldr	r3, [r7, #4]
 547 0130 284A     		ldr	r2, .L29+52
 548 0132 9A18     		add	r2, r3, r2
 549 0134 0A23     		mov	r3, #10
 550 0136 FB18     		add	r3, r7, r3
 551 0138 1278     		ldrb	r2, [r2]
 552 013a 1A70     		strb	r2, [r3]
 739:.\Generated_Source\PSoC4/CyLib.c ****             #endif  /* (CY_IP_IMO_TRIMMABLE_BY_USB) */
 740:.\Generated_Source\PSoC4/CyLib.c **** 
 741:.\Generated_Source\PSoC4/CyLib.c **** 
 742:.\Generated_Source\PSoC4/CyLib.c ****             CY_SYS_CLK_IMO_TRIM1_REG = (uint32) imoTrim1Value;
 553              		.loc 1 742 0
 554 013c 284B     		ldr	r3, .L29+64
 555 013e 0A22     		mov	r2, #10
 556 0140 BA18     		add	r2, r7, r2
 557 0142 1278     		ldrb	r2, [r2]
 558 0144 1A60     		str	r2, [r3]
 743:.\Generated_Source\PSoC4/CyLib.c ****             CY_PWR_BG_TRIM4_REG  = bgTrim4;
 559              		.loc 1 743 0
 560 0146 274B     		ldr	r3, .L29+68
 561 0148 0F22     		mov	r2, #15
 562 014a BA18     		add	r2, r7, r2
ARM GAS  C:\Users\Matthew\AppData\Local\Temp\ccRMqeZg.s 			page 24


 563 014c 1278     		ldrb	r2, [r2]
 564 014e 1A60     		str	r2, [r3]
 744:.\Generated_Source\PSoC4/CyLib.c ****             CY_PWR_BG_TRIM5_REG  = bgTrim5;
 565              		.loc 1 744 0
 566 0150 254B     		ldr	r3, .L29+72
 567 0152 0E22     		mov	r2, #14
 568 0154 BA18     		add	r2, r7, r2
 569 0156 1278     		ldrb	r2, [r2]
 570 0158 1A60     		str	r2, [r3]
 745:.\Generated_Source\PSoC4/CyLib.c ****             CyDelayUs(CY_SYS_CLK_IMO_TRIM_TIMEOUT_US);
 571              		.loc 1 745 0
 572 015a 0520     		mov	r0, #5
 573 015c FFF7FEFF 		bl	CyDelayUs
 746:.\Generated_Source\PSoC4/CyLib.c **** 
 747:.\Generated_Source\PSoC4/CyLib.c ****             if (newImoTrim2Value > currentImoTrim2Value)
 574              		.loc 1 747 0
 575 0160 0B23     		mov	r3, #11
 576 0162 FA18     		add	r2, r7, r3
 577 0164 0D23     		mov	r3, #13
 578 0166 FB18     		add	r3, r7, r3
 579 0168 1278     		ldrb	r2, [r2]
 580 016a 1B78     		ldrb	r3, [r3]
 581 016c 9A42     		cmp	r2, r3
 582 016e 09D9     		bls	.L27
 748:.\Generated_Source\PSoC4/CyLib.c ****             {
 749:.\Generated_Source\PSoC4/CyLib.c ****                 /* Set new IMO frequency */
 750:.\Generated_Source\PSoC4/CyLib.c ****                 CY_SYS_CLK_IMO_TRIM2_REG = cyImoFreqMhz2Reg[freq - CY_SYS_CLK_IMO_FREQ_TABLE_OFFSET
 583              		.loc 1 750 0
 584 0170 1A4B     		ldr	r3, .L29+60
 585 0172 7A68     		ldr	r2, [r7, #4]
 586 0174 033A     		sub	r2, r2, #3
 587 0176 1849     		ldr	r1, .L29+56
 588 0178 8A5C     		ldrb	r2, [r1, r2]
 589 017a 1A60     		str	r2, [r3]
 751:.\Generated_Source\PSoC4/CyLib.c ****                 CyDelayCycles(CY_SYS_CLK_IMO_FREQ_TIMEOUT_CYCLES);
 590              		.loc 1 751 0
 591 017c 0520     		mov	r0, #5
 592 017e FFF7FEFF 		bl	CyDelayCycles
 747:.\Generated_Source\PSoC4/CyLib.c ****             {
 593              		.loc 1 747 0
 594 0182 03E0     		b	.L28
 595              	.L27:
 596 0184 02E0     		b	.L28
 597              	.L18:
 752:.\Generated_Source\PSoC4/CyLib.c ****             }
 753:.\Generated_Source\PSoC4/CyLib.c ****         }
 754:.\Generated_Source\PSoC4/CyLib.c ****         else
 755:.\Generated_Source\PSoC4/CyLib.c ****         {
 756:.\Generated_Source\PSoC4/CyLib.c ****             /* Halt CPU in debug mode if new frequency is invalid */
 757:.\Generated_Source\PSoC4/CyLib.c ****             CYASSERT(0u != 0u);
 598              		.loc 1 757 0 discriminator 1
 599 0186 0020     		mov	r0, #0
 600 0188 FFF7FEFF 		bl	CyHalt
 601              	.L28:
 758:.\Generated_Source\PSoC4/CyLib.c ****         }
 759:.\Generated_Source\PSoC4/CyLib.c **** 
 760:.\Generated_Source\PSoC4/CyLib.c ****         #endif /* (CY_IP_FMLT) */
ARM GAS  C:\Users\Matthew\AppData\Local\Temp\ccRMqeZg.s 			page 25


 761:.\Generated_Source\PSoC4/CyLib.c **** 
 762:.\Generated_Source\PSoC4/CyLib.c ****         #if (CY_IP_IMO_TRIMMABLE_BY_WCO)
 763:.\Generated_Source\PSoC4/CyLib.c ****             if (1u == wcoLock)
 764:.\Generated_Source\PSoC4/CyLib.c ****             {
 765:.\Generated_Source\PSoC4/CyLib.c ****                 CySysClkImoEnableWcoLock();
 766:.\Generated_Source\PSoC4/CyLib.c ****             }
 767:.\Generated_Source\PSoC4/CyLib.c ****         #endif  /* (CY_IP_IMO_TRIMMABLE_BY_WCO) */
 768:.\Generated_Source\PSoC4/CyLib.c **** 
 769:.\Generated_Source\PSoC4/CyLib.c ****         #if (CY_IP_IMO_TRIMMABLE_BY_USB)
 770:.\Generated_Source\PSoC4/CyLib.c ****             if (1u == usbLock)
 771:.\Generated_Source\PSoC4/CyLib.c ****             {
 772:.\Generated_Source\PSoC4/CyLib.c ****                 CySysClkImoEnableUsbLock();
 773:.\Generated_Source\PSoC4/CyLib.c ****             }
 774:.\Generated_Source\PSoC4/CyLib.c ****         #endif  /* (CY_IP_IMO_TRIMMABLE_BY_USB) */
 775:.\Generated_Source\PSoC4/CyLib.c **** 
 776:.\Generated_Source\PSoC4/CyLib.c ****         CyExitCriticalSection(interruptState);
 602              		.loc 1 776 0
 603 018c 0C23     		mov	r3, #12
 604 018e FB18     		add	r3, r7, r3
 605 0190 1B78     		ldrb	r3, [r3]
 606 0192 181C     		mov	r0, r3
 607 0194 FFF7FEFF 		bl	CyExitCriticalSection
 777:.\Generated_Source\PSoC4/CyLib.c ****     }
 608              		.loc 1 777 0
 609 0198 BD46     		mov	sp, r7
 610 019a 05B0     		add	sp, sp, #20
 611              		@ sp needed
 612 019c 90BD     		pop	{r4, r7, pc}
 613              	.L30:
 614 019e C046     		.align	2
 615              	.L29:
 616 01a0 40F3FF0F 		.word	268432192
 617 01a4 41F3FF0F 		.word	268432193
 618 01a8 42F3FF0F 		.word	268432194
 619 01ac 43F3FF0F 		.word	268432195
 620 01b0 44F3FF0F 		.word	268432196
 621 01b4 45F3FF0F 		.word	268432197
 622 01b8 46F3FF0F 		.word	268432198
 623 01bc 47F3FF0F 		.word	268432199
 624 01c0 48F3FF0F 		.word	268432200
 625 01c4 49F3FF0F 		.word	268432201
 626 01c8 4AF3FF0F 		.word	268432202
 627 01cc 4BF3FF0F 		.word	268432203
 628 01d0 4CF3FF0F 		.word	268432204
 629 01d4 4DF3FF0F 		.word	268432205
 630 01d8 00000000 		.word	cyImoFreqMhz2Reg
 631 01dc 2CFF0B40 		.word	1074528044
 632 01e0 28FF0B40 		.word	1074528040
 633 01e4 1CFF0B40 		.word	1074528028
 634 01e8 20FF0B40 		.word	1074528032
 635              		.cfi_endproc
 636              	.LFE7:
 637              		.size	CySysClkWriteImoFreq, .-CySysClkWriteImoFreq
 638              		.section	.text.CySysClkEcoStart,"ax",%progbits
 639              		.align	2
 640              		.global	CySysClkEcoStart
 641              		.code	16
ARM GAS  C:\Users\Matthew\AppData\Local\Temp\ccRMqeZg.s 			page 26


 642              		.thumb_func
 643              		.type	CySysClkEcoStart, %function
 644              	CySysClkEcoStart:
 645              	.LFB8:
 778:.\Generated_Source\PSoC4/CyLib.c **** 
 779:.\Generated_Source\PSoC4/CyLib.c **** #else
 780:.\Generated_Source\PSoC4/CyLib.c **** 
 781:.\Generated_Source\PSoC4/CyLib.c ****     void CySysClkWriteImoFreq(uint32 freq)
 782:.\Generated_Source\PSoC4/CyLib.c ****     {
 783:.\Generated_Source\PSoC4/CyLib.c ****         uint8  interruptState;
 784:.\Generated_Source\PSoC4/CyLib.c ****         uint8  imoTrim1Value;
 785:.\Generated_Source\PSoC4/CyLib.c **** 
 786:.\Generated_Source\PSoC4/CyLib.c ****         #if (CY_IP_IMO_TRIMMABLE_BY_WCO)
 787:.\Generated_Source\PSoC4/CyLib.c ****             uint32 wcoLock = 0u;
 788:.\Generated_Source\PSoC4/CyLib.c ****         #endif  /* (CY_IP_IMO_TRIMMABLE_BY_WCO) */        
 789:.\Generated_Source\PSoC4/CyLib.c ****         
 790:.\Generated_Source\PSoC4/CyLib.c ****         #if (CY_IP_IMO_TRIMMABLE_BY_USB)
 791:.\Generated_Source\PSoC4/CyLib.c ****             uint32 usbLock = 0u;
 792:.\Generated_Source\PSoC4/CyLib.c ****         #endif  /* (CY_IP_IMO_TRIMMABLE_BY_USB) */
 793:.\Generated_Source\PSoC4/CyLib.c **** 
 794:.\Generated_Source\PSoC4/CyLib.c ****         #if (CY_PSOC4_4000)
 795:.\Generated_Source\PSoC4/CyLib.c ****             if ((freq == 24u) || (freq == 32u) || (freq == 48u))
 796:.\Generated_Source\PSoC4/CyLib.c ****         #else
 797:.\Generated_Source\PSoC4/CyLib.c ****             if ((freq == 24u) || (freq == 28u) || (freq == 32u) ||
 798:.\Generated_Source\PSoC4/CyLib.c ****                 (freq == 36u) || (freq == 40u) || (freq == 44u) ||
 799:.\Generated_Source\PSoC4/CyLib.c ****                 (freq == 48u))
 800:.\Generated_Source\PSoC4/CyLib.c ****         #endif /* (CY_PSOC4_4000) */
 801:.\Generated_Source\PSoC4/CyLib.c ****         {
 802:.\Generated_Source\PSoC4/CyLib.c ****             interruptState = CyEnterCriticalSection();
 803:.\Generated_Source\PSoC4/CyLib.c **** 
 804:.\Generated_Source\PSoC4/CyLib.c ****             #if (CY_IP_IMO_TRIMMABLE_BY_WCO)
 805:.\Generated_Source\PSoC4/CyLib.c ****                 if(0u != CySysClkImoGetWcoLock())
 806:.\Generated_Source\PSoC4/CyLib.c ****                 {
 807:.\Generated_Source\PSoC4/CyLib.c ****                     wcoLock = 1u;
 808:.\Generated_Source\PSoC4/CyLib.c ****                     CySysClkImoDisableWcoLock();
 809:.\Generated_Source\PSoC4/CyLib.c ****                 }
 810:.\Generated_Source\PSoC4/CyLib.c ****             #endif  /* (CY_IP_IMO_TRIMMABLE_BY_WCO) */
 811:.\Generated_Source\PSoC4/CyLib.c **** 
 812:.\Generated_Source\PSoC4/CyLib.c ****             #if (CY_IP_IMO_TRIMMABLE_BY_USB)
 813:.\Generated_Source\PSoC4/CyLib.c **** 
 814:.\Generated_Source\PSoC4/CyLib.c ****                 #if (CYDEV_IMO_TRIMMED_BY_USB == 0u)
 815:.\Generated_Source\PSoC4/CyLib.c ****                     if(0u != CySysClkImoGetUsbLock())
 816:.\Generated_Source\PSoC4/CyLib.c ****                     {
 817:.\Generated_Source\PSoC4/CyLib.c ****                 #endif  /* (CYDEV_IMO_TRIMMED_BY_USB == 0u) */
 818:.\Generated_Source\PSoC4/CyLib.c **** 
 819:.\Generated_Source\PSoC4/CyLib.c ****                     if (48u == freq)
 820:.\Generated_Source\PSoC4/CyLib.c ****                     {
 821:.\Generated_Source\PSoC4/CyLib.c ****                         usbLock = 1u;
 822:.\Generated_Source\PSoC4/CyLib.c ****                         CySysClkImoDisableUsbLock();
 823:.\Generated_Source\PSoC4/CyLib.c ****                     }
 824:.\Generated_Source\PSoC4/CyLib.c **** 
 825:.\Generated_Source\PSoC4/CyLib.c ****                 #if (CYDEV_IMO_TRIMMED_BY_USB == 0u)
 826:.\Generated_Source\PSoC4/CyLib.c ****                     }
 827:.\Generated_Source\PSoC4/CyLib.c ****                 #endif  /* (CYDEV_IMO_TRIMMED_BY_USB == 0u) */
 828:.\Generated_Source\PSoC4/CyLib.c **** 
 829:.\Generated_Source\PSoC4/CyLib.c ****             #endif  /* (CYDEV_IMO_TRIMMED_BY_USB == 0u) */
 830:.\Generated_Source\PSoC4/CyLib.c **** 
ARM GAS  C:\Users\Matthew\AppData\Local\Temp\ccRMqeZg.s 			page 27


 831:.\Generated_Source\PSoC4/CyLib.c **** 
 832:.\Generated_Source\PSoC4/CyLib.c ****             /* Set IMO to 24 MHz - CLK_IMO_SELECT.FREQ = 0 */
 833:.\Generated_Source\PSoC4/CyLib.c ****             CY_SYS_CLK_IMO_SELECT_REG &= ((uint32) ~CY_SYS_CLK_IMO_SELECT_FREQ_MASK);
 834:.\Generated_Source\PSoC4/CyLib.c **** 
 835:.\Generated_Source\PSoC4/CyLib.c **** 
 836:.\Generated_Source\PSoC4/CyLib.c ****             /* Apply coarse trim */
 837:.\Generated_Source\PSoC4/CyLib.c ****             #if (CY_IP_IMO_TRIMMABLE_BY_USB)
 838:.\Generated_Source\PSoC4/CyLib.c ****                 if ((1u == usbLock) && (48u == freq))
 839:.\Generated_Source\PSoC4/CyLib.c ****                 {
 840:.\Generated_Source\PSoC4/CyLib.c ****                     imoTrim1Value = CY_SFLASH_IMO_TRIM_USBMODE_48_REG;
 841:.\Generated_Source\PSoC4/CyLib.c ****                 }
 842:.\Generated_Source\PSoC4/CyLib.c ****                 else if ((1u == usbLock) && (24u == freq))
 843:.\Generated_Source\PSoC4/CyLib.c ****                 {
 844:.\Generated_Source\PSoC4/CyLib.c ****                     imoTrim1Value = CY_SFLASH_IMO_TRIM_USBMODE_24_REG;
 845:.\Generated_Source\PSoC4/CyLib.c ****                 }
 846:.\Generated_Source\PSoC4/CyLib.c ****                 else
 847:.\Generated_Source\PSoC4/CyLib.c ****                 {
 848:.\Generated_Source\PSoC4/CyLib.c ****                     imoTrim1Value = (uint8) CY_SFLASH_IMO_TRIM_REG(freq - CY_SYS_CLK_IMO_MIN_FREQ_M
 849:.\Generated_Source\PSoC4/CyLib.c ****                 }
 850:.\Generated_Source\PSoC4/CyLib.c ****             #else
 851:.\Generated_Source\PSoC4/CyLib.c ****                 imoTrim1Value = (uint8) CY_SFLASH_IMO_TRIM_REG(freq - CY_SYS_CLK_IMO_MIN_FREQ_MHZ);
 852:.\Generated_Source\PSoC4/CyLib.c ****             #endif  /* (CY_IP_IMO_TRIMMABLE_BY_USB) */
 853:.\Generated_Source\PSoC4/CyLib.c ****             CY_SYS_CLK_IMO_TRIM1_REG = (uint32) imoTrim1Value;
 854:.\Generated_Source\PSoC4/CyLib.c **** 
 855:.\Generated_Source\PSoC4/CyLib.c ****             /* Zero out fine trim */
 856:.\Generated_Source\PSoC4/CyLib.c ****             CY_SYS_CLK_IMO_TRIM2_REG = CY_SYS_CLK_IMO_TRIM2_REG & ((uint32) ~CY_SYS_CLK_IMO_TRIM2_F
 857:.\Generated_Source\PSoC4/CyLib.c **** 
 858:.\Generated_Source\PSoC4/CyLib.c ****             /* Apply TC trim */
 859:.\Generated_Source\PSoC4/CyLib.c ****             CY_SYS_CLK_IMO_TRIM3_REG = (CY_SYS_CLK_IMO_TRIM3_REG & ((uint32) ~CY_SYS_CLK_IMO_TRIM3_
 860:.\Generated_Source\PSoC4/CyLib.c ****                 (CY_SFLASH_IMO_TCTRIM_REG(freq - CY_SYS_CLK_IMO_MIN_FREQ_MHZ) & CY_SYS_CLK_IMO_TRIM
 861:.\Generated_Source\PSoC4/CyLib.c **** 
 862:.\Generated_Source\PSoC4/CyLib.c ****             CyDelayCycles(CY_SYS_CLK_IMO_TRIM_DELAY_CYCLES);
 863:.\Generated_Source\PSoC4/CyLib.c **** 
 864:.\Generated_Source\PSoC4/CyLib.c ****             if (freq > CY_SYS_CLK_IMO_MIN_FREQ_MHZ)
 865:.\Generated_Source\PSoC4/CyLib.c ****             {
 866:.\Generated_Source\PSoC4/CyLib.c ****                 /* Select nearby intermediate frequency */
 867:.\Generated_Source\PSoC4/CyLib.c ****                 CY_SYS_CLK_IMO_SELECT_REG = (CY_SYS_CLK_IMO_SELECT_REG & ((uint32) ~CY_SYS_CLK_IMO_
 868:.\Generated_Source\PSoC4/CyLib.c ****                     (((freq - 4u - CY_SYS_CLK_IMO_MIN_FREQ_MHZ) >> 2u) & CY_SYS_CLK_IMO_SELECT_FREQ
 869:.\Generated_Source\PSoC4/CyLib.c **** 
 870:.\Generated_Source\PSoC4/CyLib.c ****                 CyDelayCycles(CY_SYS_CLK_IMO_TRIM_DELAY_CYCLES);
 871:.\Generated_Source\PSoC4/CyLib.c **** 
 872:.\Generated_Source\PSoC4/CyLib.c ****                 /* Make small step to final frequency */
 873:.\Generated_Source\PSoC4/CyLib.c ****                 /* Select nearby intermediate frequency */
 874:.\Generated_Source\PSoC4/CyLib.c ****                 CY_SYS_CLK_IMO_SELECT_REG = (CY_SYS_CLK_IMO_SELECT_REG & ((uint32) ~CY_SYS_CLK_IMO_
 875:.\Generated_Source\PSoC4/CyLib.c ****                     (((freq - CY_SYS_CLK_IMO_MIN_FREQ_MHZ) >> 2u) & CY_SYS_CLK_IMO_SELECT_FREQ_MASK
 876:.\Generated_Source\PSoC4/CyLib.c ****             }
 877:.\Generated_Source\PSoC4/CyLib.c **** 
 878:.\Generated_Source\PSoC4/CyLib.c ****             #if (CY_IP_IMO_TRIMMABLE_BY_WCO)
 879:.\Generated_Source\PSoC4/CyLib.c ****                 if (1u == wcoLock)
 880:.\Generated_Source\PSoC4/CyLib.c ****                 {
 881:.\Generated_Source\PSoC4/CyLib.c ****                     CySysClkImoEnableWcoLock();
 882:.\Generated_Source\PSoC4/CyLib.c ****                 }
 883:.\Generated_Source\PSoC4/CyLib.c ****             #endif  /* (CY_IP_IMO_TRIMMABLE_BY_WCO) */
 884:.\Generated_Source\PSoC4/CyLib.c ****         
 885:.\Generated_Source\PSoC4/CyLib.c ****         
 886:.\Generated_Source\PSoC4/CyLib.c ****             #if (CY_IP_IMO_TRIMMABLE_BY_USB)
 887:.\Generated_Source\PSoC4/CyLib.c ****                 if (1u == usbLock)
ARM GAS  C:\Users\Matthew\AppData\Local\Temp\ccRMqeZg.s 			page 28


 888:.\Generated_Source\PSoC4/CyLib.c ****                 {
 889:.\Generated_Source\PSoC4/CyLib.c ****                     CySysClkImoEnableUsbLock();
 890:.\Generated_Source\PSoC4/CyLib.c ****                 }
 891:.\Generated_Source\PSoC4/CyLib.c ****             #endif  /* (CY_IP_IMO_TRIMMABLE_BY_USB) */
 892:.\Generated_Source\PSoC4/CyLib.c **** 
 893:.\Generated_Source\PSoC4/CyLib.c ****             CyExitCriticalSection(interruptState);
 894:.\Generated_Source\PSoC4/CyLib.c ****         }
 895:.\Generated_Source\PSoC4/CyLib.c ****         else
 896:.\Generated_Source\PSoC4/CyLib.c ****         {
 897:.\Generated_Source\PSoC4/CyLib.c ****             /* Halt CPU in debug mode if new frequency is invalid */
 898:.\Generated_Source\PSoC4/CyLib.c ****             CYASSERT(0u != 0u);
 899:.\Generated_Source\PSoC4/CyLib.c ****         }
 900:.\Generated_Source\PSoC4/CyLib.c ****     }
 901:.\Generated_Source\PSoC4/CyLib.c **** 
 902:.\Generated_Source\PSoC4/CyLib.c **** #endif /* (CY_IP_SRSSV2) */
 903:.\Generated_Source\PSoC4/CyLib.c **** 
 904:.\Generated_Source\PSoC4/CyLib.c **** 
 905:.\Generated_Source\PSoC4/CyLib.c **** #if(CY_IP_SRSSLT)
 906:.\Generated_Source\PSoC4/CyLib.c ****     /*******************************************************************************
 907:.\Generated_Source\PSoC4/CyLib.c ****     * Function Name: CySysClkWriteHfclkDiv
 908:.\Generated_Source\PSoC4/CyLib.c ****     ****************************************************************************//**
 909:.\Generated_Source\PSoC4/CyLib.c ****     *
 910:.\Generated_Source\PSoC4/CyLib.c ****     * Selects the pre-scaler divider value for HFCLK from IMO.
 911:.\Generated_Source\PSoC4/CyLib.c ****     *
 912:.\Generated_Source\PSoC4/CyLib.c ****     * The HFCLK predivider allows the device to divide the HFCLK selection mux
 913:.\Generated_Source\PSoC4/CyLib.c ****     * input before use as HFCLK. The predivider is capable of dividing the HFCLK by
 914:.\Generated_Source\PSoC4/CyLib.c ****     * powers of 2 between 1 and 8.
 915:.\Generated_Source\PSoC4/CyLib.c ****     *
 916:.\Generated_Source\PSoC4/CyLib.c ****     * PSoC 4000: The SYSCLK has the speed of 16 MHz, so HFCLK and SYSCLK dividers
 917:.\Generated_Source\PSoC4/CyLib.c ****     * should be selected in a way, not to exceed 16 MHz for SYSCLK.
 918:.\Generated_Source\PSoC4/CyLib.c ****     *
 919:.\Generated_Source\PSoC4/CyLib.c ****     * If the SYSCLK clock frequency increases during the device operation, call
 920:.\Generated_Source\PSoC4/CyLib.c ****     * \ref CySysFlashSetWaitCycles() with the appropriate parameter to adjust the
 921:.\Generated_Source\PSoC4/CyLib.c ****     * number of clock cycles the cache will wait before sampling data comes back
 922:.\Generated_Source\PSoC4/CyLib.c ****     * from Flash. If the SYSCLK clock frequency decreases, you can call
 923:.\Generated_Source\PSoC4/CyLib.c ****     * \ref CySysFlashSetWaitCycles() to improve the CPU performance. See
 924:.\Generated_Source\PSoC4/CyLib.c ****     * \ref CySysFlashSetWaitCycles() description for more information.
 925:.\Generated_Source\PSoC4/CyLib.c ****     *
 926:.\Generated_Source\PSoC4/CyLib.c ****     * \param \ref CY_SYS_CLK_HFCLK_DIV_NODIV    Transparent mode (w/o dividing)
 927:.\Generated_Source\PSoC4/CyLib.c ****     * \param \ref CY_SYS_CLK_HFCLK_DIV_2        Divide selected clock source by 2
 928:.\Generated_Source\PSoC4/CyLib.c ****     * \param \ref CY_SYS_CLK_HFCLK_DIV_4        Divide selected clock source by 4
 929:.\Generated_Source\PSoC4/CyLib.c ****     * \param \ref CY_SYS_CLK_HFCLK_DIV_8        Divide selected clock source by 8
 930:.\Generated_Source\PSoC4/CyLib.c ****     *
 931:.\Generated_Source\PSoC4/CyLib.c ****     *******************************************************************************/
 932:.\Generated_Source\PSoC4/CyLib.c ****     void CySysClkWriteHfclkDiv(uint32 divider)
 933:.\Generated_Source\PSoC4/CyLib.c ****     {
 934:.\Generated_Source\PSoC4/CyLib.c ****         uint8  interruptState;
 935:.\Generated_Source\PSoC4/CyLib.c **** 
 936:.\Generated_Source\PSoC4/CyLib.c ****         interruptState = CyEnterCriticalSection();
 937:.\Generated_Source\PSoC4/CyLib.c **** 
 938:.\Generated_Source\PSoC4/CyLib.c ****         CY_SYS_CLK_SELECT_REG = ((CY_SYS_CLK_SELECT_REG & ((uint32) (~(CY_SYS_CLK_SELECT_HFCLK_DIV_
 939:.\Generated_Source\PSoC4/CyLib.c ****                                         CY_SYS_CLK_SELECT_HFCLK_DIV_SHIFT)))) |
 940:.\Generated_Source\PSoC4/CyLib.c ****                     ((uint32)((divider & CY_SYS_CLK_SELECT_HFCLK_DIV_MASK) << CY_SYS_CLK_SELECT_HFC
 941:.\Generated_Source\PSoC4/CyLib.c **** 
 942:.\Generated_Source\PSoC4/CyLib.c ****         CyExitCriticalSection(interruptState);
 943:.\Generated_Source\PSoC4/CyLib.c ****     }
 944:.\Generated_Source\PSoC4/CyLib.c **** #endif /* (CY_IP_SRSSLT) */
ARM GAS  C:\Users\Matthew\AppData\Local\Temp\ccRMqeZg.s 			page 29


 945:.\Generated_Source\PSoC4/CyLib.c **** 
 946:.\Generated_Source\PSoC4/CyLib.c **** 
 947:.\Generated_Source\PSoC4/CyLib.c **** #if (CY_IP_ECO)
 948:.\Generated_Source\PSoC4/CyLib.c **** 
 949:.\Generated_Source\PSoC4/CyLib.c ****     /*******************************************************************************
 950:.\Generated_Source\PSoC4/CyLib.c ****     * Function Name: CySysClkEcoStart
 951:.\Generated_Source\PSoC4/CyLib.c ****     ****************************************************************************//**
 952:.\Generated_Source\PSoC4/CyLib.c ****     *
 953:.\Generated_Source\PSoC4/CyLib.c ****     * Starts the External Crystal Oscillator (ECO). Refer to the device datasheet
 954:.\Generated_Source\PSoC4/CyLib.c ****     * for the ECO startup time.
 955:.\Generated_Source\PSoC4/CyLib.c ****     *
 956:.\Generated_Source\PSoC4/CyLib.c ****     * The timeout interval is measured based on the system frequency defined by
 957:.\Generated_Source\PSoC4/CyLib.c ****     * PSoC Creator at build time. If System clock frequency is changed in
 958:.\Generated_Source\PSoC4/CyLib.c ****     * runtime, the \ref CyDelayFreq() with the appropriate parameter should be
 959:.\Generated_Source\PSoC4/CyLib.c ****     * called.
 960:.\Generated_Source\PSoC4/CyLib.c ****     *
 961:.\Generated_Source\PSoC4/CyLib.c ****     * PSoC 4100 BLE / PSoC 4200 BLE: The WCO must be enabled prior to enabling ECO.
 962:.\Generated_Source\PSoC4/CyLib.c ****     *
 963:.\Generated_Source\PSoC4/CyLib.c ****     * \param timeoutUs Timeout in microseconds.
 964:.\Generated_Source\PSoC4/CyLib.c ****     *
 965:.\Generated_Source\PSoC4/CyLib.c ****     * If zero is specified, the function does not wait for timeout and returns
 966:.\Generated_Source\PSoC4/CyLib.c ****     * CYRET_SUCCESS. If non-zero is specified, the function waits for the timeout.
 967:.\Generated_Source\PSoC4/CyLib.c ****     *
 968:.\Generated_Source\PSoC4/CyLib.c ****     * \return \ref CYRET_SUCCESS Completed successfully. The ECO is oscillating and
 969:.\Generated_Source\PSoC4/CyLib.c ****     * amplitude reached 60% and it does not mean 24 MHz crystal is within 50 ppm.
 970:.\Generated_Source\PSoC4/CyLib.c ****     *
 971:.\Generated_Source\PSoC4/CyLib.c ****     * \return \ref CYRET_TIMEOUT Timeout occurred. If the crystal is not oscillating
 972:.\Generated_Source\PSoC4/CyLib.c ****     * or amplitude didn't reach 60% after specified amount of time, CYRET_TIMEOUT
 973:.\Generated_Source\PSoC4/CyLib.c ****     * is returned.
 974:.\Generated_Source\PSoC4/CyLib.c ****     *
 975:.\Generated_Source\PSoC4/CyLib.c ****     * \return \ref CYRET_BAD_PARAM One or more invalid parameters.
 976:.\Generated_Source\PSoC4/CyLib.c ****     *
 977:.\Generated_Source\PSoC4/CyLib.c ****     *******************************************************************************/
 978:.\Generated_Source\PSoC4/CyLib.c ****     cystatus CySysClkEcoStart(uint32 timeoutUs)
 979:.\Generated_Source\PSoC4/CyLib.c ****     {
 646              		.loc 1 979 0
 647              		.cfi_startproc
 648 0000 80B5     		push	{r7, lr}
 649              		.cfi_def_cfa_offset 8
 650              		.cfi_offset 7, -8
 651              		.cfi_offset 14, -4
 652 0002 84B0     		sub	sp, sp, #16
 653              		.cfi_def_cfa_offset 24
 654 0004 00AF     		add	r7, sp, #0
 655              		.cfi_def_cfa_register 7
 656 0006 7860     		str	r0, [r7, #4]
 980:.\Generated_Source\PSoC4/CyLib.c ****         cystatus returnStatus = CYRET_SUCCESS;
 657              		.loc 1 980 0
 658 0008 0023     		mov	r3, #0
 659 000a FB60     		str	r3, [r7, #12]
 981:.\Generated_Source\PSoC4/CyLib.c **** 
 982:.\Generated_Source\PSoC4/CyLib.c ****         #if (CY_IP_WCO_BLESS)
 983:.\Generated_Source\PSoC4/CyLib.c ****             /* Enable the RF oscillator band gap */
 984:.\Generated_Source\PSoC4/CyLib.c ****             CY_SYS_XTAL_BLESS_RF_CONFIG_REG |= CY_SYS_XTAL_BLESS_RF_CONFIG_RF_ENABLE;
 660              		.loc 1 984 0
 661 000c 154B     		ldr	r3, .L37
 662 000e 154A     		ldr	r2, .L37
ARM GAS  C:\Users\Matthew\AppData\Local\Temp\ccRMqeZg.s 			page 30


 663 0010 1268     		ldr	r2, [r2]
 664 0012 0121     		mov	r1, #1
 665 0014 0A43     		orr	r2, r1
 666 0016 1A60     		str	r2, [r3]
 985:.\Generated_Source\PSoC4/CyLib.c **** 
 986:.\Generated_Source\PSoC4/CyLib.c ****             /* Update trimming register */
 987:.\Generated_Source\PSoC4/CyLib.c ****             CY_SYS_XTAL_BLERD_BB_XO_REG = CY_SYS_XTAL_BLERD_BB_XO_TRIM;
 667              		.loc 1 987 0
 668 0018 134B     		ldr	r3, .L37+4
 669 001a 144A     		ldr	r2, .L37+8
 670 001c 1A60     		str	r2, [r3]
 988:.\Generated_Source\PSoC4/CyLib.c **** 
 989:.\Generated_Source\PSoC4/CyLib.c ****             /* Enable the Crystal */
 990:.\Generated_Source\PSoC4/CyLib.c ****             CY_SYS_XTAL_BLERD_DBUS_REG |= CY_SYS_XTAL_BLERD_DBUS_XTAL_ENABLE;
 671              		.loc 1 990 0
 672 001e 144B     		ldr	r3, .L37+12
 673 0020 134A     		ldr	r2, .L37+12
 674 0022 1268     		ldr	r2, [r2]
 675 0024 8021     		mov	r1, #128
 676 0026 0902     		lsl	r1, r1, #8
 677 0028 0A43     		orr	r2, r1
 678 002a 1A60     		str	r2, [r3]
 991:.\Generated_Source\PSoC4/CyLib.c ****         #else /* CY_IP_WCO_SRSSV2 */
 992:.\Generated_Source\PSoC4/CyLib.c ****             CY_SYS_CLK_ECO_CONFIG_REG |= CY_SYS_CLK_ECO_CONFIG_ENABLE;
 993:.\Generated_Source\PSoC4/CyLib.c ****             CyDelayUs(CY_SYS_CLK_ECO_CONFIG_CLK_EN_TIMEOUT_US);
 994:.\Generated_Source\PSoC4/CyLib.c ****             CY_SYS_CLK_ECO_CONFIG_REG |= CY_SYS_CLK_ECO_CONFIG_CLK_EN;
 995:.\Generated_Source\PSoC4/CyLib.c ****         #endif /* (CY_IP_WCO_BLESS) */
 996:.\Generated_Source\PSoC4/CyLib.c **** 
 997:.\Generated_Source\PSoC4/CyLib.c ****         if(timeoutUs > 0u)
 679              		.loc 1 997 0
 680 002c 7B68     		ldr	r3, [r7, #4]
 681 002e 002B     		cmp	r3, #0
 682 0030 12D0     		beq	.L32
 998:.\Generated_Source\PSoC4/CyLib.c ****         {
 999:.\Generated_Source\PSoC4/CyLib.c ****             returnStatus = CYRET_TIMEOUT;
 683              		.loc 1 999 0
 684 0032 1023     		mov	r3, #16
 685 0034 FB60     		str	r3, [r7, #12]
1000:.\Generated_Source\PSoC4/CyLib.c **** 
1001:.\Generated_Source\PSoC4/CyLib.c ****             for( ; timeoutUs > 0u; timeoutUs--)
 686              		.loc 1 1001 0
 687 0036 0CE0     		b	.L33
 688              	.L35:
1002:.\Generated_Source\PSoC4/CyLib.c ****             {
1003:.\Generated_Source\PSoC4/CyLib.c ****                 CyDelayUs(1u);
 689              		.loc 1 1003 0
 690 0038 0120     		mov	r0, #1
 691 003a FFF7FEFF 		bl	CyDelayUs
1004:.\Generated_Source\PSoC4/CyLib.c **** 
1005:.\Generated_Source\PSoC4/CyLib.c ****                 if(0u != CySysClkEcoReadStatus())
 692              		.loc 1 1005 0
 693 003e FFF7FEFF 		bl	CySysClkEcoReadStatus
 694 0042 031E     		sub	r3, r0, #0
 695 0044 02D0     		beq	.L34
1006:.\Generated_Source\PSoC4/CyLib.c ****                 {
1007:.\Generated_Source\PSoC4/CyLib.c ****                     returnStatus = CYRET_SUCCESS;
 696              		.loc 1 1007 0
ARM GAS  C:\Users\Matthew\AppData\Local\Temp\ccRMqeZg.s 			page 31


 697 0046 0023     		mov	r3, #0
 698 0048 FB60     		str	r3, [r7, #12]
1008:.\Generated_Source\PSoC4/CyLib.c ****                     break;
 699              		.loc 1 1008 0
 700 004a 05E0     		b	.L32
 701              	.L34:
1001:.\Generated_Source\PSoC4/CyLib.c ****             {
 702              		.loc 1 1001 0
 703 004c 7B68     		ldr	r3, [r7, #4]
 704 004e 013B     		sub	r3, r3, #1
 705 0050 7B60     		str	r3, [r7, #4]
 706              	.L33:
1001:.\Generated_Source\PSoC4/CyLib.c ****             {
 707              		.loc 1 1001 0 is_stmt 0 discriminator 1
 708 0052 7B68     		ldr	r3, [r7, #4]
 709 0054 002B     		cmp	r3, #0
 710 0056 EFD1     		bne	.L35
 711              	.L32:
1009:.\Generated_Source\PSoC4/CyLib.c ****                 }
1010:.\Generated_Source\PSoC4/CyLib.c ****             }
1011:.\Generated_Source\PSoC4/CyLib.c **** 
1012:.\Generated_Source\PSoC4/CyLib.c ****         }
1013:.\Generated_Source\PSoC4/CyLib.c **** 
1014:.\Generated_Source\PSoC4/CyLib.c ****         return(returnStatus);
 712              		.loc 1 1014 0 is_stmt 1
 713 0058 FB68     		ldr	r3, [r7, #12]
1015:.\Generated_Source\PSoC4/CyLib.c ****     }
 714              		.loc 1 1015 0
 715 005a 181C     		mov	r0, r3
 716 005c BD46     		mov	sp, r7
 717 005e 04B0     		add	sp, sp, #16
 718              		@ sp needed
 719 0060 80BD     		pop	{r7, pc}
 720              	.L38:
 721 0062 C046     		.align	2
 722              	.L37:
 723 0064 60F02E40 		.word	1076818016
 724 0068 78002E40 		.word	1076756600
 725 006c 02200000 		.word	8194
 726 0070 10002E40 		.word	1076756496
 727              		.cfi_endproc
 728              	.LFE8:
 729              		.size	CySysClkEcoStart, .-CySysClkEcoStart
 730              		.section	.text.CySysClkEcoStop,"ax",%progbits
 731              		.align	2
 732              		.global	CySysClkEcoStop
 733              		.code	16
 734              		.thumb_func
 735              		.type	CySysClkEcoStop, %function
 736              	CySysClkEcoStop:
 737              	.LFB9:
1016:.\Generated_Source\PSoC4/CyLib.c **** 
1017:.\Generated_Source\PSoC4/CyLib.c **** 
1018:.\Generated_Source\PSoC4/CyLib.c ****     /*******************************************************************************
1019:.\Generated_Source\PSoC4/CyLib.c ****     * Function Name: CySysClkEcoStop
1020:.\Generated_Source\PSoC4/CyLib.c ****     ****************************************************************************//**
1021:.\Generated_Source\PSoC4/CyLib.c ****     *
ARM GAS  C:\Users\Matthew\AppData\Local\Temp\ccRMqeZg.s 			page 32


1022:.\Generated_Source\PSoC4/CyLib.c ****     * Stops the megahertz crystal.
1023:.\Generated_Source\PSoC4/CyLib.c ****     *
1024:.\Generated_Source\PSoC4/CyLib.c ****     * If ECO is disabled when it is sourcing HFCLK, the CPU will halt. In addition,
1025:.\Generated_Source\PSoC4/CyLib.c ****     * for PSoC 4100 BLE / PSoC 4200 BLE devices, the BLE sub-system will stop
1026:.\Generated_Source\PSoC4/CyLib.c ****     * functioning.
1027:.\Generated_Source\PSoC4/CyLib.c ****     *
1028:.\Generated_Source\PSoC4/CyLib.c ****     *******************************************************************************/
1029:.\Generated_Source\PSoC4/CyLib.c ****     void CySysClkEcoStop(void)
1030:.\Generated_Source\PSoC4/CyLib.c ****     {
 738              		.loc 1 1030 0
 739              		.cfi_startproc
 740 0000 80B5     		push	{r7, lr}
 741              		.cfi_def_cfa_offset 8
 742              		.cfi_offset 7, -8
 743              		.cfi_offset 14, -4
 744 0002 00AF     		add	r7, sp, #0
 745              		.cfi_def_cfa_register 7
1031:.\Generated_Source\PSoC4/CyLib.c ****         #if (CY_IP_WCO_BLESS)
1032:.\Generated_Source\PSoC4/CyLib.c ****             /* Disable the RF oscillator band gap */
1033:.\Generated_Source\PSoC4/CyLib.c ****             CY_SYS_XTAL_BLESS_RF_CONFIG_REG &= (uint32) ~CY_SYS_XTAL_BLESS_RF_CONFIG_RF_ENABLE;
 746              		.loc 1 1033 0
 747 0004 064B     		ldr	r3, .L40
 748 0006 064A     		ldr	r2, .L40
 749 0008 1268     		ldr	r2, [r2]
 750 000a 0121     		mov	r1, #1
 751 000c 8A43     		bic	r2, r1
 752 000e 1A60     		str	r2, [r3]
1034:.\Generated_Source\PSoC4/CyLib.c **** 
1035:.\Generated_Source\PSoC4/CyLib.c ****             /* Disable the Crystal */
1036:.\Generated_Source\PSoC4/CyLib.c ****             CY_SYS_XTAL_BLERD_DBUS_REG &= (uint32) ~CY_SYS_XTAL_BLERD_DBUS_XTAL_ENABLE;
 753              		.loc 1 1036 0
 754 0010 044B     		ldr	r3, .L40+4
 755 0012 044A     		ldr	r2, .L40+4
 756 0014 1268     		ldr	r2, [r2]
 757 0016 0449     		ldr	r1, .L40+8
 758 0018 0A40     		and	r2, r1
 759 001a 1A60     		str	r2, [r3]
1037:.\Generated_Source\PSoC4/CyLib.c ****         #else
1038:.\Generated_Source\PSoC4/CyLib.c ****             CY_SYS_CLK_ECO_CONFIG_REG &= (uint32) ~(CY_SYS_CLK_ECO_CONFIG_ENABLE | CY_SYS_CLK_ECO_C
1039:.\Generated_Source\PSoC4/CyLib.c ****         #endif /* (CY_IP_WCO_BLESS) */
1040:.\Generated_Source\PSoC4/CyLib.c ****     }
 760              		.loc 1 1040 0
 761 001c BD46     		mov	sp, r7
 762              		@ sp needed
 763 001e 80BD     		pop	{r7, pc}
 764              	.L41:
 765              		.align	2
 766              	.L40:
 767 0020 60F02E40 		.word	1076818016
 768 0024 10002E40 		.word	1076756496
 769 0028 FF7FFFFF 		.word	-32769
 770              		.cfi_endproc
 771              	.LFE9:
 772              		.size	CySysClkEcoStop, .-CySysClkEcoStop
 773              		.section	.text.CySysClkEcoReadStatus,"ax",%progbits
 774              		.align	2
 775              		.global	CySysClkEcoReadStatus
ARM GAS  C:\Users\Matthew\AppData\Local\Temp\ccRMqeZg.s 			page 33


 776              		.code	16
 777              		.thumb_func
 778              		.type	CySysClkEcoReadStatus, %function
 779              	CySysClkEcoReadStatus:
 780              	.LFB10:
1041:.\Generated_Source\PSoC4/CyLib.c **** 
1042:.\Generated_Source\PSoC4/CyLib.c **** 
1043:.\Generated_Source\PSoC4/CyLib.c ****     /*******************************************************************************
1044:.\Generated_Source\PSoC4/CyLib.c ****     * Function Name: CySysClkEcoReadStatus
1045:.\Generated_Source\PSoC4/CyLib.c ****     ****************************************************************************//**
1046:.\Generated_Source\PSoC4/CyLib.c ****     *
1047:.\Generated_Source\PSoC4/CyLib.c ****     * Reads the status bit for the megahertz crystal.
1048:.\Generated_Source\PSoC4/CyLib.c ****     *
1049:.\Generated_Source\PSoC4/CyLib.c ****     * For PSoC 4100 BLE / PSoC 4200 BLE devices, the status bit is the
1050:.\Generated_Source\PSoC4/CyLib.c ****     * XO_AMP_DETECT bit in FSM register.
1051:.\Generated_Source\PSoC4/CyLib.c ****     *
1052:.\Generated_Source\PSoC4/CyLib.c ****     * For PSoC 4200L devices, the error status bit is the WATCHDOG_ERROR bit in
1053:.\Generated_Source\PSoC4/CyLib.c ****     * ECO_STATUS register.
1054:.\Generated_Source\PSoC4/CyLib.c ****     *
1055:.\Generated_Source\PSoC4/CyLib.c ****     * \return PSoC 4100 BLE/PSoC 4200 BLE: Non-zero indicates that ECO output
1056:.\Generated_Source\PSoC4/CyLib.c ****     * reached 50 ppm and is oscillating in valid range.
1057:.\Generated_Source\PSoC4/CyLib.c ****     *
1058:.\Generated_Source\PSoC4/CyLib.c ****     * \return PSoC 4200L: Non-zero indicates that ECO is running.
1059:.\Generated_Source\PSoC4/CyLib.c ****     *
1060:.\Generated_Source\PSoC4/CyLib.c ****     *******************************************************************************/
1061:.\Generated_Source\PSoC4/CyLib.c ****     uint32 CySysClkEcoReadStatus(void)
1062:.\Generated_Source\PSoC4/CyLib.c ****     {
 781              		.loc 1 1062 0
 782              		.cfi_startproc
 783 0000 80B5     		push	{r7, lr}
 784              		.cfi_def_cfa_offset 8
 785              		.cfi_offset 7, -8
 786              		.cfi_offset 14, -4
 787 0002 82B0     		sub	sp, sp, #8
 788              		.cfi_def_cfa_offset 16
 789 0004 00AF     		add	r7, sp, #0
 790              		.cfi_def_cfa_register 7
1063:.\Generated_Source\PSoC4/CyLib.c ****         uint32 returnValue;
1064:.\Generated_Source\PSoC4/CyLib.c **** 
1065:.\Generated_Source\PSoC4/CyLib.c ****         #if (CY_IP_WCO_BLESS)
1066:.\Generated_Source\PSoC4/CyLib.c ****             returnValue = CY_SYS_XTAL_BLERD_FSM_REG & CY_SYS_XTAL_BLERD_FSM_XO_AMP_DETECT;
 791              		.loc 1 1066 0
 792 0006 054B     		ldr	r3, .L44
 793 0008 1B68     		ldr	r3, [r3]
 794 000a 0122     		mov	r2, #1
 795 000c 1340     		and	r3, r2
 796 000e 7B60     		str	r3, [r7, #4]
1067:.\Generated_Source\PSoC4/CyLib.c ****         #else
1068:.\Generated_Source\PSoC4/CyLib.c ****             returnValue = (0u != (CY_SYS_CLK_ECO_STATUS_REG & CY_SYS_CLK_ECO_STATUS_WATCHDOG_ERROR)
1069:.\Generated_Source\PSoC4/CyLib.c ****         #endif /* (CY_IP_WCO_BLESS) */
1070:.\Generated_Source\PSoC4/CyLib.c **** 
1071:.\Generated_Source\PSoC4/CyLib.c ****         return (returnValue);
 797              		.loc 1 1071 0
 798 0010 7B68     		ldr	r3, [r7, #4]
1072:.\Generated_Source\PSoC4/CyLib.c ****     }
 799              		.loc 1 1072 0
 800 0012 181C     		mov	r0, r3
ARM GAS  C:\Users\Matthew\AppData\Local\Temp\ccRMqeZg.s 			page 34


 801 0014 BD46     		mov	sp, r7
 802 0016 02B0     		add	sp, sp, #8
 803              		@ sp needed
 804 0018 80BD     		pop	{r7, pc}
 805              	.L45:
 806 001a C046     		.align	2
 807              	.L44:
 808 001c 0C002E40 		.word	1076756492
 809              		.cfi_endproc
 810              	.LFE10:
 811              		.size	CySysClkEcoReadStatus, .-CySysClkEcoReadStatus
 812              		.section	.text.CySysClkWriteEcoDiv,"ax",%progbits
 813              		.align	2
 814              		.global	CySysClkWriteEcoDiv
 815              		.code	16
 816              		.thumb_func
 817              		.type	CySysClkWriteEcoDiv, %function
 818              	CySysClkWriteEcoDiv:
 819              	.LFB11:
1073:.\Generated_Source\PSoC4/CyLib.c **** 
1074:.\Generated_Source\PSoC4/CyLib.c ****     #if (CY_IP_ECO_BLESS)
1075:.\Generated_Source\PSoC4/CyLib.c ****         /*******************************************************************************
1076:.\Generated_Source\PSoC4/CyLib.c ****         * Function Name: CySysClkWriteEcoDiv
1077:.\Generated_Source\PSoC4/CyLib.c ****         ****************************************************************************//**
1078:.\Generated_Source\PSoC4/CyLib.c ****         *
1079:.\Generated_Source\PSoC4/CyLib.c ****         * Selects value for the ECO divider.
1080:.\Generated_Source\PSoC4/CyLib.c ****         *
1081:.\Generated_Source\PSoC4/CyLib.c ****         * The ECO must not be the HFCLK clock source when this function is called.
1082:.\Generated_Source\PSoC4/CyLib.c ****         * The HFCLK source can be changed to the other clock source by call to the
1083:.\Generated_Source\PSoC4/CyLib.c ****         * CySysClkWriteHfclkDirect() function. If the ECO sources the HFCLK this
1084:.\Generated_Source\PSoC4/CyLib.c ****         * function will not have any effect if compiler in release mode, and halt the
1085:.\Generated_Source\PSoC4/CyLib.c ****         * CPU when compiler in debug mode.
1086:.\Generated_Source\PSoC4/CyLib.c ****         *
1087:.\Generated_Source\PSoC4/CyLib.c ****         * If the SYSCLK clock frequency increases during the device operation, call
1088:.\Generated_Source\PSoC4/CyLib.c ****         * CySysFlashSetWaitCycles() with the appropriate parameter to adjust the number
1089:.\Generated_Source\PSoC4/CyLib.c ****         * of clock cycles the cache will wait before sampling data comes back from
1090:.\Generated_Source\PSoC4/CyLib.c ****         * Flash. If the SYSCLK clock frequency decreases, you can call
1091:.\Generated_Source\PSoC4/CyLib.c ****         * CySysFlashSetWaitCycles() to improve the CPU performance. See
1092:.\Generated_Source\PSoC4/CyLib.c ****         * CySysFlashSetWaitCycles() description for more information.
1093:.\Generated_Source\PSoC4/CyLib.c ****         *
1094:.\Generated_Source\PSoC4/CyLib.c ****         * \param divider Power of 2 divider selection.
1095:.\Generated_Source\PSoC4/CyLib.c ****         * - \ref CY_SYS_CLK_ECO_DIV1
1096:.\Generated_Source\PSoC4/CyLib.c ****         * - \ref CY_SYS_CLK_ECO_DIV2
1097:.\Generated_Source\PSoC4/CyLib.c ****         * - \ref CY_SYS_CLK_ECO_DIV4
1098:.\Generated_Source\PSoC4/CyLib.c ****         * - \ref CY_SYS_CLK_ECO_DIV8
1099:.\Generated_Source\PSoC4/CyLib.c ****         *
1100:.\Generated_Source\PSoC4/CyLib.c ****         *******************************************************************************/
1101:.\Generated_Source\PSoC4/CyLib.c ****         void CySysClkWriteEcoDiv(uint32 divider)
1102:.\Generated_Source\PSoC4/CyLib.c ****         {
 820              		.loc 1 1102 0
 821              		.cfi_startproc
 822 0000 90B5     		push	{r4, r7, lr}
 823              		.cfi_def_cfa_offset 12
 824              		.cfi_offset 4, -12
 825              		.cfi_offset 7, -8
 826              		.cfi_offset 14, -4
 827 0002 85B0     		sub	sp, sp, #20
ARM GAS  C:\Users\Matthew\AppData\Local\Temp\ccRMqeZg.s 			page 35


 828              		.cfi_def_cfa_offset 32
 829 0004 00AF     		add	r7, sp, #0
 830              		.cfi_def_cfa_register 7
 831 0006 7860     		str	r0, [r7, #4]
1103:.\Generated_Source\PSoC4/CyLib.c ****             uint8  interruptState;
1104:.\Generated_Source\PSoC4/CyLib.c **** 
1105:.\Generated_Source\PSoC4/CyLib.c ****             if (CY_SYS_CLK_HFCLK_ECO != (CY_SYS_CLK_SELECT_REG & CY_SYS_CLK_SELECT_DIRECT_SEL_MASK)
 832              		.loc 1 1105 0
 833 0008 114B     		ldr	r3, .L49
 834 000a 1B68     		ldr	r3, [r3]
 835 000c 0722     		mov	r2, #7
 836 000e 1340     		and	r3, r2
 837 0010 022B     		cmp	r3, #2
 838 0012 16D0     		beq	.L47
1106:.\Generated_Source\PSoC4/CyLib.c ****             {
1107:.\Generated_Source\PSoC4/CyLib.c ****                 interruptState = CyEnterCriticalSection();
 839              		.loc 1 1107 0
 840 0014 0F23     		mov	r3, #15
 841 0016 FC18     		add	r4, r7, r3
 842 0018 FFF7FEFF 		bl	CyEnterCriticalSection
 843 001c 031C     		mov	r3, r0
 844 001e 2370     		strb	r3, [r4]
1108:.\Generated_Source\PSoC4/CyLib.c **** 
1109:.\Generated_Source\PSoC4/CyLib.c ****                 CY_SYS_CLK_XTAL_CLK_DIV_CONFIG_REG =  (divider & CY_SYS_CLK_XTAL_CLK_DIV_MASK) |
 845              		.loc 1 1109 0
 846 0020 0C4B     		ldr	r3, .L49+4
 847 0022 7A68     		ldr	r2, [r7, #4]
 848 0024 0321     		mov	r1, #3
 849 0026 1140     		and	r1, r2
1110:.\Generated_Source\PSoC4/CyLib.c ****                                                       (CY_SYS_CLK_XTAL_CLK_DIV_CONFIG_REG & ((uint3
 850              		.loc 1 1110 0
 851 0028 0A4A     		ldr	r2, .L49+4
 852 002a 1268     		ldr	r2, [r2]
 853 002c 0320     		mov	r0, #3
 854 002e 8243     		bic	r2, r0
1109:.\Generated_Source\PSoC4/CyLib.c ****                                                       (CY_SYS_CLK_XTAL_CLK_DIV_CONFIG_REG & ((uint3
 855              		.loc 1 1109 0
 856 0030 0A43     		orr	r2, r1
 857 0032 1A60     		str	r2, [r3]
1111:.\Generated_Source\PSoC4/CyLib.c **** 
1112:.\Generated_Source\PSoC4/CyLib.c ****                 CyExitCriticalSection(interruptState);
 858              		.loc 1 1112 0
 859 0034 0F23     		mov	r3, #15
 860 0036 FB18     		add	r3, r7, r3
 861 0038 1B78     		ldrb	r3, [r3]
 862 003a 181C     		mov	r0, r3
 863 003c FFF7FEFF 		bl	CyExitCriticalSection
 864 0040 02E0     		b	.L46
 865              	.L47:
1113:.\Generated_Source\PSoC4/CyLib.c ****             }
1114:.\Generated_Source\PSoC4/CyLib.c ****             else
1115:.\Generated_Source\PSoC4/CyLib.c ****             {
1116:.\Generated_Source\PSoC4/CyLib.c ****                 /* Halt CPU in debug mode if ECO sources HFCLK */
1117:.\Generated_Source\PSoC4/CyLib.c ****                 CYASSERT(0u != 0u);
 866              		.loc 1 1117 0 discriminator 1
 867 0042 0020     		mov	r0, #0
 868 0044 FFF7FEFF 		bl	CyHalt
ARM GAS  C:\Users\Matthew\AppData\Local\Temp\ccRMqeZg.s 			page 36


 869              	.L46:
1118:.\Generated_Source\PSoC4/CyLib.c ****             }
1119:.\Generated_Source\PSoC4/CyLib.c ****         }
 870              		.loc 1 1119 0
 871 0048 BD46     		mov	sp, r7
 872 004a 05B0     		add	sp, sp, #20
 873              		@ sp needed
 874 004c 90BD     		pop	{r4, r7, pc}
 875              	.L50:
 876 004e C046     		.align	2
 877              	.L49:
 878 0050 00010B40 		.word	1074462976
 879 0054 64F02E40 		.word	1076818020
 880              		.cfi_endproc
 881              	.LFE11:
 882              		.size	CySysClkWriteEcoDiv, .-CySysClkWriteEcoDiv
 883              		.section	.text.CySysLvdEnable,"ax",%progbits
 884              		.align	2
 885              		.global	CySysLvdEnable
 886              		.code	16
 887              		.thumb_func
 888              		.type	CySysLvdEnable, %function
 889              	CySysLvdEnable:
 890              	.LFB12:
1120:.\Generated_Source\PSoC4/CyLib.c **** 
1121:.\Generated_Source\PSoC4/CyLib.c ****     #else
1122:.\Generated_Source\PSoC4/CyLib.c **** 
1123:.\Generated_Source\PSoC4/CyLib.c ****         /*******************************************************************************
1124:.\Generated_Source\PSoC4/CyLib.c ****         * Function Name: CySysClkConfigureEcoTrim
1125:.\Generated_Source\PSoC4/CyLib.c ****         ****************************************************************************//**
1126:.\Generated_Source\PSoC4/CyLib.c ****         *
1127:.\Generated_Source\PSoC4/CyLib.c ****         * Selects trim setting values for ECO. This API is available only for PSoC
1128:.\Generated_Source\PSoC4/CyLib.c ****         * 4200L devices only.
1129:.\Generated_Source\PSoC4/CyLib.c ****         *
1130:.\Generated_Source\PSoC4/CyLib.c ****         * The following parameters can be trimmed for ECO. The affected registers are
1131:.\Generated_Source\PSoC4/CyLib.c ****         * ECO_TRIM0 and ECO_TRIM1.
1132:.\Generated_Source\PSoC4/CyLib.c ****         *
1133:.\Generated_Source\PSoC4/CyLib.c ****         * Watchdog trim - This bit field sets the error threshold below the steady
1134:.\Generated_Source\PSoC4/CyLib.c ****         * state amplitude level.
1135:.\Generated_Source\PSoC4/CyLib.c ****         *
1136:.\Generated_Source\PSoC4/CyLib.c ****         * Amplitude trim - This bit field is to set the crystal drive level when
1137:.\Generated_Source\PSoC4/CyLib.c ****         * ECO_CONFIG.AGC_EN = 1. WARNING: use care when setting this field because
1138:.\Generated_Source\PSoC4/CyLib.c ****         * driving a crystal beyond its rated limit can permanently damage the crystal.
1139:.\Generated_Source\PSoC4/CyLib.c ****         *
1140:.\Generated_Source\PSoC4/CyLib.c ****         * Filter frequency trim - This bit field sets LPF frequency trim and affects
1141:.\Generated_Source\PSoC4/CyLib.c ****         * the 3rd harmonic content.
1142:.\Generated_Source\PSoC4/CyLib.c ****         *
1143:.\Generated_Source\PSoC4/CyLib.c ****         * Feedback resistor trim - This bit field sets the feedback resistor trim and
1144:.\Generated_Source\PSoC4/CyLib.c ****         * impacts the oscillation amplitude.
1145:.\Generated_Source\PSoC4/CyLib.c ****         *
1146:.\Generated_Source\PSoC4/CyLib.c ****         * Amplifier gain trim - This bit field sets the amplifier gain trim and affects
1147:.\Generated_Source\PSoC4/CyLib.c ****         * the startup time of the crystal.
1148:.\Generated_Source\PSoC4/CyLib.c ****         *
1149:.\Generated_Source\PSoC4/CyLib.c ****         * Use care when setting the amplitude trim field because driving a crystal
1150:.\Generated_Source\PSoC4/CyLib.c ****         * beyond its rated limit can permanently damage the crystal.
1151:.\Generated_Source\PSoC4/CyLib.c ****         *
1152:.\Generated_Source\PSoC4/CyLib.c ****         * \param wDTrim: Watchdog trim
ARM GAS  C:\Users\Matthew\AppData\Local\Temp\ccRMqeZg.s 			page 37


1153:.\Generated_Source\PSoC4/CyLib.c ****         * - \ref CY_SYS_CLK_ECO_WDTRIM0      Error threshold is 0.05 V
1154:.\Generated_Source\PSoC4/CyLib.c ****         * - \ref CY_SYS_CLK_ECO_WDTRIM1      Error threshold is 0.10 V
1155:.\Generated_Source\PSoC4/CyLib.c ****         * - \ref CY_SYS_CLK_ECO_WDTRIM2      Error threshold is 0.15 V
1156:.\Generated_Source\PSoC4/CyLib.c ****         * - \ref CY_SYS_CLK_ECO_WDTRIM3      Error threshold is 0.20 V
1157:.\Generated_Source\PSoC4/CyLib.c ****         *
1158:.\Generated_Source\PSoC4/CyLib.c ****         * \param aTrim: Amplitude trim
1159:.\Generated_Source\PSoC4/CyLib.c ****         * - \ref CY_SYS_CLK_ECO_ATRIM0       Amplitude is 0.3 Vpp
1160:.\Generated_Source\PSoC4/CyLib.c ****         * - \ref CY_SYS_CLK_ECO_ATRIM1       Amplitude is 0.4 Vpp
1161:.\Generated_Source\PSoC4/CyLib.c ****         * - \ref CY_SYS_CLK_ECO_ATRIM2       Amplitude is 0.5 Vpp
1162:.\Generated_Source\PSoC4/CyLib.c ****         * - \ref CY_SYS_CLK_ECO_ATRIM3       Amplitude is 0.6 Vpp
1163:.\Generated_Source\PSoC4/CyLib.c ****         * - \ref CY_SYS_CLK_ECO_ATRIM4       Amplitude is 0.7 Vpp
1164:.\Generated_Source\PSoC4/CyLib.c ****         * - \ref CY_SYS_CLK_ECO_ATRIM5       Amplitude is 0.8 Vpp
1165:.\Generated_Source\PSoC4/CyLib.c ****         * - \ref CY_SYS_CLK_ECO_ATRIM6       Amplitude is 0.9 Vpp
1166:.\Generated_Source\PSoC4/CyLib.c ****         * - \ref CY_SYS_CLK_ECO_ATRIM7       Amplitude is 1.0 Vpp
1167:.\Generated_Source\PSoC4/CyLib.c ****         *
1168:.\Generated_Source\PSoC4/CyLib.c ****         * \param fTrim: Filter frequency trim
1169:.\Generated_Source\PSoC4/CyLib.c ****         * - \ref CY_SYS_CLK_ECO_FTRIM0       Crystal frequency > 30 MHz
1170:.\Generated_Source\PSoC4/CyLib.c ****         * - \ref CY_SYS_CLK_ECO_FTRIM1       24 MHz < Crystal frequency <= 30 MHz
1171:.\Generated_Source\PSoC4/CyLib.c ****         * - \ref CY_SYS_CLK_ECO_FTRIM2       17 MHz < Crystal frequency <= 24 MHz
1172:.\Generated_Source\PSoC4/CyLib.c ****         * - \ref CY_SYS_CLK_ECO_FTRIM3       Crystal frequency <= 17 MHz
1173:.\Generated_Source\PSoC4/CyLib.c ****         *
1174:.\Generated_Source\PSoC4/CyLib.c ****         * \param rTrim: Feedback resistor trim
1175:.\Generated_Source\PSoC4/CyLib.c ****         * - \ref CY_SYS_CLK_ECO_RTRIM0       Crystal frequency > 30 MHz
1176:.\Generated_Source\PSoC4/CyLib.c ****         * - \ref CY_SYS_CLK_ECO_RTRIM1       24 MHz < Crystal frequency <= 30 MHz
1177:.\Generated_Source\PSoC4/CyLib.c ****         * - \ref CY_SYS_CLK_ECO_RTRIM2       17 MHz < Crystal frequency <= 24 MHz
1178:.\Generated_Source\PSoC4/CyLib.c ****         * - \ref CY_SYS_CLK_ECO_RTRIM3       Crystal frequency <= 17 MHz
1179:.\Generated_Source\PSoC4/CyLib.c ****         *
1180:.\Generated_Source\PSoC4/CyLib.c ****         * \param gTrim: Amplifier gain trim. Calculate the minimum required gm
1181:.\Generated_Source\PSoC4/CyLib.c ****         * (trans-conductance value). Divide the calculated gm value by 4.5 to
1182:.\Generated_Source\PSoC4/CyLib.c ****         * obtain an integer value 'result'. For more information please refer
1183:.\Generated_Source\PSoC4/CyLib.c ****         * to the device TRM.
1184:.\Generated_Source\PSoC4/CyLib.c ****         * - \ref CY_SYS_CLK_ECO_GTRIM0       If result = 1
1185:.\Generated_Source\PSoC4/CyLib.c ****         * - \ref CY_SYS_CLK_ECO_GTRIM1       If result = 0
1186:.\Generated_Source\PSoC4/CyLib.c ****         * - \ref CY_SYS_CLK_ECO_GTRIM2       If result = 2
1187:.\Generated_Source\PSoC4/CyLib.c ****         * - \ref CY_SYS_CLK_ECO_GTRIM2       If result = 3
1188:.\Generated_Source\PSoC4/CyLib.c ****         *
1189:.\Generated_Source\PSoC4/CyLib.c ****         *******************************************************************************/
1190:.\Generated_Source\PSoC4/CyLib.c ****         void CySysClkConfigureEcoTrim(uint32 wDTrim, uint32 aTrim, uint32 fTrim, uint32 rTrim, uint
1191:.\Generated_Source\PSoC4/CyLib.c ****         {
1192:.\Generated_Source\PSoC4/CyLib.c ****             uint8  interruptState;
1193:.\Generated_Source\PSoC4/CyLib.c ****             uint32 regTmp;
1194:.\Generated_Source\PSoC4/CyLib.c **** 
1195:.\Generated_Source\PSoC4/CyLib.c ****             interruptState = CyEnterCriticalSection();
1196:.\Generated_Source\PSoC4/CyLib.c **** 
1197:.\Generated_Source\PSoC4/CyLib.c ****             regTmp  = CY_SYS_CLK_ECO_TRIM0_REG & ~(CY_SYS_CLK_ECO_TRIM0_WDTRIM_MASK | CY_SYS_CLK_EC
1198:.\Generated_Source\PSoC4/CyLib.c ****             regTmp |= ((uint32) (wDTrim << CY_SYS_CLK_ECO_TRIM0_WDTRIM_SHIFT) & CY_SYS_CLK_ECO_TRIM
1199:.\Generated_Source\PSoC4/CyLib.c ****             regTmp |= ((uint32) (aTrim << CY_SYS_CLK_ECO_TRIM0_ATRIM_SHIFT) & CY_SYS_CLK_ECO_TRIM0_
1200:.\Generated_Source\PSoC4/CyLib.c ****             CY_SYS_CLK_ECO_TRIM0_REG = regTmp;
1201:.\Generated_Source\PSoC4/CyLib.c **** 
1202:.\Generated_Source\PSoC4/CyLib.c ****             regTmp  = CY_SYS_CLK_ECO_TRIM1_REG & ~(CY_SYS_CLK_ECO_TRIM1_FTRIM_MASK |
1203:.\Generated_Source\PSoC4/CyLib.c ****                                                    CY_SYS_CLK_ECO_TRIM1_RTRIM_MASK |
1204:.\Generated_Source\PSoC4/CyLib.c ****                                                    CY_SYS_CLK_ECO_TRIM1_GTRIM_MASK);
1205:.\Generated_Source\PSoC4/CyLib.c ****             regTmp |= ((uint32) (fTrim << CY_SYS_CLK_ECO_TRIM1_FTRIM_SHIFT) & CY_SYS_CLK_ECO_TRIM1_
1206:.\Generated_Source\PSoC4/CyLib.c ****             regTmp |= ((uint32) (rTrim << CY_SYS_CLK_ECO_TRIM1_RTRIM_SHIFT) & CY_SYS_CLK_ECO_TRIM1_
1207:.\Generated_Source\PSoC4/CyLib.c ****             regTmp |= ((uint32) (gTrim << CY_SYS_CLK_ECO_TRIM1_GTRIM_SHIFT) & CY_SYS_CLK_ECO_TRIM1_
1208:.\Generated_Source\PSoC4/CyLib.c **** 
1209:.\Generated_Source\PSoC4/CyLib.c ****             CY_SYS_CLK_ECO_TRIM1_REG = regTmp;
ARM GAS  C:\Users\Matthew\AppData\Local\Temp\ccRMqeZg.s 			page 38


1210:.\Generated_Source\PSoC4/CyLib.c **** 
1211:.\Generated_Source\PSoC4/CyLib.c ****             CyExitCriticalSection(interruptState);
1212:.\Generated_Source\PSoC4/CyLib.c ****         }
1213:.\Generated_Source\PSoC4/CyLib.c **** 
1214:.\Generated_Source\PSoC4/CyLib.c **** 
1215:.\Generated_Source\PSoC4/CyLib.c ****         /*******************************************************************************
1216:.\Generated_Source\PSoC4/CyLib.c ****         * Function Name: CySysClkConfigureEcoDrive
1217:.\Generated_Source\PSoC4/CyLib.c ****         ****************************************************************************//**
1218:.\Generated_Source\PSoC4/CyLib.c ****         *
1219:.\Generated_Source\PSoC4/CyLib.c ****         * Selects trim setting values for ECO based on crystal parameters. Use care
1220:.\Generated_Source\PSoC4/CyLib.c ****         * when setting the driveLevel parameter because driving a crystal beyond its
1221:.\Generated_Source\PSoC4/CyLib.c ****         * rated limit can permanently damage the crystal.
1222:.\Generated_Source\PSoC4/CyLib.c ****         *
1223:.\Generated_Source\PSoC4/CyLib.c ****         * This API is available only for PSoC 4200L devices only.
1224:.\Generated_Source\PSoC4/CyLib.c ****         *
1225:.\Generated_Source\PSoC4/CyLib.c ****         * \param freq Frequency of the crystal in kHz.
1226:.\Generated_Source\PSoC4/CyLib.c ****         * \param cLoad Crystal load capacitance in pF.
1227:.\Generated_Source\PSoC4/CyLib.c ****         * \param esr Equivalent series resistance of the crystal in ohm.
1228:.\Generated_Source\PSoC4/CyLib.c ****         *  maxAmplitude: maximum amplitude level in mV. Calculate as
1229:.\Generated_Source\PSoC4/CyLib.c ****         *  ((sqrt(driveLevel in uW / 2 / esr))/(3.14 * freq * cLoad)) * 10^9.
1230:.\Generated_Source\PSoC4/CyLib.c ****         *
1231:.\Generated_Source\PSoC4/CyLib.c ****         *  The Automatic Gain Control (AGC) is disabled when the specified maximum
1232:.\Generated_Source\PSoC4/CyLib.c ****         *  amplitude level equals or above 2. In this case the amplitude is not
1233:.\Generated_Source\PSoC4/CyLib.c ****         *  explicitly controlled and will grow until it saturates to the supply rail
1234:.\Generated_Source\PSoC4/CyLib.c ****         *  (1.8V nom). WARNING: use care when disabling AGC because driving a crystal
1235:.\Generated_Source\PSoC4/CyLib.c ****         *  beyond its rated limit can permanently damage the crystal.
1236:.\Generated_Source\PSoC4/CyLib.c ****         *
1237:.\Generated_Source\PSoC4/CyLib.c ****         * \return \ref CYRET_SUCCESS ECO configuration completed successfully.
1238:.\Generated_Source\PSoC4/CyLib.c ****         * \return \ref CYRET_BAD_PARAM One or more invalid parameters.
1239:.\Generated_Source\PSoC4/CyLib.c ****         *
1240:.\Generated_Source\PSoC4/CyLib.c ****         *******************************************************************************/
1241:.\Generated_Source\PSoC4/CyLib.c ****         cystatus CySysClkConfigureEcoDrive(uint32 freq, uint32 cLoad, uint32 esr, uint32 maxAmplitu
1242:.\Generated_Source\PSoC4/CyLib.c ****         {
1243:.\Generated_Source\PSoC4/CyLib.c ****             cystatus returnStatus = CYRET_SUCCESS;
1244:.\Generated_Source\PSoC4/CyLib.c **** 
1245:.\Generated_Source\PSoC4/CyLib.c ****             uint32 wDTrim;
1246:.\Generated_Source\PSoC4/CyLib.c ****             uint32 aTrim;
1247:.\Generated_Source\PSoC4/CyLib.c ****             uint32 fTrim;
1248:.\Generated_Source\PSoC4/CyLib.c ****             uint32 rTrim;
1249:.\Generated_Source\PSoC4/CyLib.c ****             uint32 gTrim;
1250:.\Generated_Source\PSoC4/CyLib.c **** 
1251:.\Generated_Source\PSoC4/CyLib.c ****             uint32 gmMin;
1252:.\Generated_Source\PSoC4/CyLib.c **** 
1253:.\Generated_Source\PSoC4/CyLib.c **** 
1254:.\Generated_Source\PSoC4/CyLib.c ****             if ((maxAmplitude < CY_SYS_CLK_ECO_MAX_AMPL_MIN_mV) ||
1255:.\Generated_Source\PSoC4/CyLib.c ****                 (freq < CY_SYS_CLK_ECO_FREQ_KHZ_MIN) || (freq > CY_SYS_CLK_ECO_FREQ_KHZ_MAX))
1256:.\Generated_Source\PSoC4/CyLib.c ****             {
1257:.\Generated_Source\PSoC4/CyLib.c ****                 returnStatus = CYRET_BAD_PARAM;
1258:.\Generated_Source\PSoC4/CyLib.c ****             }
1259:.\Generated_Source\PSoC4/CyLib.c ****             else
1260:.\Generated_Source\PSoC4/CyLib.c ****             {
1261:.\Generated_Source\PSoC4/CyLib.c ****                 /* Calculate amplitude trim */
1262:.\Generated_Source\PSoC4/CyLib.c ****                 aTrim = (maxAmplitude < CY_SYS_CLK_ECO_TRIM_BOUNDARY) ? ((maxAmplitude/100u) - 4u) 
1263:.\Generated_Source\PSoC4/CyLib.c **** 
1264:.\Generated_Source\PSoC4/CyLib.c ****                 if (maxAmplitude < CY_SYS_CLK_ECO_AMPL_FOR_ATRIM0)
1265:.\Generated_Source\PSoC4/CyLib.c ****                 {
1266:.\Generated_Source\PSoC4/CyLib.c ****                     aTrim = CY_SYS_CLK_ECO_ATRIM0;
ARM GAS  C:\Users\Matthew\AppData\Local\Temp\ccRMqeZg.s 			page 39


1267:.\Generated_Source\PSoC4/CyLib.c ****                 }
1268:.\Generated_Source\PSoC4/CyLib.c ****                 else if (maxAmplitude < CY_SYS_CLK_ECO_AMPL_FOR_ATRIM1)
1269:.\Generated_Source\PSoC4/CyLib.c ****                 {
1270:.\Generated_Source\PSoC4/CyLib.c ****                     aTrim = CY_SYS_CLK_ECO_ATRIM1;
1271:.\Generated_Source\PSoC4/CyLib.c ****                 }
1272:.\Generated_Source\PSoC4/CyLib.c ****                 else if (maxAmplitude < CY_SYS_CLK_ECO_AMPL_FOR_ATRIM2)
1273:.\Generated_Source\PSoC4/CyLib.c ****                 {
1274:.\Generated_Source\PSoC4/CyLib.c ****                     aTrim = CY_SYS_CLK_ECO_ATRIM2;
1275:.\Generated_Source\PSoC4/CyLib.c ****                 }
1276:.\Generated_Source\PSoC4/CyLib.c ****                 else if (maxAmplitude < CY_SYS_CLK_ECO_AMPL_FOR_ATRIM3)
1277:.\Generated_Source\PSoC4/CyLib.c ****                 {
1278:.\Generated_Source\PSoC4/CyLib.c ****                     aTrim = CY_SYS_CLK_ECO_ATRIM3;
1279:.\Generated_Source\PSoC4/CyLib.c ****                 }
1280:.\Generated_Source\PSoC4/CyLib.c ****                 else if (maxAmplitude < CY_SYS_CLK_ECO_AMPL_FOR_ATRIM4)
1281:.\Generated_Source\PSoC4/CyLib.c ****                 {
1282:.\Generated_Source\PSoC4/CyLib.c ****                     aTrim = CY_SYS_CLK_ECO_ATRIM4;
1283:.\Generated_Source\PSoC4/CyLib.c ****                 }
1284:.\Generated_Source\PSoC4/CyLib.c ****                 else if (maxAmplitude < CY_SYS_CLK_ECO_AMPL_FOR_ATRIM5)
1285:.\Generated_Source\PSoC4/CyLib.c ****                 {
1286:.\Generated_Source\PSoC4/CyLib.c ****                     aTrim = CY_SYS_CLK_ECO_ATRIM5;
1287:.\Generated_Source\PSoC4/CyLib.c ****                 }
1288:.\Generated_Source\PSoC4/CyLib.c ****                 else if (maxAmplitude < CY_SYS_CLK_ECO_AMPL_FOR_ATRIM6)
1289:.\Generated_Source\PSoC4/CyLib.c ****                 {
1290:.\Generated_Source\PSoC4/CyLib.c ****                     aTrim = CY_SYS_CLK_ECO_ATRIM6;
1291:.\Generated_Source\PSoC4/CyLib.c ****                 }
1292:.\Generated_Source\PSoC4/CyLib.c ****                 else
1293:.\Generated_Source\PSoC4/CyLib.c ****                 {
1294:.\Generated_Source\PSoC4/CyLib.c ****                     aTrim = CY_SYS_CLK_ECO_ATRIM7;
1295:.\Generated_Source\PSoC4/CyLib.c ****                 }
1296:.\Generated_Source\PSoC4/CyLib.c **** 
1297:.\Generated_Source\PSoC4/CyLib.c ****                 /* Calculate Watchdog trim. */
1298:.\Generated_Source\PSoC4/CyLib.c ****                 wDTrim = (maxAmplitude < CY_SYS_CLK_ECO_TRIM_BOUNDARY) ? ((maxAmplitude/200u) - 2u)
1299:.\Generated_Source\PSoC4/CyLib.c **** 
1300:.\Generated_Source\PSoC4/CyLib.c ****                 /* Calculate amplifier gain trim. */
1301:.\Generated_Source\PSoC4/CyLib.c ****                 gmMin = (uint32) (((((CY_SYS_CLK_ECO_GMMIN_COEFFICIENT * freq * cLoad) / 1000) * ((
1302:.\Generated_Source\PSoC4/CyLib.c ****                 if (gmMin > 3u)
1303:.\Generated_Source\PSoC4/CyLib.c ****                 {
1304:.\Generated_Source\PSoC4/CyLib.c ****                     returnStatus = CYRET_BAD_PARAM;
1305:.\Generated_Source\PSoC4/CyLib.c ****                     gTrim = 0u;
1306:.\Generated_Source\PSoC4/CyLib.c ****                 }
1307:.\Generated_Source\PSoC4/CyLib.c ****                 else if (gmMin > 1u)
1308:.\Generated_Source\PSoC4/CyLib.c ****                 {
1309:.\Generated_Source\PSoC4/CyLib.c ****                     gTrim = gmMin;
1310:.\Generated_Source\PSoC4/CyLib.c ****                 }
1311:.\Generated_Source\PSoC4/CyLib.c ****                 else
1312:.\Generated_Source\PSoC4/CyLib.c ****                 {
1313:.\Generated_Source\PSoC4/CyLib.c ****                     gTrim = (gmMin == 1u) ? 0u : 1u;
1314:.\Generated_Source\PSoC4/CyLib.c ****                 }
1315:.\Generated_Source\PSoC4/CyLib.c **** 
1316:.\Generated_Source\PSoC4/CyLib.c ****                 /* Calculate feedback resistor trim */
1317:.\Generated_Source\PSoC4/CyLib.c ****                 if (freq > CY_SYS_CLK_ECO_FREQ_FOR_FTRIM0)
1318:.\Generated_Source\PSoC4/CyLib.c ****                 {
1319:.\Generated_Source\PSoC4/CyLib.c ****                     rTrim = CY_SYS_CLK_ECO_FTRIM0;
1320:.\Generated_Source\PSoC4/CyLib.c ****                 }
1321:.\Generated_Source\PSoC4/CyLib.c ****                 else if (freq > CY_SYS_CLK_ECO_FREQ_FOR_FTRIM1)
1322:.\Generated_Source\PSoC4/CyLib.c ****                 {
1323:.\Generated_Source\PSoC4/CyLib.c ****                     rTrim = CY_SYS_CLK_ECO_FTRIM1;
ARM GAS  C:\Users\Matthew\AppData\Local\Temp\ccRMqeZg.s 			page 40


1324:.\Generated_Source\PSoC4/CyLib.c ****                 }
1325:.\Generated_Source\PSoC4/CyLib.c ****                 else if (freq > CY_SYS_CLK_ECO_FREQ_FOR_FTRIM2)
1326:.\Generated_Source\PSoC4/CyLib.c ****                 {
1327:.\Generated_Source\PSoC4/CyLib.c ****                     rTrim = CY_SYS_CLK_ECO_FTRIM2;
1328:.\Generated_Source\PSoC4/CyLib.c ****                 }
1329:.\Generated_Source\PSoC4/CyLib.c ****                 else
1330:.\Generated_Source\PSoC4/CyLib.c ****                 {
1331:.\Generated_Source\PSoC4/CyLib.c ****                     rTrim = CY_SYS_CLK_ECO_FTRIM3;
1332:.\Generated_Source\PSoC4/CyLib.c ****                 }
1333:.\Generated_Source\PSoC4/CyLib.c **** 
1334:.\Generated_Source\PSoC4/CyLib.c ****                 /* Calculate filter frequency trim */
1335:.\Generated_Source\PSoC4/CyLib.c ****                 fTrim = rTrim;
1336:.\Generated_Source\PSoC4/CyLib.c **** 
1337:.\Generated_Source\PSoC4/CyLib.c ****                 CySysClkConfigureEcoTrim(wDTrim, aTrim, fTrim, rTrim, gTrim);
1338:.\Generated_Source\PSoC4/CyLib.c **** 
1339:.\Generated_Source\PSoC4/CyLib.c ****                 /* Automatic Gain Control (AGC) enable */
1340:.\Generated_Source\PSoC4/CyLib.c ****                 if (maxAmplitude < 2u)
1341:.\Generated_Source\PSoC4/CyLib.c ****                 {
1342:.\Generated_Source\PSoC4/CyLib.c ****                     /* The oscillation amplitude is controlled to the level selected by amplitude t
1343:.\Generated_Source\PSoC4/CyLib.c ****                     CY_SYS_CLK_ECO_CONFIG_REG |= CY_SYS_CLK_ECO_CONFIG_AGC_EN;
1344:.\Generated_Source\PSoC4/CyLib.c ****                 }
1345:.\Generated_Source\PSoC4/CyLib.c ****                 else
1346:.\Generated_Source\PSoC4/CyLib.c ****                 {
1347:.\Generated_Source\PSoC4/CyLib.c ****                     /* The amplitude is not explicitly controlled and will grow until it saturates 
1348:.\Generated_Source\PSoC4/CyLib.c ****                     * supply rail (1.8V nom).
1349:.\Generated_Source\PSoC4/CyLib.c ****                     */
1350:.\Generated_Source\PSoC4/CyLib.c ****                     CY_SYS_CLK_ECO_CONFIG_REG &= (uint32) ~CY_SYS_CLK_ECO_CONFIG_AGC_EN;
1351:.\Generated_Source\PSoC4/CyLib.c ****                 }
1352:.\Generated_Source\PSoC4/CyLib.c ****             }
1353:.\Generated_Source\PSoC4/CyLib.c **** 
1354:.\Generated_Source\PSoC4/CyLib.c ****             return (returnStatus);
1355:.\Generated_Source\PSoC4/CyLib.c ****         }
1356:.\Generated_Source\PSoC4/CyLib.c **** 
1357:.\Generated_Source\PSoC4/CyLib.c ****     #endif /* CY_IP_ECO_BLESS */
1358:.\Generated_Source\PSoC4/CyLib.c **** 
1359:.\Generated_Source\PSoC4/CyLib.c **** #endif /* (CY_IP_ECO) */
1360:.\Generated_Source\PSoC4/CyLib.c **** 
1361:.\Generated_Source\PSoC4/CyLib.c **** 
1362:.\Generated_Source\PSoC4/CyLib.c **** #if (CY_IP_SRSSV2 && CY_IP_PLL)
1363:.\Generated_Source\PSoC4/CyLib.c ****     /*******************************************************************************
1364:.\Generated_Source\PSoC4/CyLib.c ****     * Function Name: CySysClkPllStart
1365:.\Generated_Source\PSoC4/CyLib.c ****     ****************************************************************************//**
1366:.\Generated_Source\PSoC4/CyLib.c ****     *
1367:.\Generated_Source\PSoC4/CyLib.c ****     * Enables the PLL. Optionally waits for it to become stable. Waits at least
1368:.\Generated_Source\PSoC4/CyLib.c ****     * 250 us or until it is detected that the PLL is stable.
1369:.\Generated_Source\PSoC4/CyLib.c ****     *
1370:.\Generated_Source\PSoC4/CyLib.c ****     * Clears the unlock occurred status bit by calling CySysClkPllGetUnlockStatus(),
1371:.\Generated_Source\PSoC4/CyLib.c ****     * once the PLL is locked if the wait parameter is 1).
1372:.\Generated_Source\PSoC4/CyLib.c ****     *
1373:.\Generated_Source\PSoC4/CyLib.c ****     * This API is available only for PSoC 4200L devices.
1374:.\Generated_Source\PSoC4/CyLib.c ****     *
1375:.\Generated_Source\PSoC4/CyLib.c ****     * \param PLL:
1376:.\Generated_Source\PSoC4/CyLib.c ****     * 0   PLL#0
1377:.\Generated_Source\PSoC4/CyLib.c ****     * 1   PLL#1
1378:.\Generated_Source\PSoC4/CyLib.c ****     *
1379:.\Generated_Source\PSoC4/CyLib.c ****     * \param wait:
1380:.\Generated_Source\PSoC4/CyLib.c ****     * 0 - Return immediately after configuration.
ARM GAS  C:\Users\Matthew\AppData\Local\Temp\ccRMqeZg.s 			page 41


1381:.\Generated_Source\PSoC4/CyLib.c ****     * 1 - Wait for PLL lock or timeout. This API shall use the CyDelayUs() to
1382:.\Generated_Source\PSoC4/CyLib.c ****     * implement the timeout feature.
1383:.\Generated_Source\PSoC4/CyLib.c ****     *
1384:.\Generated_Source\PSoC4/CyLib.c ****     * \return CYRET_SUCCESS Completed successfully.
1385:.\Generated_Source\PSoC4/CyLib.c ****     * \return CYRET_TIMEOUT The timeout occurred without detecting a stable clock.
1386:.\Generated_Source\PSoC4/CyLib.c ****     * If the input source of the clock is jittery, then the lock indication may
1387:.\Generated_Source\PSoC4/CyLib.c ****     * not occur. However, after the timeout has expired, the generated PLL clock can
1388:.\Generated_Source\PSoC4/CyLib.c ****     * still be used.
1389:.\Generated_Source\PSoC4/CyLib.c ****     * \return CYRET_BAD_PARAM - Either the PLL or wait parameter is invalid.
1390:.\Generated_Source\PSoC4/CyLib.c ****     *
1391:.\Generated_Source\PSoC4/CyLib.c ****     *******************************************************************************/
1392:.\Generated_Source\PSoC4/CyLib.c ****     cystatus CySysClkPllStart(uint32 pll, uint32 wait)
1393:.\Generated_Source\PSoC4/CyLib.c ****     {
1394:.\Generated_Source\PSoC4/CyLib.c ****         uint32 counts = CY_SYS_CLK_PLL_MAX_STARTUP_US;
1395:.\Generated_Source\PSoC4/CyLib.c ****         uint8  interruptState;
1396:.\Generated_Source\PSoC4/CyLib.c ****         cystatus returnStatus = CYRET_SUCCESS;
1397:.\Generated_Source\PSoC4/CyLib.c **** 
1398:.\Generated_Source\PSoC4/CyLib.c ****         if((pll < CY_IP_PLL_NR) && (wait <= 1u))
1399:.\Generated_Source\PSoC4/CyLib.c ****         {
1400:.\Generated_Source\PSoC4/CyLib.c ****             interruptState = CyEnterCriticalSection();
1401:.\Generated_Source\PSoC4/CyLib.c **** 
1402:.\Generated_Source\PSoC4/CyLib.c ****             /* Isolate PLL outputs */
1403:.\Generated_Source\PSoC4/CyLib.c ****             CY_SYS_CLK_PLL_BASE.pll[pll].config &= (uint32) ~CY_SYS_CLK_PLL_CONFIG_ISOLATE;
1404:.\Generated_Source\PSoC4/CyLib.c **** 
1405:.\Generated_Source\PSoC4/CyLib.c ****             /* Enable PLL */
1406:.\Generated_Source\PSoC4/CyLib.c ****             CY_SYS_CLK_PLL_BASE.pll[pll].config |= CY_SYS_CLK_PLL_CONFIG_ENABLE;
1407:.\Generated_Source\PSoC4/CyLib.c **** 
1408:.\Generated_Source\PSoC4/CyLib.c ****             CyExitCriticalSection(interruptState);
1409:.\Generated_Source\PSoC4/CyLib.c **** 
1410:.\Generated_Source\PSoC4/CyLib.c ****             /* De-isolate >= CY_SYS_CLK_PLL_MIN_STARTUP_US after PLL enabled */
1411:.\Generated_Source\PSoC4/CyLib.c ****             CyDelayUs(CY_SYS_CLK_PLL_MIN_STARTUP_US);
1412:.\Generated_Source\PSoC4/CyLib.c ****             interruptState = CyEnterCriticalSection();
1413:.\Generated_Source\PSoC4/CyLib.c ****             CY_SYS_CLK_PLL_BASE.pll[pll].config |= CY_SYS_CLK_PLL_CONFIG_ISOLATE;
1414:.\Generated_Source\PSoC4/CyLib.c ****             CyExitCriticalSection(interruptState);
1415:.\Generated_Source\PSoC4/CyLib.c **** 
1416:.\Generated_Source\PSoC4/CyLib.c ****             if(wait != 0u)
1417:.\Generated_Source\PSoC4/CyLib.c ****             {
1418:.\Generated_Source\PSoC4/CyLib.c ****                 returnStatus = CYRET_TIMEOUT;
1419:.\Generated_Source\PSoC4/CyLib.c **** 
1420:.\Generated_Source\PSoC4/CyLib.c ****                 while(0u != counts)
1421:.\Generated_Source\PSoC4/CyLib.c ****                 {
1422:.\Generated_Source\PSoC4/CyLib.c **** 
1423:.\Generated_Source\PSoC4/CyLib.c ****                     if(0u != CySysClkPllGetLockStatus(pll))
1424:.\Generated_Source\PSoC4/CyLib.c ****                     {
1425:.\Generated_Source\PSoC4/CyLib.c ****                         returnStatus = CYRET_SUCCESS;
1426:.\Generated_Source\PSoC4/CyLib.c ****                         (void) CySysClkPllGetUnlockStatus(pll);
1427:.\Generated_Source\PSoC4/CyLib.c ****                         break;
1428:.\Generated_Source\PSoC4/CyLib.c ****                     }
1429:.\Generated_Source\PSoC4/CyLib.c **** 
1430:.\Generated_Source\PSoC4/CyLib.c ****                     CyDelayUs(1u);
1431:.\Generated_Source\PSoC4/CyLib.c ****                     counts--;
1432:.\Generated_Source\PSoC4/CyLib.c ****                 }
1433:.\Generated_Source\PSoC4/CyLib.c ****             }
1434:.\Generated_Source\PSoC4/CyLib.c ****         }
1435:.\Generated_Source\PSoC4/CyLib.c ****         else
1436:.\Generated_Source\PSoC4/CyLib.c ****         {
1437:.\Generated_Source\PSoC4/CyLib.c ****             returnStatus = CYRET_BAD_PARAM;
ARM GAS  C:\Users\Matthew\AppData\Local\Temp\ccRMqeZg.s 			page 42


1438:.\Generated_Source\PSoC4/CyLib.c ****         }
1439:.\Generated_Source\PSoC4/CyLib.c **** 
1440:.\Generated_Source\PSoC4/CyLib.c ****         return (returnStatus);
1441:.\Generated_Source\PSoC4/CyLib.c ****     }
1442:.\Generated_Source\PSoC4/CyLib.c **** 
1443:.\Generated_Source\PSoC4/CyLib.c **** 
1444:.\Generated_Source\PSoC4/CyLib.c ****     /*******************************************************************************
1445:.\Generated_Source\PSoC4/CyLib.c ****     * Function Name: CySysClkPllGetLockStatus
1446:.\Generated_Source\PSoC4/CyLib.c ****     ****************************************************************************//**
1447:.\Generated_Source\PSoC4/CyLib.c ****     *
1448:.\Generated_Source\PSoC4/CyLib.c ****     * Returns non-zero if the output of the specified PLL output is locked.
1449:.\Generated_Source\PSoC4/CyLib.c ****     *
1450:.\Generated_Source\PSoC4/CyLib.c ****     * This API is available only for PSoC 4200L devices.
1451:.\Generated_Source\PSoC4/CyLib.c ****     *
1452:.\Generated_Source\PSoC4/CyLib.c ****     * PLL:
1453:.\Generated_Source\PSoC4/CyLib.c ****     *  0   PLL#0
1454:.\Generated_Source\PSoC4/CyLib.c ****     *  1   PLL#1
1455:.\Generated_Source\PSoC4/CyLib.c ****     *
1456:.\Generated_Source\PSoC4/CyLib.c ****     * \return A non-zero value when the specified PLL is locked.
1457:.\Generated_Source\PSoC4/CyLib.c ****     *
1458:.\Generated_Source\PSoC4/CyLib.c ****     *******************************************************************************/
1459:.\Generated_Source\PSoC4/CyLib.c ****     uint32 CySysClkPllGetLockStatus(uint32 pll)
1460:.\Generated_Source\PSoC4/CyLib.c ****     {
1461:.\Generated_Source\PSoC4/CyLib.c ****         uint8  interruptState;
1462:.\Generated_Source\PSoC4/CyLib.c ****         uint32 returnStatus;
1463:.\Generated_Source\PSoC4/CyLib.c **** 
1464:.\Generated_Source\PSoC4/CyLib.c ****         CYASSERT(pll < CY_IP_PLL_NR);
1465:.\Generated_Source\PSoC4/CyLib.c **** 
1466:.\Generated_Source\PSoC4/CyLib.c ****         interruptState = CyEnterCriticalSection();
1467:.\Generated_Source\PSoC4/CyLib.c **** 
1468:.\Generated_Source\PSoC4/CyLib.c ****         /* PLL is locked if reported so for two consecutive read. */
1469:.\Generated_Source\PSoC4/CyLib.c ****         returnStatus = CY_SYS_CLK_PLL_BASE.pll[pll].status & CY_SYS_CLK_PLL_STATUS_LOCKED;
1470:.\Generated_Source\PSoC4/CyLib.c ****         if(0u != returnStatus)
1471:.\Generated_Source\PSoC4/CyLib.c ****         {
1472:.\Generated_Source\PSoC4/CyLib.c ****             returnStatus = CY_SYS_CLK_PLL_BASE.pll[pll].status & CY_SYS_CLK_PLL_STATUS_LOCKED;
1473:.\Generated_Source\PSoC4/CyLib.c ****         }
1474:.\Generated_Source\PSoC4/CyLib.c **** 
1475:.\Generated_Source\PSoC4/CyLib.c ****         CyExitCriticalSection(interruptState);
1476:.\Generated_Source\PSoC4/CyLib.c **** 
1477:.\Generated_Source\PSoC4/CyLib.c ****         return (returnStatus);
1478:.\Generated_Source\PSoC4/CyLib.c ****     }
1479:.\Generated_Source\PSoC4/CyLib.c **** 
1480:.\Generated_Source\PSoC4/CyLib.c ****     /*******************************************************************************
1481:.\Generated_Source\PSoC4/CyLib.c ****     * Function Name: CySysClkPllStop
1482:.\Generated_Source\PSoC4/CyLib.c ****     ****************************************************************************//**
1483:.\Generated_Source\PSoC4/CyLib.c ****     *
1484:.\Generated_Source\PSoC4/CyLib.c ****     * Disables the PLL.
1485:.\Generated_Source\PSoC4/CyLib.c ****     *
1486:.\Generated_Source\PSoC4/CyLib.c ****     * Ensures that either PLL is not the source of HFCLK before it is disabled,
1487:.\Generated_Source\PSoC4/CyLib.c ****     * otherwise, the CPU will halt.
1488:.\Generated_Source\PSoC4/CyLib.c ****     *
1489:.\Generated_Source\PSoC4/CyLib.c ****     * This API is available only for PSoC 4200L devices.
1490:.\Generated_Source\PSoC4/CyLib.c ****     *
1491:.\Generated_Source\PSoC4/CyLib.c ****     * PLL:
1492:.\Generated_Source\PSoC4/CyLib.c ****     *  0   PLL#0
1493:.\Generated_Source\PSoC4/CyLib.c ****     *  1   PLL#1
1494:.\Generated_Source\PSoC4/CyLib.c ****     *
ARM GAS  C:\Users\Matthew\AppData\Local\Temp\ccRMqeZg.s 			page 43


1495:.\Generated_Source\PSoC4/CyLib.c ****     *******************************************************************************/
1496:.\Generated_Source\PSoC4/CyLib.c ****     void CySysClkPllStop(uint32 pll)
1497:.\Generated_Source\PSoC4/CyLib.c ****     {
1498:.\Generated_Source\PSoC4/CyLib.c ****         uint8  interruptState;
1499:.\Generated_Source\PSoC4/CyLib.c **** 
1500:.\Generated_Source\PSoC4/CyLib.c ****         if (pll < CY_IP_PLL_NR)
1501:.\Generated_Source\PSoC4/CyLib.c ****         {
1502:.\Generated_Source\PSoC4/CyLib.c ****             interruptState = CyEnterCriticalSection();
1503:.\Generated_Source\PSoC4/CyLib.c ****             CY_SYS_CLK_PLL_BASE.pll[pll].config &= (uint32) ~(CY_SYS_CLK_PLL_CONFIG_ISOLATE | CY_SY
1504:.\Generated_Source\PSoC4/CyLib.c ****             CyExitCriticalSection(interruptState);
1505:.\Generated_Source\PSoC4/CyLib.c ****         }
1506:.\Generated_Source\PSoC4/CyLib.c ****     }
1507:.\Generated_Source\PSoC4/CyLib.c **** 
1508:.\Generated_Source\PSoC4/CyLib.c **** 
1509:.\Generated_Source\PSoC4/CyLib.c ****     /*******************************************************************************
1510:.\Generated_Source\PSoC4/CyLib.c ****     * Function Name: CySysClkPllSetPQ
1511:.\Generated_Source\PSoC4/CyLib.c ****     ****************************************************************************//**
1512:.\Generated_Source\PSoC4/CyLib.c ****     *
1513:.\Generated_Source\PSoC4/CyLib.c ****     * Sets feedback (P) and reference the (Q) divider value. This API also sets the
1514:.\Generated_Source\PSoC4/CyLib.c ****     * programmable charge pump current value. Note that the PLL has to be disabled
1515:.\Generated_Source\PSoC4/CyLib.c ****     * before calling this API. If this function is called while any PLL is sourcing,
1516:.\Generated_Source\PSoC4/CyLib.c ****     * the SYSCLK will return an error.
1517:.\Generated_Source\PSoC4/CyLib.c ****     *
1518:.\Generated_Source\PSoC4/CyLib.c ****     * The PLL must not be the system clock source when calling this function. The
1519:.\Generated_Source\PSoC4/CyLib.c ****     * PLL output will glitch during this function call.
1520:.\Generated_Source\PSoC4/CyLib.c ****     *
1521:.\Generated_Source\PSoC4/CyLib.c ****     * This API is available only for PSoC 4200L devices.
1522:.\Generated_Source\PSoC4/CyLib.c ****     *
1523:.\Generated_Source\PSoC4/CyLib.c ****     * \param PLL:
1524:.\Generated_Source\PSoC4/CyLib.c ****     *  0   PLL#0
1525:.\Generated_Source\PSoC4/CyLib.c ****     *  1   PLL#1
1526:.\Generated_Source\PSoC4/CyLib.c ****     *
1527:.\Generated_Source\PSoC4/CyLib.c ****     * \param feedback The P divider. Range 4 - 259. Control bits for the feedback
1528:.\Generated_Source\PSoC4/CyLib.c ****     * divider.
1529:.\Generated_Source\PSoC4/CyLib.c ****     *
1530:.\Generated_Source\PSoC4/CyLib.c ****     * \param reference The Q divider. Range 1 - 64. Divide by the reference.
1531:.\Generated_Source\PSoC4/CyLib.c ****     *
1532:.\Generated_Source\PSoC4/CyLib.c ****     * \param current Charge the pump current in uA. The 2 uA for output frequencies
1533:.\Generated_Source\PSoC4/CyLib.c ****     * of 67 MHz or less, and 3 uA for higher output frequencies. The default
1534:.\Generated_Source\PSoC4/CyLib.c ****     * value is 2 uA.
1535:.\Generated_Source\PSoC4/CyLib.c ****     *
1536:.\Generated_Source\PSoC4/CyLib.c ****     * \return CYRET_SUCCESS Completed successfully.
1537:.\Generated_Source\PSoC4/CyLib.c ****     * \return CYRET_BAD_PARAM The parameters are out of range or the specified PLL
1538:.\Generated_Source\PSoC4/CyLib.c ****     * sources the system clock.
1539:.\Generated_Source\PSoC4/CyLib.c ****     *
1540:.\Generated_Source\PSoC4/CyLib.c ****     *******************************************************************************/
1541:.\Generated_Source\PSoC4/CyLib.c ****     cystatus CySysClkPllSetPQ(uint32 pll, uint32 feedback, uint32 reference, uint32 current)
1542:.\Generated_Source\PSoC4/CyLib.c ****     {
1543:.\Generated_Source\PSoC4/CyLib.c ****         uint32   regTmp;
1544:.\Generated_Source\PSoC4/CyLib.c ****         cystatus tmp;
1545:.\Generated_Source\PSoC4/CyLib.c ****         uint8    interruptState;
1546:.\Generated_Source\PSoC4/CyLib.c ****         cystatus returnStatus = CYRET_BAD_PARAM;
1547:.\Generated_Source\PSoC4/CyLib.c **** 
1548:.\Generated_Source\PSoC4/CyLib.c ****         interruptState = CyEnterCriticalSection();
1549:.\Generated_Source\PSoC4/CyLib.c **** 
1550:.\Generated_Source\PSoC4/CyLib.c ****         tmp = CySysClkPllConfigChangeAllowed(pll);
1551:.\Generated_Source\PSoC4/CyLib.c **** 
ARM GAS  C:\Users\Matthew\AppData\Local\Temp\ccRMqeZg.s 			page 44


1552:.\Generated_Source\PSoC4/CyLib.c ****         if ((pll < CY_IP_PLL_NR) &&
1553:.\Generated_Source\PSoC4/CyLib.c ****             (feedback  >= CY_SYS_CLK_PLL_CONFIG_FEEDBACK_DIV_MIN)  && (feedback  <= CY_SYS_CLK_PLL_
1554:.\Generated_Source\PSoC4/CyLib.c ****             (reference >= CY_SYS_CLK_PLL_CONFIG_REFERENCE_DIV_MIN) && (reference <= CY_SYS_CLK_PLL_
1555:.\Generated_Source\PSoC4/CyLib.c ****             (current   >= CY_SYS_CLK_PLL_CONFIG_ICP_SEL_MIN )      && (current   <= CY_SYS_CLK_PLL_
1556:.\Generated_Source\PSoC4/CyLib.c ****             (CYRET_SUCCESS == tmp))
1557:.\Generated_Source\PSoC4/CyLib.c ****         {
1558:.\Generated_Source\PSoC4/CyLib.c ****             /* Set new feedback, reference and current values */
1559:.\Generated_Source\PSoC4/CyLib.c ****             regTmp  = CY_SYS_CLK_PLL_BASE.pll[pll].config & (uint32) ~(CY_SYS_CLK_PLL_CONFIG_FEEDBA
1560:.\Generated_Source\PSoC4/CyLib.c ****                                                                        CY_SYS_CLK_PLL_CONFIG_REFERE
1561:.\Generated_Source\PSoC4/CyLib.c ****                                                                        CY_SYS_CLK_PLL_CONFIG_ICP_SE
1562:.\Generated_Source\PSoC4/CyLib.c **** 
1563:.\Generated_Source\PSoC4/CyLib.c ****             regTmp |= ((feedback << CY_SYS_CLK_PLL_CONFIG_FEEDBACK_DIV_SHIFT) & CY_SYS_CLK_PLL_CONF
1564:.\Generated_Source\PSoC4/CyLib.c ****             regTmp |= (((reference - 1u) << CY_SYS_CLK_PLL_CONFIG_REFERENCE_DIV_SHIFT) & CY_SYS_CLK
1565:.\Generated_Source\PSoC4/CyLib.c ****             regTmp |= ((current << CY_SYS_CLK_PLL_CONFIG_ICP_SEL_SHIFT) & CY_SYS_CLK_PLL_CONFIG_ICP
1566:.\Generated_Source\PSoC4/CyLib.c **** 
1567:.\Generated_Source\PSoC4/CyLib.c ****             CY_SYS_CLK_PLL_BASE.pll[pll].config = regTmp;
1568:.\Generated_Source\PSoC4/CyLib.c **** 
1569:.\Generated_Source\PSoC4/CyLib.c ****             returnStatus = CYRET_SUCCESS;
1570:.\Generated_Source\PSoC4/CyLib.c ****         }
1571:.\Generated_Source\PSoC4/CyLib.c **** 
1572:.\Generated_Source\PSoC4/CyLib.c ****         CyExitCriticalSection(interruptState);
1573:.\Generated_Source\PSoC4/CyLib.c **** 
1574:.\Generated_Source\PSoC4/CyLib.c ****         return (returnStatus);
1575:.\Generated_Source\PSoC4/CyLib.c ****     }
1576:.\Generated_Source\PSoC4/CyLib.c **** 
1577:.\Generated_Source\PSoC4/CyLib.c **** 
1578:.\Generated_Source\PSoC4/CyLib.c ****     /*******************************************************************************
1579:.\Generated_Source\PSoC4/CyLib.c ****     * Function Name: CySysClkPllSetBypassMode
1580:.\Generated_Source\PSoC4/CyLib.c ****     ****************************************************************************//**
1581:.\Generated_Source\PSoC4/CyLib.c ****     *
1582:.\Generated_Source\PSoC4/CyLib.c ****     * Sets the bypass mode for the specified PLL.
1583:.\Generated_Source\PSoC4/CyLib.c ****     *
1584:.\Generated_Source\PSoC4/CyLib.c ****     * The PLL must not be the system clock source when calling this function.
1585:.\Generated_Source\PSoC4/CyLib.c ****     * The PLL output will glitch during this function call.
1586:.\Generated_Source\PSoC4/CyLib.c ****     *
1587:.\Generated_Source\PSoC4/CyLib.c ****     * When the PLL's reference input is higher than HFCLK frequency the device may 
1588:.\Generated_Source\PSoC4/CyLib.c ****     * lock due to incorrect flash wait cycle configuration and bypass switches from 
1589:.\Generated_Source\PSoC4/CyLib.c ****     * PLL output to the reference input. See description of 
1590:.\Generated_Source\PSoC4/CyLib.c ****     * CySysFlashSetWaitCycles() for more information.
1591:.\Generated_Source\PSoC4/CyLib.c ****     *
1592:.\Generated_Source\PSoC4/CyLib.c ****     * This API is available only for PSoC 4200L devices.
1593:.\Generated_Source\PSoC4/CyLib.c ****     *
1594:.\Generated_Source\PSoC4/CyLib.c ****     * \param PLL:
1595:.\Generated_Source\PSoC4/CyLib.c ****     *  0   PLL#0
1596:.\Generated_Source\PSoC4/CyLib.c ****     *  1   PLL#1
1597:.\Generated_Source\PSoC4/CyLib.c ****     *
1598:.\Generated_Source\PSoC4/CyLib.c ****     * \param bypass: The bypass mode.
1599:.\Generated_Source\PSoC4/CyLib.c ****     * CY_SYS_PLL_BYPASS_AUTO - Automatic usage of the lock indicator. When unlocked,
1600:.\Generated_Source\PSoC4/CyLib.c ****     * automatically selects PLL the reference input (bypass mode). When locked,
1601:.\Generated_Source\PSoC4/CyLib.c ****     * automatically selects the PLL output.
1602:.\Generated_Source\PSoC4/CyLib.c ****     *
1603:.\Generated_Source\PSoC4/CyLib.c ****     * CY_SYS_PLL_BYPASS_PLL_REF - Selects the PLL reference input (bypass mode).
1604:.\Generated_Source\PSoC4/CyLib.c ****     * Ignores the lock indicator.
1605:.\Generated_Source\PSoC4/CyLib.c ****     *
1606:.\Generated_Source\PSoC4/CyLib.c ****     * CY_SYS_PLL_BYPASS_PLL_OUT - Selects the PLL output.  Ignores the lock indicator.
1607:.\Generated_Source\PSoC4/CyLib.c ****     *
1608:.\Generated_Source\PSoC4/CyLib.c ****     *******************************************************************************/
ARM GAS  C:\Users\Matthew\AppData\Local\Temp\ccRMqeZg.s 			page 45


1609:.\Generated_Source\PSoC4/CyLib.c ****     void CySysClkPllSetBypassMode(uint32 pll, uint32 bypass)
1610:.\Generated_Source\PSoC4/CyLib.c ****     {
1611:.\Generated_Source\PSoC4/CyLib.c ****         uint32 regTmp;
1612:.\Generated_Source\PSoC4/CyLib.c ****         uint8  interruptState;
1613:.\Generated_Source\PSoC4/CyLib.c **** 
1614:.\Generated_Source\PSoC4/CyLib.c ****         interruptState = CyEnterCriticalSection();
1615:.\Generated_Source\PSoC4/CyLib.c **** 
1616:.\Generated_Source\PSoC4/CyLib.c ****         if ((pll < CY_IP_PLL_NR) && (bypass <= CY_SYS_PLL_BYPASS_PLL_OUT))
1617:.\Generated_Source\PSoC4/CyLib.c ****         {
1618:.\Generated_Source\PSoC4/CyLib.c ****             regTmp  = CY_SYS_CLK_PLL_BASE.pll[pll].config & (uint32) ~CY_SYS_CLK_PLL_CONFIG_BYPASS_
1619:.\Generated_Source\PSoC4/CyLib.c ****             regTmp |=  (uint32)(bypass << CY_SYS_CLK_PLL_CONFIG_BYPASS_SEL_SHIFT);
1620:.\Generated_Source\PSoC4/CyLib.c ****             CY_SYS_CLK_PLL_BASE.pll[pll].config = regTmp;
1621:.\Generated_Source\PSoC4/CyLib.c ****         }
1622:.\Generated_Source\PSoC4/CyLib.c **** 
1623:.\Generated_Source\PSoC4/CyLib.c ****         CyExitCriticalSection(interruptState);
1624:.\Generated_Source\PSoC4/CyLib.c ****     }
1625:.\Generated_Source\PSoC4/CyLib.c **** 
1626:.\Generated_Source\PSoC4/CyLib.c **** 
1627:.\Generated_Source\PSoC4/CyLib.c ****     /*******************************************************************************
1628:.\Generated_Source\PSoC4/CyLib.c ****     * Function Name: CySysClkPllGetBypassMode
1629:.\Generated_Source\PSoC4/CyLib.c ****     ****************************************************************************//**
1630:.\Generated_Source\PSoC4/CyLib.c ****     *
1631:.\Generated_Source\PSoC4/CyLib.c ****     *  Gets the bypass mode for the specified PLL.
1632:.\Generated_Source\PSoC4/CyLib.c ****     *  This API is available only for PSoC 4200L devices.
1633:.\Generated_Source\PSoC4/CyLib.c ****     *
1634:.\Generated_Source\PSoC4/CyLib.c ****     *  \param PLL:
1635:.\Generated_Source\PSoC4/CyLib.c ****     *   0   PLL#0
1636:.\Generated_Source\PSoC4/CyLib.c ****     *   1   PLL#1
1637:.\Generated_Source\PSoC4/CyLib.c ****     *
1638:.\Generated_Source\PSoC4/CyLib.c ****     *  \param bypass: Bypass mode.
1639:.\Generated_Source\PSoC4/CyLib.c ****     *   The same as the parameter of the CySysClkPllSetBypassMode().
1640:.\Generated_Source\PSoC4/CyLib.c ****     *
1641:.\Generated_Source\PSoC4/CyLib.c ****     *******************************************************************************/
1642:.\Generated_Source\PSoC4/CyLib.c ****     static uint32 CySysClkPllGetBypassMode(uint32 pll)
1643:.\Generated_Source\PSoC4/CyLib.c ****     {
1644:.\Generated_Source\PSoC4/CyLib.c ****         uint32 returnValue;
1645:.\Generated_Source\PSoC4/CyLib.c ****         uint8  interruptState;
1646:.\Generated_Source\PSoC4/CyLib.c **** 
1647:.\Generated_Source\PSoC4/CyLib.c ****         CYASSERT(pll < CY_IP_PLL_NR);
1648:.\Generated_Source\PSoC4/CyLib.c **** 
1649:.\Generated_Source\PSoC4/CyLib.c ****         interruptState = CyEnterCriticalSection();
1650:.\Generated_Source\PSoC4/CyLib.c **** 
1651:.\Generated_Source\PSoC4/CyLib.c ****         returnValue = CY_SYS_CLK_PLL_BASE.pll[pll].config & CY_SYS_CLK_PLL_CONFIG_BYPASS_SEL_MASK;
1652:.\Generated_Source\PSoC4/CyLib.c ****         returnValue =  returnValue >> CY_SYS_CLK_PLL_CONFIG_BYPASS_SEL_SHIFT;
1653:.\Generated_Source\PSoC4/CyLib.c **** 
1654:.\Generated_Source\PSoC4/CyLib.c ****         CyExitCriticalSection(interruptState);
1655:.\Generated_Source\PSoC4/CyLib.c **** 
1656:.\Generated_Source\PSoC4/CyLib.c ****         return (returnValue);
1657:.\Generated_Source\PSoC4/CyLib.c ****     }
1658:.\Generated_Source\PSoC4/CyLib.c **** 
1659:.\Generated_Source\PSoC4/CyLib.c **** 
1660:.\Generated_Source\PSoC4/CyLib.c ****     /*******************************************************************************
1661:.\Generated_Source\PSoC4/CyLib.c ****     * Function Name: CySysClkPllConfigChangeAllowed
1662:.\Generated_Source\PSoC4/CyLib.c ****     ****************************************************************************//**
1663:.\Generated_Source\PSoC4/CyLib.c ****     *
1664:.\Generated_Source\PSoC4/CyLib.c ****     *  The function returns non-zero value if the specified PLL sources the System
1665:.\Generated_Source\PSoC4/CyLib.c ****     *  clock and the PLL is not in the bypass mode.
ARM GAS  C:\Users\Matthew\AppData\Local\Temp\ccRMqeZg.s 			page 46


1666:.\Generated_Source\PSoC4/CyLib.c ****     *
1667:.\Generated_Source\PSoC4/CyLib.c ****     *  This API is available only for PSoC 4200L devices.
1668:.\Generated_Source\PSoC4/CyLib.c ****     *
1669:.\Generated_Source\PSoC4/CyLib.c ****     *  \param PLL:
1670:.\Generated_Source\PSoC4/CyLib.c ****     *   0   PLL#0
1671:.\Generated_Source\PSoC4/CyLib.c ****     *   1   PLL#1
1672:.\Generated_Source\PSoC4/CyLib.c ****     *
1673:.\Generated_Source\PSoC4/CyLib.c ****     * \return Non-zero value when the specified PLL sources the System clock and
1674:.\Generated_Source\PSoC4/CyLib.c ****     * the PLL is not in the bypass mode.
1675:.\Generated_Source\PSoC4/CyLib.c ****     *
1676:.\Generated_Source\PSoC4/CyLib.c ****     *******************************************************************************/
1677:.\Generated_Source\PSoC4/CyLib.c ****     static cystatus CySysClkPllConfigChangeAllowed(uint32 pll)
1678:.\Generated_Source\PSoC4/CyLib.c ****     {
1679:.\Generated_Source\PSoC4/CyLib.c ****         uint32   pllBypassMode;
1680:.\Generated_Source\PSoC4/CyLib.c ****         uint32   sysclkSource;
1681:.\Generated_Source\PSoC4/CyLib.c ****         cystatus returnValue = CYRET_LOCKED;
1682:.\Generated_Source\PSoC4/CyLib.c **** 
1683:.\Generated_Source\PSoC4/CyLib.c ****         sysclkSource  = CySysClkGetSysclkSource();
1684:.\Generated_Source\PSoC4/CyLib.c ****         pllBypassMode = CySysClkPllGetBypassMode(pll);
1685:.\Generated_Source\PSoC4/CyLib.c **** 
1686:.\Generated_Source\PSoC4/CyLib.c ****         if ((CY_SYS_PLL_BYPASS_PLL_REF == pllBypassMode)             ||
1687:.\Generated_Source\PSoC4/CyLib.c ****             ((CY_SYS_CLK_HFCLK_PLL0 != sysclkSource) && (0u == pll)) ||
1688:.\Generated_Source\PSoC4/CyLib.c ****             ((CY_SYS_CLK_HFCLK_PLL1 != sysclkSource) && (1u == pll)))
1689:.\Generated_Source\PSoC4/CyLib.c ****         {
1690:.\Generated_Source\PSoC4/CyLib.c ****             returnValue = CYRET_SUCCESS;
1691:.\Generated_Source\PSoC4/CyLib.c ****         }
1692:.\Generated_Source\PSoC4/CyLib.c **** 
1693:.\Generated_Source\PSoC4/CyLib.c ****         return (returnValue);
1694:.\Generated_Source\PSoC4/CyLib.c ****     }
1695:.\Generated_Source\PSoC4/CyLib.c **** 
1696:.\Generated_Source\PSoC4/CyLib.c **** 
1697:.\Generated_Source\PSoC4/CyLib.c ****     /*******************************************************************************
1698:.\Generated_Source\PSoC4/CyLib.c ****     * Function Name: CySysClkPllGetUnlockStatus
1699:.\Generated_Source\PSoC4/CyLib.c ****     ****************************************************************************//**
1700:.\Generated_Source\PSoC4/CyLib.c ****     *
1701:.\Generated_Source\PSoC4/CyLib.c ****     *  Returns a non-zero value if the specified PLL output was unlocked.
1702:.\Generated_Source\PSoC4/CyLib.c ****     *  The unlock status is an indicator that the PLL has lost a lock at least once
1703:.\Generated_Source\PSoC4/CyLib.c ****     *  during its operation. The unlock status is cleared once it is read using
1704:.\Generated_Source\PSoC4/CyLib.c ****     *  this API.
1705:.\Generated_Source\PSoC4/CyLib.c ****     *
1706:.\Generated_Source\PSoC4/CyLib.c ****     *  This API is available only for PSoC 4200L devices.
1707:.\Generated_Source\PSoC4/CyLib.c ****     *
1708:.\Generated_Source\PSoC4/CyLib.c ****     *  \param PLL:
1709:.\Generated_Source\PSoC4/CyLib.c ****     *   0   PLL#0
1710:.\Generated_Source\PSoC4/CyLib.c ****     *   1   PLL#1
1711:.\Generated_Source\PSoC4/CyLib.c ****     *
1712:.\Generated_Source\PSoC4/CyLib.c ****     * \return Non-zero value when the specified PLL was unlocked.
1713:.\Generated_Source\PSoC4/CyLib.c ****     *
1714:.\Generated_Source\PSoC4/CyLib.c ****     *******************************************************************************/
1715:.\Generated_Source\PSoC4/CyLib.c ****     uint32 CySysClkPllGetUnlockStatus(uint32 pll)
1716:.\Generated_Source\PSoC4/CyLib.c ****     {
1717:.\Generated_Source\PSoC4/CyLib.c ****         uint32 returnStatus = 0u;
1718:.\Generated_Source\PSoC4/CyLib.c ****         uint8  interruptState;
1719:.\Generated_Source\PSoC4/CyLib.c **** 
1720:.\Generated_Source\PSoC4/CyLib.c ****         interruptState = CyEnterCriticalSection();
1721:.\Generated_Source\PSoC4/CyLib.c **** 
1722:.\Generated_Source\PSoC4/CyLib.c ****         returnStatus = CY_SYS_CLK_PLL_BASE.pll[pll].test & CY_SYS_CLK_PLL_TEST_UNLOCK_OCCURRED_MASK
ARM GAS  C:\Users\Matthew\AppData\Local\Temp\ccRMqeZg.s 			page 47


1723:.\Generated_Source\PSoC4/CyLib.c ****         CY_SYS_CLK_PLL_BASE.pll[pll].test |= CY_SYS_CLK_PLL_TEST_UNLOCK_OCCURRED_MASK;
1724:.\Generated_Source\PSoC4/CyLib.c **** 
1725:.\Generated_Source\PSoC4/CyLib.c ****         CyExitCriticalSection(interruptState);
1726:.\Generated_Source\PSoC4/CyLib.c **** 
1727:.\Generated_Source\PSoC4/CyLib.c ****         return (returnStatus);
1728:.\Generated_Source\PSoC4/CyLib.c ****     }
1729:.\Generated_Source\PSoC4/CyLib.c **** 
1730:.\Generated_Source\PSoC4/CyLib.c **** 
1731:.\Generated_Source\PSoC4/CyLib.c ****     /*******************************************************************************
1732:.\Generated_Source\PSoC4/CyLib.c ****     * Function Name: CySysClkPllSetFrequency
1733:.\Generated_Source\PSoC4/CyLib.c ****     ****************************************************************************//**
1734:.\Generated_Source\PSoC4/CyLib.c ****     *
1735:.\Generated_Source\PSoC4/CyLib.c ****     * Configures either PLL#0 or PLL#1 for the requested input/output frequencies.
1736:.\Generated_Source\PSoC4/CyLib.c ****     * The input frequency is the frequency of the source to the PLL. The source is
1737:.\Generated_Source\PSoC4/CyLib.c ****     * set using the CySysClkPllSetSource() function.
1738:.\Generated_Source\PSoC4/CyLib.c ****     *
1739:.\Generated_Source\PSoC4/CyLib.c ****     * The PLL must not be the system clock source when calling this function. The
1740:.\Generated_Source\PSoC4/CyLib.c ****     * PLL output will glitch during this function call.
1741:.\Generated_Source\PSoC4/CyLib.c ****     *
1742:.\Generated_Source\PSoC4/CyLib.c ****     * This API is available only for PSoC 4200L devices.
1743:.\Generated_Source\PSoC4/CyLib.c ****     *
1744:.\Generated_Source\PSoC4/CyLib.c ****     * \param pll:
1745:.\Generated_Source\PSoC4/CyLib.c ****     *  0   PLL#0
1746:.\Generated_Source\PSoC4/CyLib.c ****     *  1   PLL#1
1747:.\Generated_Source\PSoC4/CyLib.c ****     *
1748:.\Generated_Source\PSoC4/CyLib.c ****     * \param inputFreq The reference frequency in KHz. The valid range is from 1000 to 49152 KHz.
1749:.\Generated_Source\PSoC4/CyLib.c ****     *
1750:.\Generated_Source\PSoC4/CyLib.c ****     * \param pllFreq The target frequency in KHz. The valid range is from 22500 to 49152 KHz.
1751:.\Generated_Source\PSoC4/CyLib.c ****     *
1752:.\Generated_Source\PSoC4/CyLib.c ****     * \param divider The output clock divider for the PLL:
1753:.\Generated_Source\PSoC4/CyLib.c ****     * CY_SYS_PLL_OUTPUT_DIVPASS    Pass Through
1754:.\Generated_Source\PSoC4/CyLib.c ****     * CY_SYS_PLL_OUTPUT_DIV2       Divide by 2
1755:.\Generated_Source\PSoC4/CyLib.c ****     * CY_SYS_PLL_OUTPUT_DIV4       Divide by 4
1756:.\Generated_Source\PSoC4/CyLib.c ****     * CY_SYS_PLL_OUTPUT_DIV8       Divide by 8
1757:.\Generated_Source\PSoC4/CyLib.c ****     *
1758:.\Generated_Source\PSoC4/CyLib.c ****     * \param freqTol The tolerance in ppm, 10 ppm is equal to 0.001%.
1759:.\Generated_Source\PSoC4/CyLib.c ****     *
1760:.\Generated_Source\PSoC4/CyLib.c ****     * \return CYRET_SUCCESS The PLL was successfully configured for the requested
1761:.\Generated_Source\PSoC4/CyLib.c ****     * frequency.
1762:.\Generated_Source\PSoC4/CyLib.c ****     *
1763:.\Generated_Source\PSoC4/CyLib.c ****     * \return CYRET_BAD_PARAM The PLL was not able to successfully configure for the
1764:.\Generated_Source\PSoC4/CyLib.c ****     * requested frequency.
1765:.\Generated_Source\PSoC4/CyLib.c ****     *
1766:.\Generated_Source\PSoC4/CyLib.c ****     *******************************************************************************/
1767:.\Generated_Source\PSoC4/CyLib.c ****     cystatus CySysClkPllSetFrequency(uint32 pll, uint32 inputFreq, uint32 pllFreq, uint32 divider, 
1768:.\Generated_Source\PSoC4/CyLib.c ****     {
1769:.\Generated_Source\PSoC4/CyLib.c ****         uint32 qMin;
1770:.\Generated_Source\PSoC4/CyLib.c ****         uint32 qMax;
1771:.\Generated_Source\PSoC4/CyLib.c **** 
1772:.\Generated_Source\PSoC4/CyLib.c ****         uint32 qVal = CY_SYS_CLK_PLL_INVALID;
1773:.\Generated_Source\PSoC4/CyLib.c ****         uint32 pVal = CY_SYS_CLK_PLL_INVALID;
1774:.\Generated_Source\PSoC4/CyLib.c **** 
1775:.\Generated_Source\PSoC4/CyLib.c ****         uint32 q;
1776:.\Generated_Source\PSoC4/CyLib.c ****         uint32 p;
1777:.\Generated_Source\PSoC4/CyLib.c **** 
1778:.\Generated_Source\PSoC4/CyLib.c ****         uint32 fvco;
1779:.\Generated_Source\PSoC4/CyLib.c ****         int32 ferr;
ARM GAS  C:\Users\Matthew\AppData\Local\Temp\ccRMqeZg.s 			page 48


1780:.\Generated_Source\PSoC4/CyLib.c **** 
1781:.\Generated_Source\PSoC4/CyLib.c ****         cystatus tmp;
1782:.\Generated_Source\PSoC4/CyLib.c ****         cystatus returnStatus = CYRET_BAD_PARAM;
1783:.\Generated_Source\PSoC4/CyLib.c **** 
1784:.\Generated_Source\PSoC4/CyLib.c **** 
1785:.\Generated_Source\PSoC4/CyLib.c ****         tmp = CySysClkPllConfigChangeAllowed(pll);
1786:.\Generated_Source\PSoC4/CyLib.c **** 
1787:.\Generated_Source\PSoC4/CyLib.c ****         if ((pll < CY_IP_PLL_NR) &&
1788:.\Generated_Source\PSoC4/CyLib.c ****             (inputFreq  >= CY_SYS_CLK_PLL_INPUT_FREQ_MIN )  && (inputFreq  <= CY_SYS_CLK_PLL_INPUT_
1789:.\Generated_Source\PSoC4/CyLib.c ****             (pllFreq >= CY_SYS_CLK_PLL_OUTPUT_FREQ_MIN ) && (pllFreq <= CY_SYS_CLK_PLL_OUTPUT_FREQ_
1790:.\Generated_Source\PSoC4/CyLib.c ****             (divider <= CY_SYS_PLL_OUTPUT_DIV8) &&
1791:.\Generated_Source\PSoC4/CyLib.c ****             (CYRET_SUCCESS == tmp))
1792:.\Generated_Source\PSoC4/CyLib.c ****         {
1793:.\Generated_Source\PSoC4/CyLib.c **** 
1794:.\Generated_Source\PSoC4/CyLib.c ****             /* Minimum feed forward loop divisor */
1795:.\Generated_Source\PSoC4/CyLib.c ****             qMin = (inputFreq + (CY_SYS_CLK_PLL_FPFDMAX - 1u)) / CY_SYS_CLK_PLL_FPFDMAX;
1796:.\Generated_Source\PSoC4/CyLib.c ****             qMin = (qMin < CY_SYS_CLK_PLL_QMINIP) ? CY_SYS_CLK_PLL_QMINIP : qMin;
1797:.\Generated_Source\PSoC4/CyLib.c **** 
1798:.\Generated_Source\PSoC4/CyLib.c ****             /* Maximum feed forward loop divisor */
1799:.\Generated_Source\PSoC4/CyLib.c ****             qMax = inputFreq / CY_SYS_CLK_PLL_FPFDMIN;
1800:.\Generated_Source\PSoC4/CyLib.c ****             qMax = (qMax > CY_SYS_CLK_PLL_QMAXIP) ? CY_SYS_CLK_PLL_QMAXIP : qMax;
1801:.\Generated_Source\PSoC4/CyLib.c **** 
1802:.\Generated_Source\PSoC4/CyLib.c ****             if (qMin <= qMax)
1803:.\Generated_Source\PSoC4/CyLib.c ****             {
1804:.\Generated_Source\PSoC4/CyLib.c ****                 for(q = qMin; q <= qMax; q++)
1805:.\Generated_Source\PSoC4/CyLib.c ****                 {
1806:.\Generated_Source\PSoC4/CyLib.c ****                     /* Solve for the feedback divisor value */
1807:.\Generated_Source\PSoC4/CyLib.c **** 
1808:.\Generated_Source\PSoC4/CyLib.c ****                     /* INT((pllFreq * q ) / inputFreq), where INT is normal rounding  */
1809:.\Generated_Source\PSoC4/CyLib.c ****                     p = ((pllFreq * q) + (inputFreq / 2u)) / inputFreq;
1810:.\Generated_Source\PSoC4/CyLib.c **** 
1811:.\Generated_Source\PSoC4/CyLib.c ****                     /* Calculate the actual VCO frequency (FVCO) */
1812:.\Generated_Source\PSoC4/CyLib.c ****                     fvco = ((inputFreq * p) / q);
1813:.\Generated_Source\PSoC4/CyLib.c **** 
1814:.\Generated_Source\PSoC4/CyLib.c ****                     /* Calculate the frequency error (FERR) */
1815:.\Generated_Source\PSoC4/CyLib.c ****                     ferr = ((1000000 * ((int32) fvco - (int32) pllFreq))/ (int32) pllFreq);
1816:.\Generated_Source\PSoC4/CyLib.c **** 
1817:.\Generated_Source\PSoC4/CyLib.c ****                     /* Bound check the frequency error and decide next action */
1818:.\Generated_Source\PSoC4/CyLib.c ****                     if ((( -1 * (int32) freqTol) <= ferr) && (ferr <= (int32) freqTol))
1819:.\Generated_Source\PSoC4/CyLib.c ****                     {
1820:.\Generated_Source\PSoC4/CyLib.c ****                         qVal = q;
1821:.\Generated_Source\PSoC4/CyLib.c ****                         pVal = p;
1822:.\Generated_Source\PSoC4/CyLib.c ****                         break;
1823:.\Generated_Source\PSoC4/CyLib.c ****                     }
1824:.\Generated_Source\PSoC4/CyLib.c ****                 }
1825:.\Generated_Source\PSoC4/CyLib.c **** 
1826:.\Generated_Source\PSoC4/CyLib.c **** 
1827:.\Generated_Source\PSoC4/CyLib.c ****                 if ((pVal != CY_SYS_CLK_PLL_INVALID) && (qVal != CY_SYS_CLK_PLL_INVALID))
1828:.\Generated_Source\PSoC4/CyLib.c ****                 {
1829:.\Generated_Source\PSoC4/CyLib.c ****                     if (CySysClkPllSetPQ(pll, pVal, qVal, CY_SYS_CLK_PLL_CURRENT_DEFAULT) == CYRET_
1830:.\Generated_Source\PSoC4/CyLib.c ****                     {
1831:.\Generated_Source\PSoC4/CyLib.c ****                         returnStatus = CySysClkPllSetOutputDivider(pll, divider);
1832:.\Generated_Source\PSoC4/CyLib.c ****                     }
1833:.\Generated_Source\PSoC4/CyLib.c ****                 }
1834:.\Generated_Source\PSoC4/CyLib.c ****             }
1835:.\Generated_Source\PSoC4/CyLib.c **** 
1836:.\Generated_Source\PSoC4/CyLib.c ****         }
ARM GAS  C:\Users\Matthew\AppData\Local\Temp\ccRMqeZg.s 			page 49


1837:.\Generated_Source\PSoC4/CyLib.c **** 
1838:.\Generated_Source\PSoC4/CyLib.c ****         return (returnStatus);
1839:.\Generated_Source\PSoC4/CyLib.c ****     }
1840:.\Generated_Source\PSoC4/CyLib.c **** 
1841:.\Generated_Source\PSoC4/CyLib.c **** 
1842:.\Generated_Source\PSoC4/CyLib.c ****     /*******************************************************************************
1843:.\Generated_Source\PSoC4/CyLib.c ****     * Function Name: CySysClkPllSetSource
1844:.\Generated_Source\PSoC4/CyLib.c ****     ****************************************************************************//**
1845:.\Generated_Source\PSoC4/CyLib.c ****     *
1846:.\Generated_Source\PSoC4/CyLib.c ****     *  Sets the input clock source to the PLL. The PLL must be disabled before
1847:.\Generated_Source\PSoC4/CyLib.c ****     *  calling this function.
1848:.\Generated_Source\PSoC4/CyLib.c ****     *
1849:.\Generated_Source\PSoC4/CyLib.c ****     *  This API is available only for PSoC 4200L devices.
1850:.\Generated_Source\PSoC4/CyLib.c ****     *
1851:.\Generated_Source\PSoC4/CyLib.c ****     *  \param PLL:
1852:.\Generated_Source\PSoC4/CyLib.c ****     *  0   PLL#0
1853:.\Generated_Source\PSoC4/CyLib.c ****     *  1   PLL#1
1854:.\Generated_Source\PSoC4/CyLib.c ****     *
1855:.\Generated_Source\PSoC4/CyLib.c ****     * \param source:
1856:.\Generated_Source\PSoC4/CyLib.c ****     *  CY_SYS_PLL_SOURCE_IMO        IMO
1857:.\Generated_Source\PSoC4/CyLib.c ****     *  CY_SYS_PLL_SOURCE_EXTCLK     External Clock
1858:.\Generated_Source\PSoC4/CyLib.c ****     *  CY_SYS_PLL_SOURCE_ECO        ECO
1859:.\Generated_Source\PSoC4/CyLib.c ****     *  CY_SYS_PLL_SOURCE_DSI0       DSI_OUT[0]
1860:.\Generated_Source\PSoC4/CyLib.c ****     *  CY_SYS_PLL_SOURCE_DSI1       DSI_OUT[1]
1861:.\Generated_Source\PSoC4/CyLib.c ****     *  CY_SYS_PLL_SOURCE_DSI2       DSI_OUT[2]
1862:.\Generated_Source\PSoC4/CyLib.c ****     *  CY_SYS_PLL_SOURCE_DSI3       DSI_OUT[3]
1863:.\Generated_Source\PSoC4/CyLib.c ****     *
1864:.\Generated_Source\PSoC4/CyLib.c ****     *******************************************************************************/
1865:.\Generated_Source\PSoC4/CyLib.c ****     void CySysClkPllSetSource(uint32 pll, uint32 source)
1866:.\Generated_Source\PSoC4/CyLib.c ****     {
1867:.\Generated_Source\PSoC4/CyLib.c ****         uint32 regTmp;
1868:.\Generated_Source\PSoC4/CyLib.c ****         uint8  interruptState;
1869:.\Generated_Source\PSoC4/CyLib.c **** 
1870:.\Generated_Source\PSoC4/CyLib.c ****         interruptState = CyEnterCriticalSection();
1871:.\Generated_Source\PSoC4/CyLib.c **** 
1872:.\Generated_Source\PSoC4/CyLib.c ****         if (pll < CY_IP_PLL_NR)
1873:.\Generated_Source\PSoC4/CyLib.c ****         {
1874:.\Generated_Source\PSoC4/CyLib.c ****             regTmp = CY_SYS_CLK_SELECT_REG & (uint32) ~CY_SYS_CLK_SELECT_PLL_MASK(pll);
1875:.\Generated_Source\PSoC4/CyLib.c ****             regTmp |= ((source << CY_SYS_CLK_SELECT_PLL_SHIFT(pll)) & CY_SYS_CLK_SELECT_PLL_MASK(pl
1876:.\Generated_Source\PSoC4/CyLib.c ****             CY_SYS_CLK_SELECT_REG = regTmp;
1877:.\Generated_Source\PSoC4/CyLib.c ****         }
1878:.\Generated_Source\PSoC4/CyLib.c **** 
1879:.\Generated_Source\PSoC4/CyLib.c ****         CyExitCriticalSection(interruptState);
1880:.\Generated_Source\PSoC4/CyLib.c ****     }
1881:.\Generated_Source\PSoC4/CyLib.c **** 
1882:.\Generated_Source\PSoC4/CyLib.c **** 
1883:.\Generated_Source\PSoC4/CyLib.c ****     /*******************************************************************************
1884:.\Generated_Source\PSoC4/CyLib.c ****     * Function Name: CySysClkPllSetOutputDivider
1885:.\Generated_Source\PSoC4/CyLib.c ****     ****************************************************************************//**
1886:.\Generated_Source\PSoC4/CyLib.c ****     *
1887:.\Generated_Source\PSoC4/CyLib.c ****     *  Sets the output clock divider for the PLL.
1888:.\Generated_Source\PSoC4/CyLib.c ****     *
1889:.\Generated_Source\PSoC4/CyLib.c ****     *  The PLL must not be the System Clock source when calling this function. The
1890:.\Generated_Source\PSoC4/CyLib.c ****     *  PLL output will glitch during this function call.
1891:.\Generated_Source\PSoC4/CyLib.c ****     *
1892:.\Generated_Source\PSoC4/CyLib.c ****     *  This API is available only for PSoC 4200L devices.
1893:.\Generated_Source\PSoC4/CyLib.c ****     *
ARM GAS  C:\Users\Matthew\AppData\Local\Temp\ccRMqeZg.s 			page 50


1894:.\Generated_Source\PSoC4/CyLib.c ****     *  \param PLL:
1895:.\Generated_Source\PSoC4/CyLib.c ****     *   0   PLL#0
1896:.\Generated_Source\PSoC4/CyLib.c ****     *   1   PLL#1
1897:.\Generated_Source\PSoC4/CyLib.c ****     *
1898:.\Generated_Source\PSoC4/CyLib.c ****     * \param divider:
1899:.\Generated_Source\PSoC4/CyLib.c ****     *  CY_SYS_PLL_OUTPUT_DIVPASS    Pass through
1900:.\Generated_Source\PSoC4/CyLib.c ****     *  CY_SYS_PLL_OUTPUT_DIV2       Divide by 2
1901:.\Generated_Source\PSoC4/CyLib.c ****     *  CY_SYS_PLL_OUTPUT_DIV4       Divide by 4
1902:.\Generated_Source\PSoC4/CyLib.c ****     *  CY_SYS_PLL_OUTPUT_DIV8       Divide by 8
1903:.\Generated_Source\PSoC4/CyLib.c ****     *
1904:.\Generated_Source\PSoC4/CyLib.c ****     * \return \ref CYRET_SUCCESS    Completed successfully.
1905:.\Generated_Source\PSoC4/CyLib.c ****     * \return \ref CYRET_BAD_PARAM  The parameters are out of range or the
1906:.\Generated_Source\PSoC4/CyLib.c ****     * specified PLL sources the System clock.
1907:.\Generated_Source\PSoC4/CyLib.c ****     *
1908:.\Generated_Source\PSoC4/CyLib.c ****     *******************************************************************************/
1909:.\Generated_Source\PSoC4/CyLib.c ****     cystatus CySysClkPllSetOutputDivider(uint32 pll, uint32 divider)
1910:.\Generated_Source\PSoC4/CyLib.c ****     {
1911:.\Generated_Source\PSoC4/CyLib.c ****         uint32   tmpReg;
1912:.\Generated_Source\PSoC4/CyLib.c ****         uint8    interruptState;
1913:.\Generated_Source\PSoC4/CyLib.c ****         cystatus returnStatus = CYRET_BAD_PARAM;
1914:.\Generated_Source\PSoC4/CyLib.c ****         cystatus tmp;
1915:.\Generated_Source\PSoC4/CyLib.c **** 
1916:.\Generated_Source\PSoC4/CyLib.c **** 
1917:.\Generated_Source\PSoC4/CyLib.c ****         interruptState = CyEnterCriticalSection();
1918:.\Generated_Source\PSoC4/CyLib.c **** 
1919:.\Generated_Source\PSoC4/CyLib.c ****         tmp = CySysClkPllConfigChangeAllowed(pll);
1920:.\Generated_Source\PSoC4/CyLib.c **** 
1921:.\Generated_Source\PSoC4/CyLib.c ****         if ((pll < CY_IP_PLL_NR) && (CYRET_SUCCESS == tmp) && (divider <= CY_SYS_PLL_OUTPUT_DIV8))
1922:.\Generated_Source\PSoC4/CyLib.c ****         {
1923:.\Generated_Source\PSoC4/CyLib.c ****             tmpReg  = CY_SYS_CLK_PLL_BASE.pll[pll].config & (uint32) ~(CY_SYS_CLK_PLL_CONFIG_OUTPUT
1924:.\Generated_Source\PSoC4/CyLib.c ****             tmpReg |= ((divider << CY_SYS_CLK_PLL_CONFIG_OUTPUT_DIV_SHIFT) & CY_SYS_CLK_PLL_CONFIG_
1925:.\Generated_Source\PSoC4/CyLib.c **** 
1926:.\Generated_Source\PSoC4/CyLib.c ****             CY_SYS_CLK_PLL_BASE.pll[pll].config = tmpReg;
1927:.\Generated_Source\PSoC4/CyLib.c **** 
1928:.\Generated_Source\PSoC4/CyLib.c ****             returnStatus = CYRET_SUCCESS;
1929:.\Generated_Source\PSoC4/CyLib.c ****         }
1930:.\Generated_Source\PSoC4/CyLib.c **** 
1931:.\Generated_Source\PSoC4/CyLib.c ****         CyExitCriticalSection(interruptState);
1932:.\Generated_Source\PSoC4/CyLib.c **** 
1933:.\Generated_Source\PSoC4/CyLib.c ****         return (returnStatus);
1934:.\Generated_Source\PSoC4/CyLib.c ****     }
1935:.\Generated_Source\PSoC4/CyLib.c **** #endif /* (CY_IP_SRSSV2 && CY_IP_PLL) */
1936:.\Generated_Source\PSoC4/CyLib.c **** 
1937:.\Generated_Source\PSoC4/CyLib.c **** 
1938:.\Generated_Source\PSoC4/CyLib.c **** #if(CY_IP_SRSSV2)
1939:.\Generated_Source\PSoC4/CyLib.c **** 
1940:.\Generated_Source\PSoC4/CyLib.c ****     /*******************************************************************************
1941:.\Generated_Source\PSoC4/CyLib.c ****     * Function Name: CySysLvdEnable
1942:.\Generated_Source\PSoC4/CyLib.c ****     ****************************************************************************//**
1943:.\Generated_Source\PSoC4/CyLib.c ****     *
1944:.\Generated_Source\PSoC4/CyLib.c ****     *  Enables the output of the low-voltage monitor when Vddd is at or below the
1945:.\Generated_Source\PSoC4/CyLib.c ****     *  trip point, configures the device to generate an interrupt, and sets the
1946:.\Generated_Source\PSoC4/CyLib.c ****     *  voltage trip level.
1947:.\Generated_Source\PSoC4/CyLib.c ****     *
1948:.\Generated_Source\PSoC4/CyLib.c ****     *  \param threshold: Threshold selection for Low Voltage Detect circuit.
1949:.\Generated_Source\PSoC4/CyLib.c ****     *  Threshold variation is +/- 2.5% from these typical voltage choices.
1950:.\Generated_Source\PSoC4/CyLib.c ****     *         Define                     Voltage threshold
ARM GAS  C:\Users\Matthew\AppData\Local\Temp\ccRMqeZg.s 			page 51


1951:.\Generated_Source\PSoC4/CyLib.c ****     *    CY_LVD_THRESHOLD_1_75_V       1.7500 V
1952:.\Generated_Source\PSoC4/CyLib.c ****     *    CY_LVD_THRESHOLD_1_80_V       1.8000 V
1953:.\Generated_Source\PSoC4/CyLib.c ****     *    CY_LVD_THRESHOLD_1_90_V       1.9000 V
1954:.\Generated_Source\PSoC4/CyLib.c ****     *    CY_LVD_THRESHOLD_2_00_V       2.0000 V
1955:.\Generated_Source\PSoC4/CyLib.c ****     *    CY_LVD_THRESHOLD_2_10_V       2.1000 V
1956:.\Generated_Source\PSoC4/CyLib.c ****     *    CY_LVD_THRESHOLD_2_20_V       2.2000 V
1957:.\Generated_Source\PSoC4/CyLib.c ****     *    CY_LVD_THRESHOLD_2_30_V       2.3000 V
1958:.\Generated_Source\PSoC4/CyLib.c ****     *    CY_LVD_THRESHOLD_2_40_V       2.4000 V
1959:.\Generated_Source\PSoC4/CyLib.c ****     *    CY_LVD_THRESHOLD_2_50_V       2.5000 V
1960:.\Generated_Source\PSoC4/CyLib.c ****     *    CY_LVD_THRESHOLD_2_60_V       2.6000 V
1961:.\Generated_Source\PSoC4/CyLib.c ****     *    CY_LVD_THRESHOLD_2_70_V       2.7000 V
1962:.\Generated_Source\PSoC4/CyLib.c ****     *    CY_LVD_THRESHOLD_2_80_V       2.8000 V
1963:.\Generated_Source\PSoC4/CyLib.c ****     *    CY_LVD_THRESHOLD_2_90_V       2.9000 V
1964:.\Generated_Source\PSoC4/CyLib.c ****     *    CY_LVD_THRESHOLD_3_00_V       3.0000 V
1965:.\Generated_Source\PSoC4/CyLib.c ****     *    CY_LVD_THRESHOLD_3_20_V       3.2000 V
1966:.\Generated_Source\PSoC4/CyLib.c ****     *    CY_LVD_THRESHOLD_4_50_V       4.5000 V
1967:.\Generated_Source\PSoC4/CyLib.c ****     *
1968:.\Generated_Source\PSoC4/CyLib.c ****     *******************************************************************************/
1969:.\Generated_Source\PSoC4/CyLib.c ****     void CySysLvdEnable(uint32 threshold)
1970:.\Generated_Source\PSoC4/CyLib.c ****     {
 891              		.loc 1 1970 0
 892              		.cfi_startproc
 893 0000 80B5     		push	{r7, lr}
 894              		.cfi_def_cfa_offset 8
 895              		.cfi_offset 7, -8
 896              		.cfi_offset 14, -4
 897 0002 82B0     		sub	sp, sp, #8
 898              		.cfi_def_cfa_offset 16
 899 0004 00AF     		add	r7, sp, #0
 900              		.cfi_def_cfa_register 7
 901 0006 7860     		str	r0, [r7, #4]
1971:.\Generated_Source\PSoC4/CyLib.c ****         /* Prevent propagating a false interrupt */
1972:.\Generated_Source\PSoC4/CyLib.c ****         CY_LVD_PWR_INTR_MASK_REG   &= (uint32) ~CY_LVD_PROPAGATE_INT_TO_CPU;
 902              		.loc 1 1972 0
 903 0008 134B     		ldr	r3, .L52
 904 000a 134A     		ldr	r2, .L52
 905 000c 1268     		ldr	r2, [r2]
 906 000e 0221     		mov	r1, #2
 907 0010 8A43     		bic	r2, r1
 908 0012 1A60     		str	r2, [r3]
1973:.\Generated_Source\PSoC4/CyLib.c **** 
1974:.\Generated_Source\PSoC4/CyLib.c ****         /* Set specified threshold */
1975:.\Generated_Source\PSoC4/CyLib.c ****         CY_LVD_PWR_VMON_CONFIG_REG = (CY_LVD_PWR_VMON_CONFIG_REG & ~CY_LVD_PWR_VMON_CONFIG_LVD_SEL_
 909              		.loc 1 1975 0
 910 0014 114B     		ldr	r3, .L52+4
 911 0016 114A     		ldr	r2, .L52+4
 912 0018 1268     		ldr	r2, [r2]
 913 001a 1E21     		mov	r1, #30
 914 001c 8A43     		bic	r2, r1
 915 001e 111C     		mov	r1, r2
1976:.\Generated_Source\PSoC4/CyLib.c ****                 ((threshold << CY_LVD_PWR_VMON_CONFIG_LVD_SEL_SHIFT) & CY_LVD_PWR_VMON_CONFIG_LVD_S
 916              		.loc 1 1976 0
 917 0020 7A68     		ldr	r2, [r7, #4]
 918 0022 5200     		lsl	r2, r2, #1
 919 0024 1E20     		mov	r0, #30
 920 0026 0240     		and	r2, r0
1975:.\Generated_Source\PSoC4/CyLib.c ****                 ((threshold << CY_LVD_PWR_VMON_CONFIG_LVD_SEL_SHIFT) & CY_LVD_PWR_VMON_CONFIG_LVD_S
ARM GAS  C:\Users\Matthew\AppData\Local\Temp\ccRMqeZg.s 			page 52


 921              		.loc 1 1975 0
 922 0028 0A43     		orr	r2, r1
 923 002a 1A60     		str	r2, [r3]
1977:.\Generated_Source\PSoC4/CyLib.c **** 
1978:.\Generated_Source\PSoC4/CyLib.c ****         /* Enable the LVD. This may cause a false LVD event. */
1979:.\Generated_Source\PSoC4/CyLib.c ****         CY_LVD_PWR_VMON_CONFIG_REG |= CY_LVD_PWR_VMON_CONFIG_LVD_EN;
 924              		.loc 1 1979 0
 925 002c 0B4B     		ldr	r3, .L52+4
 926 002e 0B4A     		ldr	r2, .L52+4
 927 0030 1268     		ldr	r2, [r2]
 928 0032 0121     		mov	r1, #1
 929 0034 0A43     		orr	r2, r1
 930 0036 1A60     		str	r2, [r3]
1980:.\Generated_Source\PSoC4/CyLib.c **** 
1981:.\Generated_Source\PSoC4/CyLib.c ****         /* Wait for the circuit to stabilize */
1982:.\Generated_Source\PSoC4/CyLib.c ****         CyDelayUs(CY_LVD_STABILIZE_TIMEOUT_US);
 931              		.loc 1 1982 0
 932 0038 FA23     		mov	r3, #250
 933 003a 9B00     		lsl	r3, r3, #2
 934 003c 181C     		mov	r0, r3
 935 003e FFF7FEFF 		bl	CyDelayUs
1983:.\Generated_Source\PSoC4/CyLib.c **** 
1984:.\Generated_Source\PSoC4/CyLib.c ****         /* Clear the false event */
1985:.\Generated_Source\PSoC4/CyLib.c ****         CySysLvdClearInterrupt();
 936              		.loc 1 1985 0
 937 0042 FFF7FEFF 		bl	CySysLvdClearInterrupt
1986:.\Generated_Source\PSoC4/CyLib.c **** 
1987:.\Generated_Source\PSoC4/CyLib.c ****         /* Unmask the interrupt */
1988:.\Generated_Source\PSoC4/CyLib.c ****         CY_LVD_PWR_INTR_MASK_REG   |= CY_LVD_PROPAGATE_INT_TO_CPU;
 938              		.loc 1 1988 0
 939 0046 044B     		ldr	r3, .L52
 940 0048 034A     		ldr	r2, .L52
 941 004a 1268     		ldr	r2, [r2]
 942 004c 0221     		mov	r1, #2
 943 004e 0A43     		orr	r2, r1
 944 0050 1A60     		str	r2, [r3]
1989:.\Generated_Source\PSoC4/CyLib.c ****     }
 945              		.loc 1 1989 0
 946 0052 BD46     		mov	sp, r7
 947 0054 02B0     		add	sp, sp, #8
 948              		@ sp needed
 949 0056 80BD     		pop	{r7, pc}
 950              	.L53:
 951              		.align	2
 952              	.L52:
 953 0058 08000B40 		.word	1074462728
 954 005c 18000B40 		.word	1074462744
 955              		.cfi_endproc
 956              	.LFE12:
 957              		.size	CySysLvdEnable, .-CySysLvdEnable
 958              		.section	.text.CySysLvdDisable,"ax",%progbits
 959              		.align	2
 960              		.global	CySysLvdDisable
 961              		.code	16
 962              		.thumb_func
 963              		.type	CySysLvdDisable, %function
 964              	CySysLvdDisable:
ARM GAS  C:\Users\Matthew\AppData\Local\Temp\ccRMqeZg.s 			page 53


 965              	.LFB13:
1990:.\Generated_Source\PSoC4/CyLib.c **** 
1991:.\Generated_Source\PSoC4/CyLib.c **** 
1992:.\Generated_Source\PSoC4/CyLib.c ****     /*******************************************************************************
1993:.\Generated_Source\PSoC4/CyLib.c ****     * Function Name: CySysLvdDisable
1994:.\Generated_Source\PSoC4/CyLib.c ****     ****************************************************************************//**
1995:.\Generated_Source\PSoC4/CyLib.c ****     *
1996:.\Generated_Source\PSoC4/CyLib.c ****     *  Disables the low voltage detection. A low voltage interrupt is disabled.
1997:.\Generated_Source\PSoC4/CyLib.c ****     *
1998:.\Generated_Source\PSoC4/CyLib.c ****     *******************************************************************************/
1999:.\Generated_Source\PSoC4/CyLib.c ****     void CySysLvdDisable(void)
2000:.\Generated_Source\PSoC4/CyLib.c ****     {
 966              		.loc 1 2000 0
 967              		.cfi_startproc
 968 0000 80B5     		push	{r7, lr}
 969              		.cfi_def_cfa_offset 8
 970              		.cfi_offset 7, -8
 971              		.cfi_offset 14, -4
 972 0002 00AF     		add	r7, sp, #0
 973              		.cfi_def_cfa_register 7
2001:.\Generated_Source\PSoC4/CyLib.c ****         CY_LVD_PWR_INTR_MASK_REG   &= ~CY_LVD_PROPAGATE_INT_TO_CPU;
 974              		.loc 1 2001 0
 975 0004 064B     		ldr	r3, .L55
 976 0006 064A     		ldr	r2, .L55
 977 0008 1268     		ldr	r2, [r2]
 978 000a 0221     		mov	r1, #2
 979 000c 8A43     		bic	r2, r1
 980 000e 1A60     		str	r2, [r3]
2002:.\Generated_Source\PSoC4/CyLib.c ****         CY_LVD_PWR_VMON_CONFIG_REG &= ~CY_LVD_PWR_VMON_CONFIG_LVD_EN;
 981              		.loc 1 2002 0
 982 0010 044B     		ldr	r3, .L55+4
 983 0012 044A     		ldr	r2, .L55+4
 984 0014 1268     		ldr	r2, [r2]
 985 0016 0121     		mov	r1, #1
 986 0018 8A43     		bic	r2, r1
 987 001a 1A60     		str	r2, [r3]
2003:.\Generated_Source\PSoC4/CyLib.c ****     }
 988              		.loc 1 2003 0
 989 001c BD46     		mov	sp, r7
 990              		@ sp needed
 991 001e 80BD     		pop	{r7, pc}
 992              	.L56:
 993              		.align	2
 994              	.L55:
 995 0020 08000B40 		.word	1074462728
 996 0024 18000B40 		.word	1074462744
 997              		.cfi_endproc
 998              	.LFE13:
 999              		.size	CySysLvdDisable, .-CySysLvdDisable
 1000              		.section	.text.CySysLvdGetInterruptSource,"ax",%progbits
 1001              		.align	2
 1002              		.global	CySysLvdGetInterruptSource
 1003              		.code	16
 1004              		.thumb_func
 1005              		.type	CySysLvdGetInterruptSource, %function
 1006              	CySysLvdGetInterruptSource:
 1007              	.LFB14:
ARM GAS  C:\Users\Matthew\AppData\Local\Temp\ccRMqeZg.s 			page 54


2004:.\Generated_Source\PSoC4/CyLib.c **** 
2005:.\Generated_Source\PSoC4/CyLib.c **** 
2006:.\Generated_Source\PSoC4/CyLib.c ****     /*******************************************************************************
2007:.\Generated_Source\PSoC4/CyLib.c ****     * Function Name: CySysLvdGetInterruptSource
2008:.\Generated_Source\PSoC4/CyLib.c ****     ****************************************************************************//**
2009:.\Generated_Source\PSoC4/CyLib.c ****     *
2010:.\Generated_Source\PSoC4/CyLib.c ****     *  Gets the low voltage detection interrupt status (without clearing).
2011:.\Generated_Source\PSoC4/CyLib.c ****     *
2012:.\Generated_Source\PSoC4/CyLib.c ****     * \return
2013:.\Generated_Source\PSoC4/CyLib.c ****     *  Interrupt request value:
2014:.\Generated_Source\PSoC4/CyLib.c ****     *    CY_SYS_LVD_INT - Indicates an Low Voltage Detect interrupt
2015:.\Generated_Source\PSoC4/CyLib.c ****     *
2016:.\Generated_Source\PSoC4/CyLib.c ****     *******************************************************************************/
2017:.\Generated_Source\PSoC4/CyLib.c ****     uint32 CySysLvdGetInterruptSource(void)
2018:.\Generated_Source\PSoC4/CyLib.c ****     {
 1008              		.loc 1 2018 0
 1009              		.cfi_startproc
 1010 0000 80B5     		push	{r7, lr}
 1011              		.cfi_def_cfa_offset 8
 1012              		.cfi_offset 7, -8
 1013              		.cfi_offset 14, -4
 1014 0002 00AF     		add	r7, sp, #0
 1015              		.cfi_def_cfa_register 7
2019:.\Generated_Source\PSoC4/CyLib.c ****         return (CY_LVD_PWR_INTR_REG & CY_SYS_LVD_INT);
 1016              		.loc 1 2019 0
 1017 0004 034B     		ldr	r3, .L59
 1018 0006 1B68     		ldr	r3, [r3]
 1019 0008 0222     		mov	r2, #2
 1020 000a 1340     		and	r3, r2
2020:.\Generated_Source\PSoC4/CyLib.c ****     }
 1021              		.loc 1 2020 0
 1022 000c 181C     		mov	r0, r3
 1023 000e BD46     		mov	sp, r7
 1024              		@ sp needed
 1025 0010 80BD     		pop	{r7, pc}
 1026              	.L60:
 1027 0012 C046     		.align	2
 1028              	.L59:
 1029 0014 04000B40 		.word	1074462724
 1030              		.cfi_endproc
 1031              	.LFE14:
 1032              		.size	CySysLvdGetInterruptSource, .-CySysLvdGetInterruptSource
 1033              		.section	.text.CySysLvdClearInterrupt,"ax",%progbits
 1034              		.align	2
 1035              		.global	CySysLvdClearInterrupt
 1036              		.code	16
 1037              		.thumb_func
 1038              		.type	CySysLvdClearInterrupt, %function
 1039              	CySysLvdClearInterrupt:
 1040              	.LFB15:
2021:.\Generated_Source\PSoC4/CyLib.c **** 
2022:.\Generated_Source\PSoC4/CyLib.c **** 
2023:.\Generated_Source\PSoC4/CyLib.c ****     /*******************************************************************************
2024:.\Generated_Source\PSoC4/CyLib.c ****     * Function Name: CySysLvdClearInterrupt
2025:.\Generated_Source\PSoC4/CyLib.c ****     ****************************************************************************//**
2026:.\Generated_Source\PSoC4/CyLib.c ****     *
2027:.\Generated_Source\PSoC4/CyLib.c ****     *  Clears the low voltage detection interrupt status.
ARM GAS  C:\Users\Matthew\AppData\Local\Temp\ccRMqeZg.s 			page 55


2028:.\Generated_Source\PSoC4/CyLib.c ****     *
2029:.\Generated_Source\PSoC4/CyLib.c ****     * \return
2030:.\Generated_Source\PSoC4/CyLib.c ****     *  None
2031:.\Generated_Source\PSoC4/CyLib.c ****     *
2032:.\Generated_Source\PSoC4/CyLib.c ****     *******************************************************************************/
2033:.\Generated_Source\PSoC4/CyLib.c ****     void CySysLvdClearInterrupt(void)
2034:.\Generated_Source\PSoC4/CyLib.c ****     {
 1041              		.loc 1 2034 0
 1042              		.cfi_startproc
 1043 0000 80B5     		push	{r7, lr}
 1044              		.cfi_def_cfa_offset 8
 1045              		.cfi_offset 7, -8
 1046              		.cfi_offset 14, -4
 1047 0002 00AF     		add	r7, sp, #0
 1048              		.cfi_def_cfa_register 7
2035:.\Generated_Source\PSoC4/CyLib.c ****         CY_LVD_PWR_INTR_REG = CY_SYS_LVD_INT;
 1049              		.loc 1 2035 0
 1050 0004 024B     		ldr	r3, .L62
 1051 0006 0222     		mov	r2, #2
 1052 0008 1A60     		str	r2, [r3]
2036:.\Generated_Source\PSoC4/CyLib.c ****     }
 1053              		.loc 1 2036 0
 1054 000a BD46     		mov	sp, r7
 1055              		@ sp needed
 1056 000c 80BD     		pop	{r7, pc}
 1057              	.L63:
 1058 000e C046     		.align	2
 1059              	.L62:
 1060 0010 04000B40 		.word	1074462724
 1061              		.cfi_endproc
 1062              	.LFE15:
 1063              		.size	CySysLvdClearInterrupt, .-CySysLvdClearInterrupt
 1064              		.section	.text.CySysGetResetReason,"ax",%progbits
 1065              		.align	2
 1066              		.global	CySysGetResetReason
 1067              		.code	16
 1068              		.thumb_func
 1069              		.type	CySysGetResetReason, %function
 1070              	CySysGetResetReason:
 1071              	.LFB16:
2037:.\Generated_Source\PSoC4/CyLib.c **** 
2038:.\Generated_Source\PSoC4/CyLib.c **** #endif /* (CY_IP_SRSSV2) */
2039:.\Generated_Source\PSoC4/CyLib.c **** 
2040:.\Generated_Source\PSoC4/CyLib.c **** 
2041:.\Generated_Source\PSoC4/CyLib.c **** /*******************************************************************************
2042:.\Generated_Source\PSoC4/CyLib.c **** * Function Name: CySysGetResetReason
2043:.\Generated_Source\PSoC4/CyLib.c **** ****************************************************************************//**
2044:.\Generated_Source\PSoC4/CyLib.c **** *
2045:.\Generated_Source\PSoC4/CyLib.c **** *  Reports the cause for the latest reset(s) that occurred in the system. All
2046:.\Generated_Source\PSoC4/CyLib.c **** *  the bits in the RES_CAUSE register assert when the corresponding reset cause
2047:.\Generated_Source\PSoC4/CyLib.c **** *  occurs and must be cleared by the firmware. These bits are cleared by the
2048:.\Generated_Source\PSoC4/CyLib.c **** *  hardware only during XRES, POR, or a detected brown-out.
2049:.\Generated_Source\PSoC4/CyLib.c **** *
2050:.\Generated_Source\PSoC4/CyLib.c **** *  \param reason: bits in the RES_CAUSE register to clear.
2051:.\Generated_Source\PSoC4/CyLib.c **** *   CY_SYS_RESET_WDT       - WDT caused a reset
2052:.\Generated_Source\PSoC4/CyLib.c **** *   CY_SYS_RESET_PROTFAULT - Occured protection violation that requires reset
2053:.\Generated_Source\PSoC4/CyLib.c **** *   CY_SYS_RESET_SW        - Cortex-M0 requested a system reset.
ARM GAS  C:\Users\Matthew\AppData\Local\Temp\ccRMqeZg.s 			page 56


2054:.\Generated_Source\PSoC4/CyLib.c **** *
2055:.\Generated_Source\PSoC4/CyLib.c **** * \return
2056:.\Generated_Source\PSoC4/CyLib.c **** *  Status. Same enumerated bit values as used for the reason parameter.
2057:.\Generated_Source\PSoC4/CyLib.c **** *
2058:.\Generated_Source\PSoC4/CyLib.c **** *******************************************************************************/
2059:.\Generated_Source\PSoC4/CyLib.c **** uint32 CySysGetResetReason(uint32 reason)
2060:.\Generated_Source\PSoC4/CyLib.c **** {
 1072              		.loc 1 2060 0
 1073              		.cfi_startproc
 1074 0000 80B5     		push	{r7, lr}
 1075              		.cfi_def_cfa_offset 8
 1076              		.cfi_offset 7, -8
 1077              		.cfi_offset 14, -4
 1078 0002 84B0     		sub	sp, sp, #16
 1079              		.cfi_def_cfa_offset 24
 1080 0004 00AF     		add	r7, sp, #0
 1081              		.cfi_def_cfa_register 7
 1082 0006 7860     		str	r0, [r7, #4]
2061:.\Generated_Source\PSoC4/CyLib.c ****     uint32 returnStatus;
2062:.\Generated_Source\PSoC4/CyLib.c **** 
2063:.\Generated_Source\PSoC4/CyLib.c ****     reason &= (CY_SYS_RESET_WDT | CY_SYS_RESET_PROTFAULT | CY_SYS_RESET_SW);
 1083              		.loc 1 2063 0
 1084 0008 7B68     		ldr	r3, [r7, #4]
 1085 000a 1922     		mov	r2, #25
 1086 000c 1340     		and	r3, r2
 1087 000e 7B60     		str	r3, [r7, #4]
2064:.\Generated_Source\PSoC4/CyLib.c ****     returnStatus = CY_SYS_RES_CAUSE_REG &
 1088              		.loc 1 2064 0
 1089 0010 064B     		ldr	r3, .L66
 1090 0012 1B68     		ldr	r3, [r3]
 1091 0014 1922     		mov	r2, #25
 1092 0016 1340     		and	r3, r2
 1093 0018 FB60     		str	r3, [r7, #12]
2065:.\Generated_Source\PSoC4/CyLib.c ****                   (CY_SYS_RESET_WDT | CY_SYS_RESET_PROTFAULT | CY_SYS_RESET_SW);
2066:.\Generated_Source\PSoC4/CyLib.c ****     CY_SYS_RES_CAUSE_REG = reason;
 1094              		.loc 1 2066 0
 1095 001a 044B     		ldr	r3, .L66
 1096 001c 7A68     		ldr	r2, [r7, #4]
 1097 001e 1A60     		str	r2, [r3]
2067:.\Generated_Source\PSoC4/CyLib.c **** 
2068:.\Generated_Source\PSoC4/CyLib.c ****     return (returnStatus);
 1098              		.loc 1 2068 0
 1099 0020 FB68     		ldr	r3, [r7, #12]
2069:.\Generated_Source\PSoC4/CyLib.c **** }
 1100              		.loc 1 2069 0
 1101 0022 181C     		mov	r0, r3
 1102 0024 BD46     		mov	sp, r7
 1103 0026 04B0     		add	sp, sp, #16
 1104              		@ sp needed
 1105 0028 80BD     		pop	{r7, pc}
 1106              	.L67:
 1107 002a C046     		.align	2
 1108              	.L66:
 1109 002c 00030B40 		.word	1074463488
 1110              		.cfi_endproc
 1111              	.LFE16:
 1112              		.size	CySysGetResetReason, .-CySysGetResetReason
ARM GAS  C:\Users\Matthew\AppData\Local\Temp\ccRMqeZg.s 			page 57


 1113              		.section	.text.CyDisableInts,"ax",%progbits
 1114              		.align	2
 1115              		.global	CyDisableInts
 1116              		.code	16
 1117              		.thumb_func
 1118              		.type	CyDisableInts, %function
 1119              	CyDisableInts:
 1120              	.LFB17:
2070:.\Generated_Source\PSoC4/CyLib.c **** 
2071:.\Generated_Source\PSoC4/CyLib.c **** 
2072:.\Generated_Source\PSoC4/CyLib.c **** /*******************************************************************************
2073:.\Generated_Source\PSoC4/CyLib.c **** * Function Name: CyDisableInts
2074:.\Generated_Source\PSoC4/CyLib.c **** ****************************************************************************//**
2075:.\Generated_Source\PSoC4/CyLib.c **** *
2076:.\Generated_Source\PSoC4/CyLib.c **** *  Disables all interrupts.
2077:.\Generated_Source\PSoC4/CyLib.c **** *
2078:.\Generated_Source\PSoC4/CyLib.c **** * \return
2079:.\Generated_Source\PSoC4/CyLib.c **** *  32 bit mask of previously enabled interrupts.
2080:.\Generated_Source\PSoC4/CyLib.c **** *
2081:.\Generated_Source\PSoC4/CyLib.c **** *******************************************************************************/
2082:.\Generated_Source\PSoC4/CyLib.c **** uint32 CyDisableInts(void)
2083:.\Generated_Source\PSoC4/CyLib.c **** {
 1121              		.loc 1 2083 0
 1122              		.cfi_startproc
 1123 0000 80B5     		push	{r7, lr}
 1124              		.cfi_def_cfa_offset 8
 1125              		.cfi_offset 7, -8
 1126              		.cfi_offset 14, -4
 1127 0002 82B0     		sub	sp, sp, #8
 1128              		.cfi_def_cfa_offset 16
 1129 0004 00AF     		add	r7, sp, #0
 1130              		.cfi_def_cfa_register 7
2084:.\Generated_Source\PSoC4/CyLib.c ****     uint32 intState;
2085:.\Generated_Source\PSoC4/CyLib.c **** 
2086:.\Generated_Source\PSoC4/CyLib.c ****     /* Get current interrupt state. */
2087:.\Generated_Source\PSoC4/CyLib.c ****     intState = CY_INT_CLEAR_REG;
 1131              		.loc 1 2087 0
 1132 0006 064B     		ldr	r3, .L70
 1133 0008 1B68     		ldr	r3, [r3]
 1134 000a 7B60     		str	r3, [r7, #4]
2088:.\Generated_Source\PSoC4/CyLib.c **** 
2089:.\Generated_Source\PSoC4/CyLib.c ****     /* Disable all interrupts. */
2090:.\Generated_Source\PSoC4/CyLib.c ****     CY_INT_CLEAR_REG = CY_INT_CLEAR_DISABLE_ALL;
 1135              		.loc 1 2090 0
 1136 000c 044B     		ldr	r3, .L70
 1137 000e 0122     		mov	r2, #1
 1138 0010 5242     		neg	r2, r2
 1139 0012 1A60     		str	r2, [r3]
2091:.\Generated_Source\PSoC4/CyLib.c **** 
2092:.\Generated_Source\PSoC4/CyLib.c ****     return (intState);
 1140              		.loc 1 2092 0
 1141 0014 7B68     		ldr	r3, [r7, #4]
2093:.\Generated_Source\PSoC4/CyLib.c **** }
 1142              		.loc 1 2093 0
 1143 0016 181C     		mov	r0, r3
 1144 0018 BD46     		mov	sp, r7
 1145 001a 02B0     		add	sp, sp, #8
ARM GAS  C:\Users\Matthew\AppData\Local\Temp\ccRMqeZg.s 			page 58


 1146              		@ sp needed
 1147 001c 80BD     		pop	{r7, pc}
 1148              	.L71:
 1149 001e C046     		.align	2
 1150              	.L70:
 1151 0020 80E100E0 		.word	-536813184
 1152              		.cfi_endproc
 1153              	.LFE17:
 1154              		.size	CyDisableInts, .-CyDisableInts
 1155              		.section	.text.CyEnableInts,"ax",%progbits
 1156              		.align	2
 1157              		.global	CyEnableInts
 1158              		.code	16
 1159              		.thumb_func
 1160              		.type	CyEnableInts, %function
 1161              	CyEnableInts:
 1162              	.LFB18:
2094:.\Generated_Source\PSoC4/CyLib.c **** 
2095:.\Generated_Source\PSoC4/CyLib.c **** 
2096:.\Generated_Source\PSoC4/CyLib.c **** /*******************************************************************************
2097:.\Generated_Source\PSoC4/CyLib.c **** * Function Name: CyEnableInts
2098:.\Generated_Source\PSoC4/CyLib.c **** ****************************************************************************//**
2099:.\Generated_Source\PSoC4/CyLib.c **** *
2100:.\Generated_Source\PSoC4/CyLib.c **** *  Enables interrupts to a given state.
2101:.\Generated_Source\PSoC4/CyLib.c **** *
2102:.\Generated_Source\PSoC4/CyLib.c **** *  \param mask The 32 bit mask of interrupts to enable.
2103:.\Generated_Source\PSoC4/CyLib.c **** *
2104:.\Generated_Source\PSoC4/CyLib.c **** *******************************************************************************/
2105:.\Generated_Source\PSoC4/CyLib.c **** void CyEnableInts(uint32 mask)
2106:.\Generated_Source\PSoC4/CyLib.c **** {
 1163              		.loc 1 2106 0
 1164              		.cfi_startproc
 1165 0000 80B5     		push	{r7, lr}
 1166              		.cfi_def_cfa_offset 8
 1167              		.cfi_offset 7, -8
 1168              		.cfi_offset 14, -4
 1169 0002 82B0     		sub	sp, sp, #8
 1170              		.cfi_def_cfa_offset 16
 1171 0004 00AF     		add	r7, sp, #0
 1172              		.cfi_def_cfa_register 7
 1173 0006 7860     		str	r0, [r7, #4]
2107:.\Generated_Source\PSoC4/CyLib.c ****     CY_INT_ENABLE_REG = mask;
 1174              		.loc 1 2107 0
 1175 0008 024B     		ldr	r3, .L73
 1176 000a 7A68     		ldr	r2, [r7, #4]
 1177 000c 1A60     		str	r2, [r3]
2108:.\Generated_Source\PSoC4/CyLib.c **** }
 1178              		.loc 1 2108 0
 1179 000e BD46     		mov	sp, r7
 1180 0010 02B0     		add	sp, sp, #8
 1181              		@ sp needed
 1182 0012 80BD     		pop	{r7, pc}
 1183              	.L74:
 1184              		.align	2
 1185              	.L73:
 1186 0014 00E100E0 		.word	-536813312
 1187              		.cfi_endproc
ARM GAS  C:\Users\Matthew\AppData\Local\Temp\ccRMqeZg.s 			page 59


 1188              	.LFE18:
 1189              		.size	CyEnableInts, .-CyEnableInts
 1190              		.section	.text.CyIntSetSysVector,"ax",%progbits
 1191              		.align	2
 1192              		.global	CyIntSetSysVector
 1193              		.code	16
 1194              		.thumb_func
 1195              		.type	CyIntSetSysVector, %function
 1196              	CyIntSetSysVector:
 1197              	.LFB19:
2109:.\Generated_Source\PSoC4/CyLib.c **** 
2110:.\Generated_Source\PSoC4/CyLib.c **** 
2111:.\Generated_Source\PSoC4/CyLib.c **** /*******************************************************************************
2112:.\Generated_Source\PSoC4/CyLib.c **** * Function Name: CyIntSetSysVector
2113:.\Generated_Source\PSoC4/CyLib.c **** ****************************************************************************//**
2114:.\Generated_Source\PSoC4/CyLib.c **** *
2115:.\Generated_Source\PSoC4/CyLib.c **** *  Sets the interrupt vector of the specified system interrupt number. These
2116:.\Generated_Source\PSoC4/CyLib.c **** *  interrupts are for SysTick, PendSV and others.
2117:.\Generated_Source\PSoC4/CyLib.c **** *
2118:.\Generated_Source\PSoC4/CyLib.c **** *  \param number: System interrupt number:
2119:.\Generated_Source\PSoC4/CyLib.c **** *    CY_INT_NMI_IRQN        - Non Maskable Interrupt
2120:.\Generated_Source\PSoC4/CyLib.c **** *    CY_INT_HARD_FAULT_IRQN - Hard Fault Interrupt
2121:.\Generated_Source\PSoC4/CyLib.c **** *    CY_INT_SVCALL_IRQN     - SV Call Interrupt
2122:.\Generated_Source\PSoC4/CyLib.c **** *    CY_INT_PEND_SV_IRQN    - Pend SV Interrupt
2123:.\Generated_Source\PSoC4/CyLib.c **** *    CY_INT_SYSTICK_IRQN    - System Tick Interrupt
2124:.\Generated_Source\PSoC4/CyLib.c **** *
2125:.\Generated_Source\PSoC4/CyLib.c **** *  \param address Pointer to an interrupt service routine.
2126:.\Generated_Source\PSoC4/CyLib.c **** *
2127:.\Generated_Source\PSoC4/CyLib.c **** * \return The old ISR vector at this location.
2128:.\Generated_Source\PSoC4/CyLib.c **** *
2129:.\Generated_Source\PSoC4/CyLib.c **** *******************************************************************************/
2130:.\Generated_Source\PSoC4/CyLib.c **** cyisraddress CyIntSetSysVector(uint8 number, cyisraddress address)
2131:.\Generated_Source\PSoC4/CyLib.c **** {
 1198              		.loc 1 2131 0
 1199              		.cfi_startproc
 1200 0000 80B5     		push	{r7, lr}
 1201              		.cfi_def_cfa_offset 8
 1202              		.cfi_offset 7, -8
 1203              		.cfi_offset 14, -4
 1204 0002 84B0     		sub	sp, sp, #16
 1205              		.cfi_def_cfa_offset 24
 1206 0004 00AF     		add	r7, sp, #0
 1207              		.cfi_def_cfa_register 7
 1208 0006 021C     		mov	r2, r0
 1209 0008 3960     		str	r1, [r7]
 1210 000a FB1D     		add	r3, r7, #7
 1211 000c 1A70     		strb	r2, [r3]
2132:.\Generated_Source\PSoC4/CyLib.c ****     cyisraddress oldIsr;
2133:.\Generated_Source\PSoC4/CyLib.c ****     cyisraddress *ramVectorTable = (cyisraddress *) CY_INT_VECT_TABLE;
 1212              		.loc 1 2133 0
 1213 000e 8023     		mov	r3, #128
 1214 0010 9B05     		lsl	r3, r3, #22
 1215 0012 FB60     		str	r3, [r7, #12]
2134:.\Generated_Source\PSoC4/CyLib.c **** 
2135:.\Generated_Source\PSoC4/CyLib.c ****     CYASSERT(number < CY_INT_IRQ_BASE);
 1216              		.loc 1 2135 0
 1217 0014 FB1D     		add	r3, r7, #7
ARM GAS  C:\Users\Matthew\AppData\Local\Temp\ccRMqeZg.s 			page 60


 1218 0016 1B78     		ldrb	r3, [r3]
 1219 0018 0F2B     		cmp	r3, #15
 1220 001a 02D9     		bls	.L76
 1221              		.loc 1 2135 0 is_stmt 0 discriminator 1
 1222 001c 0020     		mov	r0, #0
 1223 001e FFF7FEFF 		bl	CyHalt
 1224              	.L76:
2136:.\Generated_Source\PSoC4/CyLib.c **** 
2137:.\Generated_Source\PSoC4/CyLib.c ****     /* Save old Interrupt service routine. */
2138:.\Generated_Source\PSoC4/CyLib.c ****     oldIsr = ramVectorTable[number];
 1225              		.loc 1 2138 0 is_stmt 1
 1226 0022 FB1D     		add	r3, r7, #7
 1227 0024 1B78     		ldrb	r3, [r3]
 1228 0026 9B00     		lsl	r3, r3, #2
 1229 0028 FA68     		ldr	r2, [r7, #12]
 1230 002a D318     		add	r3, r2, r3
 1231 002c 1B68     		ldr	r3, [r3]
 1232 002e BB60     		str	r3, [r7, #8]
2139:.\Generated_Source\PSoC4/CyLib.c **** 
2140:.\Generated_Source\PSoC4/CyLib.c ****     /* Set new Interrupt service routine. */
2141:.\Generated_Source\PSoC4/CyLib.c ****     ramVectorTable[number] = address;
 1233              		.loc 1 2141 0
 1234 0030 FB1D     		add	r3, r7, #7
 1235 0032 1B78     		ldrb	r3, [r3]
 1236 0034 9B00     		lsl	r3, r3, #2
 1237 0036 FA68     		ldr	r2, [r7, #12]
 1238 0038 D318     		add	r3, r2, r3
 1239 003a 3A68     		ldr	r2, [r7]
 1240 003c 1A60     		str	r2, [r3]
2142:.\Generated_Source\PSoC4/CyLib.c **** 
2143:.\Generated_Source\PSoC4/CyLib.c ****     return(oldIsr);
 1241              		.loc 1 2143 0
 1242 003e BB68     		ldr	r3, [r7, #8]
2144:.\Generated_Source\PSoC4/CyLib.c **** }
 1243              		.loc 1 2144 0
 1244 0040 181C     		mov	r0, r3
 1245 0042 BD46     		mov	sp, r7
 1246 0044 04B0     		add	sp, sp, #16
 1247              		@ sp needed
 1248 0046 80BD     		pop	{r7, pc}
 1249              		.cfi_endproc
 1250              	.LFE19:
 1251              		.size	CyIntSetSysVector, .-CyIntSetSysVector
 1252              		.section	.text.CyIntGetSysVector,"ax",%progbits
 1253              		.align	2
 1254              		.global	CyIntGetSysVector
 1255              		.code	16
 1256              		.thumb_func
 1257              		.type	CyIntGetSysVector, %function
 1258              	CyIntGetSysVector:
 1259              	.LFB20:
2145:.\Generated_Source\PSoC4/CyLib.c **** 
2146:.\Generated_Source\PSoC4/CyLib.c **** 
2147:.\Generated_Source\PSoC4/CyLib.c **** /*******************************************************************************
2148:.\Generated_Source\PSoC4/CyLib.c **** * Function Name: CyIntGetSysVector
2149:.\Generated_Source\PSoC4/CyLib.c **** ****************************************************************************//**
2150:.\Generated_Source\PSoC4/CyLib.c **** *
ARM GAS  C:\Users\Matthew\AppData\Local\Temp\ccRMqeZg.s 			page 61


2151:.\Generated_Source\PSoC4/CyLib.c **** *   Gets the interrupt vector of the specified system interrupt number. These
2152:.\Generated_Source\PSoC4/CyLib.c **** *   interrupts are for SysTick, PendSV and others.
2153:.\Generated_Source\PSoC4/CyLib.c **** *
2154:.\Generated_Source\PSoC4/CyLib.c **** *  \param number: System interrupt number:
2155:.\Generated_Source\PSoC4/CyLib.c **** *    CY_INT_NMI_IRQN        - Non Maskable Interrupt
2156:.\Generated_Source\PSoC4/CyLib.c **** *    CY_INT_HARD_FAULT_IRQN - Hard Fault Interrupt
2157:.\Generated_Source\PSoC4/CyLib.c **** *    CY_INT_SVCALL_IRQN     - SV Call Interrupt
2158:.\Generated_Source\PSoC4/CyLib.c **** *    CY_INT_PEND_SV_IRQN    - Pend SV Interrupt
2159:.\Generated_Source\PSoC4/CyLib.c **** *    CY_INT_SYSTICK_IRQN    - System Tick Interrupt
2160:.\Generated_Source\PSoC4/CyLib.c **** *
2161:.\Generated_Source\PSoC4/CyLib.c **** * \return Address of the ISR in the interrupt vector table.
2162:.\Generated_Source\PSoC4/CyLib.c **** *
2163:.\Generated_Source\PSoC4/CyLib.c **** *******************************************************************************/
2164:.\Generated_Source\PSoC4/CyLib.c **** cyisraddress CyIntGetSysVector(uint8 number)
2165:.\Generated_Source\PSoC4/CyLib.c **** {
 1260              		.loc 1 2165 0
 1261              		.cfi_startproc
 1262 0000 80B5     		push	{r7, lr}
 1263              		.cfi_def_cfa_offset 8
 1264              		.cfi_offset 7, -8
 1265              		.cfi_offset 14, -4
 1266 0002 84B0     		sub	sp, sp, #16
 1267              		.cfi_def_cfa_offset 24
 1268 0004 00AF     		add	r7, sp, #0
 1269              		.cfi_def_cfa_register 7
 1270 0006 021C     		mov	r2, r0
 1271 0008 FB1D     		add	r3, r7, #7
 1272 000a 1A70     		strb	r2, [r3]
2166:.\Generated_Source\PSoC4/CyLib.c ****     cyisraddress *ramVectorTable = (cyisraddress *) CY_INT_VECT_TABLE;
 1273              		.loc 1 2166 0
 1274 000c 8023     		mov	r3, #128
 1275 000e 9B05     		lsl	r3, r3, #22
 1276 0010 FB60     		str	r3, [r7, #12]
2167:.\Generated_Source\PSoC4/CyLib.c **** 
2168:.\Generated_Source\PSoC4/CyLib.c ****     CYASSERT(number < CY_INT_IRQ_BASE);
 1277              		.loc 1 2168 0
 1278 0012 FB1D     		add	r3, r7, #7
 1279 0014 1B78     		ldrb	r3, [r3]
 1280 0016 0F2B     		cmp	r3, #15
 1281 0018 02D9     		bls	.L79
 1282              		.loc 1 2168 0 is_stmt 0 discriminator 1
 1283 001a 0020     		mov	r0, #0
 1284 001c FFF7FEFF 		bl	CyHalt
 1285              	.L79:
2169:.\Generated_Source\PSoC4/CyLib.c **** 
2170:.\Generated_Source\PSoC4/CyLib.c ****     return(ramVectorTable[number]);
 1286              		.loc 1 2170 0 is_stmt 1
 1287 0020 FB1D     		add	r3, r7, #7
 1288 0022 1B78     		ldrb	r3, [r3]
 1289 0024 9B00     		lsl	r3, r3, #2
 1290 0026 FA68     		ldr	r2, [r7, #12]
 1291 0028 D318     		add	r3, r2, r3
 1292 002a 1B68     		ldr	r3, [r3]
2171:.\Generated_Source\PSoC4/CyLib.c **** }
 1293              		.loc 1 2171 0
 1294 002c 181C     		mov	r0, r3
 1295 002e BD46     		mov	sp, r7
ARM GAS  C:\Users\Matthew\AppData\Local\Temp\ccRMqeZg.s 			page 62


 1296 0030 04B0     		add	sp, sp, #16
 1297              		@ sp needed
 1298 0032 80BD     		pop	{r7, pc}
 1299              		.cfi_endproc
 1300              	.LFE20:
 1301              		.size	CyIntGetSysVector, .-CyIntGetSysVector
 1302              		.section	.text.CyIntSetVector,"ax",%progbits
 1303              		.align	2
 1304              		.global	CyIntSetVector
 1305              		.code	16
 1306              		.thumb_func
 1307              		.type	CyIntSetVector, %function
 1308              	CyIntSetVector:
 1309              	.LFB21:
2172:.\Generated_Source\PSoC4/CyLib.c **** 
2173:.\Generated_Source\PSoC4/CyLib.c **** 
2174:.\Generated_Source\PSoC4/CyLib.c **** /*******************************************************************************
2175:.\Generated_Source\PSoC4/CyLib.c **** * Function Name: CyIntSetVector
2176:.\Generated_Source\PSoC4/CyLib.c **** ****************************************************************************//**
2177:.\Generated_Source\PSoC4/CyLib.c **** *
2178:.\Generated_Source\PSoC4/CyLib.c **** *  Sets the interrupt vector of the specified interrupt number.
2179:.\Generated_Source\PSoC4/CyLib.c **** *
2180:.\Generated_Source\PSoC4/CyLib.c **** *  \param number Valid range [0-31].  Interrupt number
2181:.\Generated_Source\PSoC4/CyLib.c **** *  \param address Pointer to an interrupt service routine
2182:.\Generated_Source\PSoC4/CyLib.c **** *
2183:.\Generated_Source\PSoC4/CyLib.c **** * \return Previous interrupt vector value.
2184:.\Generated_Source\PSoC4/CyLib.c **** *
2185:.\Generated_Source\PSoC4/CyLib.c **** *******************************************************************************/
2186:.\Generated_Source\PSoC4/CyLib.c **** cyisraddress CyIntSetVector(uint8 number, cyisraddress address)
2187:.\Generated_Source\PSoC4/CyLib.c **** {
 1310              		.loc 1 2187 0
 1311              		.cfi_startproc
 1312 0000 80B5     		push	{r7, lr}
 1313              		.cfi_def_cfa_offset 8
 1314              		.cfi_offset 7, -8
 1315              		.cfi_offset 14, -4
 1316 0002 84B0     		sub	sp, sp, #16
 1317              		.cfi_def_cfa_offset 24
 1318 0004 00AF     		add	r7, sp, #0
 1319              		.cfi_def_cfa_register 7
 1320 0006 021C     		mov	r2, r0
 1321 0008 3960     		str	r1, [r7]
 1322 000a FB1D     		add	r3, r7, #7
 1323 000c 1A70     		strb	r2, [r3]
2188:.\Generated_Source\PSoC4/CyLib.c ****     cyisraddress oldIsr;
2189:.\Generated_Source\PSoC4/CyLib.c ****     cyisraddress *ramVectorTable = (cyisraddress *) CY_INT_VECT_TABLE;
 1324              		.loc 1 2189 0
 1325 000e 8023     		mov	r3, #128
 1326 0010 9B05     		lsl	r3, r3, #22
 1327 0012 FB60     		str	r3, [r7, #12]
2190:.\Generated_Source\PSoC4/CyLib.c **** 
2191:.\Generated_Source\PSoC4/CyLib.c ****     CYASSERT(number < CY_NUM_INTERRUPTS);
 1328              		.loc 1 2191 0
 1329 0014 FB1D     		add	r3, r7, #7
 1330 0016 1B78     		ldrb	r3, [r3]
 1331 0018 1F2B     		cmp	r3, #31
 1332 001a 02D9     		bls	.L82
ARM GAS  C:\Users\Matthew\AppData\Local\Temp\ccRMqeZg.s 			page 63


 1333              		.loc 1 2191 0 is_stmt 0 discriminator 1
 1334 001c 0020     		mov	r0, #0
 1335 001e FFF7FEFF 		bl	CyHalt
 1336              	.L82:
2192:.\Generated_Source\PSoC4/CyLib.c **** 
2193:.\Generated_Source\PSoC4/CyLib.c ****     /* Save old Interrupt service routine. */
2194:.\Generated_Source\PSoC4/CyLib.c ****     oldIsr = ramVectorTable[CY_INT_IRQ_BASE + number];
 1337              		.loc 1 2194 0 is_stmt 1
 1338 0022 FB1D     		add	r3, r7, #7
 1339 0024 1B78     		ldrb	r3, [r3]
 1340 0026 1033     		add	r3, r3, #16
 1341 0028 9B00     		lsl	r3, r3, #2
 1342 002a FA68     		ldr	r2, [r7, #12]
 1343 002c D318     		add	r3, r2, r3
 1344 002e 1B68     		ldr	r3, [r3]
 1345 0030 BB60     		str	r3, [r7, #8]
2195:.\Generated_Source\PSoC4/CyLib.c **** 
2196:.\Generated_Source\PSoC4/CyLib.c ****     /* Set new Interrupt service routine. */
2197:.\Generated_Source\PSoC4/CyLib.c ****     ramVectorTable[CY_INT_IRQ_BASE + number] = address;
 1346              		.loc 1 2197 0
 1347 0032 FB1D     		add	r3, r7, #7
 1348 0034 1B78     		ldrb	r3, [r3]
 1349 0036 1033     		add	r3, r3, #16
 1350 0038 9B00     		lsl	r3, r3, #2
 1351 003a FA68     		ldr	r2, [r7, #12]
 1352 003c D318     		add	r3, r2, r3
 1353 003e 3A68     		ldr	r2, [r7]
 1354 0040 1A60     		str	r2, [r3]
2198:.\Generated_Source\PSoC4/CyLib.c **** 
2199:.\Generated_Source\PSoC4/CyLib.c ****     return(oldIsr);
 1355              		.loc 1 2199 0
 1356 0042 BB68     		ldr	r3, [r7, #8]
2200:.\Generated_Source\PSoC4/CyLib.c **** }
 1357              		.loc 1 2200 0
 1358 0044 181C     		mov	r0, r3
 1359 0046 BD46     		mov	sp, r7
 1360 0048 04B0     		add	sp, sp, #16
 1361              		@ sp needed
 1362 004a 80BD     		pop	{r7, pc}
 1363              		.cfi_endproc
 1364              	.LFE21:
 1365              		.size	CyIntSetVector, .-CyIntSetVector
 1366              		.section	.text.CyIntGetVector,"ax",%progbits
 1367              		.align	2
 1368              		.global	CyIntGetVector
 1369              		.code	16
 1370              		.thumb_func
 1371              		.type	CyIntGetVector, %function
 1372              	CyIntGetVector:
 1373              	.LFB22:
2201:.\Generated_Source\PSoC4/CyLib.c **** 
2202:.\Generated_Source\PSoC4/CyLib.c **** 
2203:.\Generated_Source\PSoC4/CyLib.c **** /*******************************************************************************
2204:.\Generated_Source\PSoC4/CyLib.c **** * Function Name: CyIntGetVector
2205:.\Generated_Source\PSoC4/CyLib.c **** ****************************************************************************//**
2206:.\Generated_Source\PSoC4/CyLib.c **** *
2207:.\Generated_Source\PSoC4/CyLib.c **** *  Gets the interrupt vector of the specified interrupt number.
ARM GAS  C:\Users\Matthew\AppData\Local\Temp\ccRMqeZg.s 			page 64


2208:.\Generated_Source\PSoC4/CyLib.c **** *
2209:.\Generated_Source\PSoC4/CyLib.c **** *  \param number: Valid range [0-31].  Interrupt number
2210:.\Generated_Source\PSoC4/CyLib.c **** *
2211:.\Generated_Source\PSoC4/CyLib.c **** * \return Address of the ISR in the interrupt vector table.
2212:.\Generated_Source\PSoC4/CyLib.c **** *
2213:.\Generated_Source\PSoC4/CyLib.c **** *******************************************************************************/
2214:.\Generated_Source\PSoC4/CyLib.c **** cyisraddress CyIntGetVector(uint8 number)
2215:.\Generated_Source\PSoC4/CyLib.c **** {
 1374              		.loc 1 2215 0
 1375              		.cfi_startproc
 1376 0000 80B5     		push	{r7, lr}
 1377              		.cfi_def_cfa_offset 8
 1378              		.cfi_offset 7, -8
 1379              		.cfi_offset 14, -4
 1380 0002 84B0     		sub	sp, sp, #16
 1381              		.cfi_def_cfa_offset 24
 1382 0004 00AF     		add	r7, sp, #0
 1383              		.cfi_def_cfa_register 7
 1384 0006 021C     		mov	r2, r0
 1385 0008 FB1D     		add	r3, r7, #7
 1386 000a 1A70     		strb	r2, [r3]
2216:.\Generated_Source\PSoC4/CyLib.c ****     cyisraddress *ramVectorTable = (cyisraddress *) CY_INT_VECT_TABLE;
 1387              		.loc 1 2216 0
 1388 000c 8023     		mov	r3, #128
 1389 000e 9B05     		lsl	r3, r3, #22
 1390 0010 FB60     		str	r3, [r7, #12]
2217:.\Generated_Source\PSoC4/CyLib.c **** 
2218:.\Generated_Source\PSoC4/CyLib.c ****     CYASSERT(number < CY_NUM_INTERRUPTS);
 1391              		.loc 1 2218 0
 1392 0012 FB1D     		add	r3, r7, #7
 1393 0014 1B78     		ldrb	r3, [r3]
 1394 0016 1F2B     		cmp	r3, #31
 1395 0018 02D9     		bls	.L85
 1396              		.loc 1 2218 0 is_stmt 0 discriminator 1
 1397 001a 0020     		mov	r0, #0
 1398 001c FFF7FEFF 		bl	CyHalt
 1399              	.L85:
2219:.\Generated_Source\PSoC4/CyLib.c **** 
2220:.\Generated_Source\PSoC4/CyLib.c ****     return (ramVectorTable[CY_INT_IRQ_BASE + number]);
 1400              		.loc 1 2220 0 is_stmt 1
 1401 0020 FB1D     		add	r3, r7, #7
 1402 0022 1B78     		ldrb	r3, [r3]
 1403 0024 1033     		add	r3, r3, #16
 1404 0026 9B00     		lsl	r3, r3, #2
 1405 0028 FA68     		ldr	r2, [r7, #12]
 1406 002a D318     		add	r3, r2, r3
 1407 002c 1B68     		ldr	r3, [r3]
2221:.\Generated_Source\PSoC4/CyLib.c **** }
 1408              		.loc 1 2221 0
 1409 002e 181C     		mov	r0, r3
 1410 0030 BD46     		mov	sp, r7
 1411 0032 04B0     		add	sp, sp, #16
 1412              		@ sp needed
 1413 0034 80BD     		pop	{r7, pc}
 1414              		.cfi_endproc
 1415              	.LFE22:
 1416              		.size	CyIntGetVector, .-CyIntGetVector
ARM GAS  C:\Users\Matthew\AppData\Local\Temp\ccRMqeZg.s 			page 65


 1417              		.section	.text.CyIntSetPriority,"ax",%progbits
 1418              		.align	2
 1419              		.global	CyIntSetPriority
 1420              		.code	16
 1421              		.thumb_func
 1422              		.type	CyIntSetPriority, %function
 1423              	CyIntSetPriority:
 1424              	.LFB23:
2222:.\Generated_Source\PSoC4/CyLib.c **** 
2223:.\Generated_Source\PSoC4/CyLib.c **** /*******************************************************************************
2224:.\Generated_Source\PSoC4/CyLib.c **** * Function Name: CyIntSetPriority
2225:.\Generated_Source\PSoC4/CyLib.c **** ****************************************************************************//**
2226:.\Generated_Source\PSoC4/CyLib.c **** *
2227:.\Generated_Source\PSoC4/CyLib.c **** *  Sets the priority of the interrupt.
2228:.\Generated_Source\PSoC4/CyLib.c **** *
2229:.\Generated_Source\PSoC4/CyLib.c **** *  \param priority: Priority of the interrupt. 0 - 3, 0 being the highest.
2230:.\Generated_Source\PSoC4/CyLib.c **** *  \param number: The number of the interrupt, 0 - 31.
2231:.\Generated_Source\PSoC4/CyLib.c **** *
2232:.\Generated_Source\PSoC4/CyLib.c **** *******************************************************************************/
2233:.\Generated_Source\PSoC4/CyLib.c **** void CyIntSetPriority(uint8 number, uint8 priority)
2234:.\Generated_Source\PSoC4/CyLib.c **** {
 1425              		.loc 1 2234 0
 1426              		.cfi_startproc
 1427 0000 90B5     		push	{r4, r7, lr}
 1428              		.cfi_def_cfa_offset 12
 1429              		.cfi_offset 4, -12
 1430              		.cfi_offset 7, -8
 1431              		.cfi_offset 14, -4
 1432 0002 87B0     		sub	sp, sp, #28
 1433              		.cfi_def_cfa_offset 40
 1434 0004 00AF     		add	r7, sp, #0
 1435              		.cfi_def_cfa_register 7
 1436 0006 021C     		mov	r2, r0
 1437 0008 FB1D     		add	r3, r7, #7
 1438 000a 1A70     		strb	r2, [r3]
 1439 000c BB1D     		add	r3, r7, #6
 1440 000e 0A1C     		add	r2, r1, #0
 1441 0010 1A70     		strb	r2, [r3]
2235:.\Generated_Source\PSoC4/CyLib.c ****     uint8 interruptState;
2236:.\Generated_Source\PSoC4/CyLib.c ****     uint32 shift;
2237:.\Generated_Source\PSoC4/CyLib.c ****     uint32 value;
2238:.\Generated_Source\PSoC4/CyLib.c **** 
2239:.\Generated_Source\PSoC4/CyLib.c ****     CYASSERT(priority <= CY_MIN_PRIORITY);
 1442              		.loc 1 2239 0
 1443 0012 BB1D     		add	r3, r7, #6
 1444 0014 1B78     		ldrb	r3, [r3]
 1445 0016 032B     		cmp	r3, #3
 1446 0018 02D9     		bls	.L88
 1447              		.loc 1 2239 0 is_stmt 0 discriminator 1
 1448 001a 0020     		mov	r0, #0
 1449 001c FFF7FEFF 		bl	CyHalt
 1450              	.L88:
2240:.\Generated_Source\PSoC4/CyLib.c ****     CYASSERT(number < CY_NUM_INTERRUPTS);
 1451              		.loc 1 2240 0 is_stmt 1
 1452 0020 FB1D     		add	r3, r7, #7
 1453 0022 1B78     		ldrb	r3, [r3]
 1454 0024 1F2B     		cmp	r3, #31
ARM GAS  C:\Users\Matthew\AppData\Local\Temp\ccRMqeZg.s 			page 66


 1455 0026 02D9     		bls	.L89
 1456              		.loc 1 2240 0 is_stmt 0 discriminator 1
 1457 0028 0020     		mov	r0, #0
 1458 002a FFF7FEFF 		bl	CyHalt
 1459              	.L89:
2241:.\Generated_Source\PSoC4/CyLib.c **** 
2242:.\Generated_Source\PSoC4/CyLib.c ****     shift = CY_INT_PRIORITY_SHIFT(number);
 1460              		.loc 1 2242 0 is_stmt 1
 1461 002e FB1D     		add	r3, r7, #7
 1462 0030 1B78     		ldrb	r3, [r3]
 1463 0032 0322     		mov	r2, #3
 1464 0034 1340     		and	r3, r2
 1465 0036 DB00     		lsl	r3, r3, #3
 1466 0038 0633     		add	r3, r3, #6
 1467 003a 7B61     		str	r3, [r7, #20]
2243:.\Generated_Source\PSoC4/CyLib.c **** 
2244:.\Generated_Source\PSoC4/CyLib.c ****     interruptState = CyEnterCriticalSection();
 1468              		.loc 1 2244 0
 1469 003c 1323     		mov	r3, #19
 1470 003e FC18     		add	r4, r7, r3
 1471 0040 FFF7FEFF 		bl	CyEnterCriticalSection
 1472 0044 031C     		mov	r3, r0
 1473 0046 2370     		strb	r3, [r4]
2245:.\Generated_Source\PSoC4/CyLib.c **** 
2246:.\Generated_Source\PSoC4/CyLib.c ****     value = CY_INT_PRIORITY_REG(number);
 1474              		.loc 1 2246 0
 1475 0048 FB1D     		add	r3, r7, #7
 1476 004a 1B78     		ldrb	r3, [r3]
 1477 004c 9B08     		lsr	r3, r3, #2
 1478 004e DBB2     		uxtb	r3, r3
 1479 0050 9B00     		lsl	r3, r3, #2
 1480 0052 144A     		ldr	r2, .L90
 1481 0054 9446     		mov	ip, r2
 1482 0056 6344     		add	r3, r3, ip
 1483 0058 1B68     		ldr	r3, [r3]
 1484 005a FB60     		str	r3, [r7, #12]
2247:.\Generated_Source\PSoC4/CyLib.c ****     value &= (uint32)(~((uint32)(CY_INT_PRIORITY_MASK << shift)));
 1485              		.loc 1 2247 0
 1486 005c 7B69     		ldr	r3, [r7, #20]
 1487 005e 0322     		mov	r2, #3
 1488 0060 9A40     		lsl	r2, r2, r3
 1489 0062 131C     		mov	r3, r2
 1490 0064 DA43     		mvn	r2, r3
 1491 0066 FB68     		ldr	r3, [r7, #12]
 1492 0068 1340     		and	r3, r2
 1493 006a FB60     		str	r3, [r7, #12]
2248:.\Generated_Source\PSoC4/CyLib.c ****     value |= ((uint32)priority << shift);
 1494              		.loc 1 2248 0
 1495 006c BB1D     		add	r3, r7, #6
 1496 006e 1A78     		ldrb	r2, [r3]
 1497 0070 7B69     		ldr	r3, [r7, #20]
 1498 0072 9A40     		lsl	r2, r2, r3
 1499 0074 131C     		mov	r3, r2
 1500 0076 FA68     		ldr	r2, [r7, #12]
 1501 0078 1343     		orr	r3, r2
 1502 007a FB60     		str	r3, [r7, #12]
2249:.\Generated_Source\PSoC4/CyLib.c ****     CY_INT_PRIORITY_REG(number) = value;
ARM GAS  C:\Users\Matthew\AppData\Local\Temp\ccRMqeZg.s 			page 67


 1503              		.loc 1 2249 0
 1504 007c FB1D     		add	r3, r7, #7
 1505 007e 1B78     		ldrb	r3, [r3]
 1506 0080 9B08     		lsr	r3, r3, #2
 1507 0082 DBB2     		uxtb	r3, r3
 1508 0084 9B00     		lsl	r3, r3, #2
 1509 0086 074A     		ldr	r2, .L90
 1510 0088 9446     		mov	ip, r2
 1511 008a 6344     		add	r3, r3, ip
 1512 008c FA68     		ldr	r2, [r7, #12]
 1513 008e 1A60     		str	r2, [r3]
2250:.\Generated_Source\PSoC4/CyLib.c **** 
2251:.\Generated_Source\PSoC4/CyLib.c ****     CyExitCriticalSection(interruptState);
 1514              		.loc 1 2251 0
 1515 0090 1323     		mov	r3, #19
 1516 0092 FB18     		add	r3, r7, r3
 1517 0094 1B78     		ldrb	r3, [r3]
 1518 0096 181C     		mov	r0, r3
 1519 0098 FFF7FEFF 		bl	CyExitCriticalSection
2252:.\Generated_Source\PSoC4/CyLib.c **** }
 1520              		.loc 1 2252 0
 1521 009c BD46     		mov	sp, r7
 1522 009e 07B0     		add	sp, sp, #28
 1523              		@ sp needed
 1524 00a0 90BD     		pop	{r4, r7, pc}
 1525              	.L91:
 1526 00a2 C046     		.align	2
 1527              	.L90:
 1528 00a4 00E400E0 		.word	-536812544
 1529              		.cfi_endproc
 1530              	.LFE23:
 1531              		.size	CyIntSetPriority, .-CyIntSetPriority
 1532              		.section	.text.CyIntGetPriority,"ax",%progbits
 1533              		.align	2
 1534              		.global	CyIntGetPriority
 1535              		.code	16
 1536              		.thumb_func
 1537              		.type	CyIntGetPriority, %function
 1538              	CyIntGetPriority:
 1539              	.LFB24:
2253:.\Generated_Source\PSoC4/CyLib.c **** 
2254:.\Generated_Source\PSoC4/CyLib.c **** 
2255:.\Generated_Source\PSoC4/CyLib.c **** /*******************************************************************************
2256:.\Generated_Source\PSoC4/CyLib.c **** * Function Name: CyIntGetPriority
2257:.\Generated_Source\PSoC4/CyLib.c **** ****************************************************************************//**
2258:.\Generated_Source\PSoC4/CyLib.c **** *
2259:.\Generated_Source\PSoC4/CyLib.c **** *  Gets the priority of the interrupt.
2260:.\Generated_Source\PSoC4/CyLib.c **** *
2261:.\Generated_Source\PSoC4/CyLib.c **** *  \param number: The number of the interrupt, 0 - 31.
2262:.\Generated_Source\PSoC4/CyLib.c **** *
2263:.\Generated_Source\PSoC4/CyLib.c **** * \return
2264:.\Generated_Source\PSoC4/CyLib.c **** *  Priority of the interrupt. 0 - 3, 0 being the highest.
2265:.\Generated_Source\PSoC4/CyLib.c **** *
2266:.\Generated_Source\PSoC4/CyLib.c **** *******************************************************************************/
2267:.\Generated_Source\PSoC4/CyLib.c **** uint8 CyIntGetPriority(uint8 number)
2268:.\Generated_Source\PSoC4/CyLib.c **** {
 1540              		.loc 1 2268 0
ARM GAS  C:\Users\Matthew\AppData\Local\Temp\ccRMqeZg.s 			page 68


 1541              		.cfi_startproc
 1542 0000 80B5     		push	{r7, lr}
 1543              		.cfi_def_cfa_offset 8
 1544              		.cfi_offset 7, -8
 1545              		.cfi_offset 14, -4
 1546 0002 84B0     		sub	sp, sp, #16
 1547              		.cfi_def_cfa_offset 24
 1548 0004 00AF     		add	r7, sp, #0
 1549              		.cfi_def_cfa_register 7
 1550 0006 021C     		mov	r2, r0
 1551 0008 FB1D     		add	r3, r7, #7
 1552 000a 1A70     		strb	r2, [r3]
2269:.\Generated_Source\PSoC4/CyLib.c ****     uint8 priority;
2270:.\Generated_Source\PSoC4/CyLib.c **** 
2271:.\Generated_Source\PSoC4/CyLib.c ****     CYASSERT(number < CY_NUM_INTERRUPTS);
 1553              		.loc 1 2271 0
 1554 000c FB1D     		add	r3, r7, #7
 1555 000e 1B78     		ldrb	r3, [r3]
 1556 0010 1F2B     		cmp	r3, #31
 1557 0012 02D9     		bls	.L93
 1558              		.loc 1 2271 0 is_stmt 0 discriminator 1
 1559 0014 0020     		mov	r0, #0
 1560 0016 FFF7FEFF 		bl	CyHalt
 1561              	.L93:
2272:.\Generated_Source\PSoC4/CyLib.c **** 
2273:.\Generated_Source\PSoC4/CyLib.c ****     priority = (uint8) (CY_INT_PRIORITY_REG(number) >> CY_INT_PRIORITY_SHIFT(number));
 1562              		.loc 1 2273 0 is_stmt 1
 1563 001a FB1D     		add	r3, r7, #7
 1564 001c 1B78     		ldrb	r3, [r3]
 1565 001e 9B08     		lsr	r3, r3, #2
 1566 0020 DBB2     		uxtb	r3, r3
 1567 0022 9B00     		lsl	r3, r3, #2
 1568 0024 0C4A     		ldr	r2, .L95
 1569 0026 9446     		mov	ip, r2
 1570 0028 6344     		add	r3, r3, ip
 1571 002a 1B68     		ldr	r3, [r3]
 1572 002c FA1D     		add	r2, r7, #7
 1573 002e 1278     		ldrb	r2, [r2]
 1574 0030 0321     		mov	r1, #3
 1575 0032 0A40     		and	r2, r1
 1576 0034 D200     		lsl	r2, r2, #3
 1577 0036 0632     		add	r2, r2, #6
 1578 0038 D340     		lsr	r3, r3, r2
 1579 003a 1A1C     		mov	r2, r3
 1580 003c 0F23     		mov	r3, #15
 1581 003e FB18     		add	r3, r7, r3
