ARM GAS  C:\Users\Matthew\AppData\Local\Temp\ccBs485u.s 			page 1


   1              		.cpu cortex-m0
   2              		.fpu softvfp
   3              		.eabi_attribute 20, 1
   4              		.eabi_attribute 21, 1
   5              		.eabi_attribute 23, 3
   6              		.eabi_attribute 24, 1
   7              		.eabi_attribute 25, 1
   8              		.eabi_attribute 26, 1
   9              		.eabi_attribute 30, 6
  10              		.eabi_attribute 34, 0
  11              		.eabi_attribute 18, 4
  12              		.code	16
  13              		.file	"main.c"
  14              		.text
  15              	.Ltext0:
  16              		.cfi_sections	.debug_frame
  17              		.comm	pulseOximeter,64,8
  18              		.comm	globalBeatDetector,20,4
  19              		.comm	globalIrDCRemover,8,4
  20              		.comm	globalRedDCRemover,8,4
  21              		.comm	globalLpf,8,4
  22              		.comm	globalSpO2calculator,64,4
  23              		.comm	globalHrm,4,4
  24              		.comm	numBeats,4,4
  25              		.global	NOTIFY
  26              		.bss
  27              		.align	2
  28              		.type	NOTIFY, %object
  29              		.size	NOTIFY, 20
  30              	NOTIFY:
  31 0000 00000000 		.space	20
  31      00000000 
  31      00000000 
  31      00000000 
  31      00000000 
  32              		.comm	deviceConnected,1,1
  33              		.comm	restartAdvertisement,1,1
  34              		.comm	busyStatus,1,1
  35              		.comm	whatToDo,1,1
  36              		.comm	started,1,1
  37              		.comm	charCode,4,4
  38              		.comm	connectionHandle,2,4
  39              		.global	tsLastReport
  40              		.align	2
  41              		.type	tsLastReport, %object
  42              		.size	tsLastReport, 4
  43              	tsLastReport:
  44 0014 00000000 		.space	4
  45              		.global	ACCELEROMETER
  46              		.section	.rodata
  47              		.align	2
  48              		.type	ACCELEROMETER, %object
  49              		.size	ACCELEROMETER, 4
  50              	ACCELEROMETER:
  51 0000 00000000 		.space	4
  52              		.global	BATTERY
  53              		.align	2
ARM GAS  C:\Users\Matthew\AppData\Local\Temp\ccBs485u.s 			page 2


  54              		.type	BATTERY, %object
  55              		.size	BATTERY, 4
  56              	BATTERY:
  57 0004 01000000 		.word	1
  58              		.global	HEART
  59              		.align	2
  60              		.type	HEART, %object
  61              		.size	HEART, 4
  62              	HEART:
  63 0008 02000000 		.word	2
  64              		.global	OXYGEN
  65              		.align	2
  66              		.type	OXYGEN, %object
  67              		.size	OXYGEN, 4
  68              	OXYGEN:
  69 000c 03000000 		.word	3
  70              		.global	TEMPERATURE
  71              		.align	2
  72              		.type	TEMPERATURE, %object
  73              		.size	TEMPERATURE, 4
  74              	TEMPERATURE:
  75 0010 04000000 		.word	4
  76              		.section	.text.Minute_Handler,"ax",%progbits
  77              		.align	2
  78              		.global	Minute_Handler
  79              		.code	16
  80              		.thumb_func
  81              		.type	Minute_Handler, %function
  82              	Minute_Handler:
  83              	.LFB37:
  84              		.file 1 ".\\main.c"
   1:.\main.c      **** /* ========================================
   2:.\main.c      ****  *
   3:.\main.c      ****  * Copyright YOUR COMPANY, THE YEAR
   4:.\main.c      ****  * All Rights Reserved
   5:.\main.c      ****  * UNPUBLISHED, LICENSED SOFTWARE.
   6:.\main.c      ****  *
   7:.\main.c      ****  * CONFIDENTIAL AND PROPRIETARY INFORMATION
   8:.\main.c      ****  * WHICH IS THE PROPERTY OF your company.
   9:.\main.c      ****  *
  10:.\main.c      ****  * ========================================
  11:.\main.c      **** */
  12:.\main.c      **** #include <project.h>
  13:.\main.c      **** #include <accelerometer.h>
  14:.\main.c      **** #include <tempAndBat.h>
  15:.\main.c      **** #include <MAX30100_All.h>
  16:.\main.c      **** 
  17:.\main.c      **** #define REPORTING_PERIOD_MS     1000
  18:.\main.c      **** 
  19:.\main.c      **** int NOTIFY[] = {0, 0, 0, 0, 0};
  20:.\main.c      **** 
  21:.\main.c      **** uint8 deviceConnected ; 
  22:.\main.c      **** uint8 restartAdvertisement; 
  23:.\main.c      **** uint8 busyStatus; 
  24:.\main.c      **** uint8 whatToDo;
  25:.\main.c      **** uint8 started;
  26:.\main.c      **** int charCode;
ARM GAS  C:\Users\Matthew\AppData\Local\Temp\ccBs485u.s 			page 3


  27:.\main.c      **** CYBLE_CONN_HANDLE_T connectionHandle; 
  28:.\main.c      **** 
  29:.\main.c      **** uint32 tsLastReport = 0;
  30:.\main.c      **** 
  31:.\main.c      **** const int ACCELEROMETER = 0;
  32:.\main.c      **** const int BATTERY = 1;
  33:.\main.c      **** const int HEART = 2;
  34:.\main.c      **** const int OXYGEN = 3;
  35:.\main.c      **** const int TEMPERATURE = 4;
  36:.\main.c      **** 
  37:.\main.c      **** void initBLE();
  38:.\main.c      **** void StackEventHandler( uint32 eventCode, void *eventParam );
  39:.\main.c      **** 
  40:.\main.c      **** CY_ISR(Minute_Handler){
  85              		.loc 1 40 0
  86              		.cfi_startproc
  87 0000 98B5     		push	{r3, r4, r7, lr}
  88              		.cfi_def_cfa_offset 16
  89              		.cfi_offset 3, -16
  90              		.cfi_offset 4, -12
  91              		.cfi_offset 7, -8
  92              		.cfi_offset 14, -4
  93 0002 00AF     		add	r7, sp, #0
  94              		.cfi_def_cfa_register 7
  41:.\main.c      ****     pulseOximeter.currentMinute++;
  95              		.loc 1 41 0
  96 0004 074B     		ldr	r3, .L2
  97 0006 DC6B     		ldr	r4, [r3, #60]
  98 0008 9B6B     		ldr	r3, [r3, #56]
  99 000a 0121     		mov	r1, #1
 100 000c 0022     		mov	r2, #0
 101 000e 5B18     		add	r3, r3, r1
 102 0010 5441     		adc	r4, r4, r2
 103 0012 044A     		ldr	r2, .L2
 104 0014 9363     		str	r3, [r2, #56]
 105 0016 D463     		str	r4, [r2, #60]
  42:.\main.c      ****     Timer_minute_ClearInterrupt(Timer_minute_INTR_MASK_TC);
 106              		.loc 1 42 0
 107 0018 0120     		mov	r0, #1
 108 001a FFF7FEFF 		bl	Timer_minute_ClearInterrupt
  43:.\main.c      **** }
 109              		.loc 1 43 0
 110 001e BD46     		mov	sp, r7
 111              		@ sp needed
 112 0020 98BD     		pop	{r3, r4, r7, pc}
 113              	.L3:
 114 0022 C046     		.align	2
 115              	.L2:
 116 0024 00000000 		.word	pulseOximeter
 117              		.cfi_endproc
 118              	.LFE37:
 119              		.size	Minute_Handler, .-Minute_Handler
 120              		.section	.text.initAll,"ax",%progbits
 121              		.align	2
 122              		.global	initAll
 123              		.code	16
 124              		.thumb_func
ARM GAS  C:\Users\Matthew\AppData\Local\Temp\ccBs485u.s 			page 4


 125              		.type	initAll, %function
 126              	initAll:
 127              	.LFB38:
  44:.\main.c      **** 
  45:.\main.c      **** void initAll(){
 128              		.loc 1 45 0
 129              		.cfi_startproc
 130 0000 80B5     		push	{r7, lr}
 131              		.cfi_def_cfa_offset 8
 132              		.cfi_offset 7, -8
 133              		.cfi_offset 14, -4
 134 0002 00AF     		add	r7, sp, #0
 135              		.cfi_def_cfa_register 7
  46:.\main.c      ****     initBLE();
 136              		.loc 1 46 0
 137 0004 FFF7FEFF 		bl	initBLE
  47:.\main.c      ****     I2C_1_Start();
 138              		.loc 1 47 0
 139 0008 FFF7FEFF 		bl	I2C_1_Start
  48:.\main.c      ****     initAccelControl();
 140              		.loc 1 48 0
 141 000c FFF7FEFF 		bl	initAccelControl
  49:.\main.c      ****     initTemperatureAndBattery(); 
 142              		.loc 1 49 0
 143 0010 FFF7FEFF 		bl	initTemperatureAndBattery
  50:.\main.c      ****     
  51:.\main.c      ****     PulseOximeter_Init();     
 144              		.loc 1 51 0
 145 0014 FFF7FEFF 		bl	PulseOximeter_Init
  52:.\main.c      ****     PulseOximeter_begin(PULSEOXIMETER_DEBUGGINGMODE_NONE);
 146              		.loc 1 52 0
 147 0018 0020     		mov	r0, #0
 148 001a FFF7FEFF 		bl	PulseOximeter_begin
  53:.\main.c      **** 
  54:.\main.c      **** 
  55:.\main.c      ****     Timer_minute_Start();
 149              		.loc 1 55 0
 150 001e FFF7FEFF 		bl	Timer_minute_Start
  56:.\main.c      ****     isr_minute_StartEx(Minute_Handler);
 151              		.loc 1 56 0
 152 0022 054B     		ldr	r3, .L5
 153 0024 181C     		mov	r0, r3
 154 0026 FFF7FEFF 		bl	isr_minute_StartEx
  57:.\main.c      ****     
  58:.\main.c      ****     ADC_Start();
 155              		.loc 1 58 0
 156 002a FFF7FEFF 		bl	ADC_Start
  59:.\main.c      ****     ADC_StartConvert();
 157              		.loc 1 59 0
 158 002e FFF7FEFF 		bl	ADC_StartConvert
  60:.\main.c      **** }
 159              		.loc 1 60 0
 160 0032 BD46     		mov	sp, r7
 161              		@ sp needed
 162 0034 80BD     		pop	{r7, pc}
 163              	.L6:
 164 0036 C046     		.align	2
ARM GAS  C:\Users\Matthew\AppData\Local\Temp\ccBs485u.s 			page 5


 165              	.L5:
 166 0038 00000000 		.word	Minute_Handler
 167              		.cfi_endproc
 168              	.LFE38:
 169              		.size	initAll, .-initAll
 170              		.section	.text.initBLE,"ax",%progbits
 171              		.align	2
 172              		.global	initBLE
 173              		.code	16
 174              		.thumb_func
 175              		.type	initBLE, %function
 176              	initBLE:
 177              	.LFB39:
  61:.\main.c      **** 
  62:.\main.c      **** void initBLE(){
 178              		.loc 1 62 0
 179              		.cfi_startproc
 180 0000 80B5     		push	{r7, lr}
 181              		.cfi_def_cfa_offset 8
 182              		.cfi_offset 7, -8
 183              		.cfi_offset 14, -4
 184 0002 00AF     		add	r7, sp, #0
 185              		.cfi_def_cfa_register 7
  63:.\main.c      ****     CyBle_Start( StackEventHandler );
 186              		.loc 1 63 0
 187 0004 0A4B     		ldr	r3, .L8
 188 0006 181C     		mov	r0, r3
 189 0008 FFF7FEFF 		bl	CyBle_Start
  64:.\main.c      ****     deviceConnected = 0; 
 190              		.loc 1 64 0
 191 000c 094B     		ldr	r3, .L8+4
 192 000e 0022     		mov	r2, #0
 193 0010 1A70     		strb	r2, [r3]
  65:.\main.c      ****     restartAdvertisement = 0 ; 
 194              		.loc 1 65 0
 195 0012 094B     		ldr	r3, .L8+8
 196 0014 0022     		mov	r2, #0
 197 0016 1A70     		strb	r2, [r3]
  66:.\main.c      ****     busyStatus = 0; 
 198              		.loc 1 66 0
 199 0018 084B     		ldr	r3, .L8+12
 200 001a 0022     		mov	r2, #0
 201 001c 1A70     		strb	r2, [r3]
  67:.\main.c      ****     whatToDo = 0;
 202              		.loc 1 67 0
 203 001e 084B     		ldr	r3, .L8+16
 204 0020 0022     		mov	r2, #0
 205 0022 1A70     		strb	r2, [r3]
  68:.\main.c      ****     started = 0;
 206              		.loc 1 68 0
 207 0024 074B     		ldr	r3, .L8+20
 208 0026 0022     		mov	r2, #0
 209 0028 1A70     		strb	r2, [r3]
  69:.\main.c      **** }
 210              		.loc 1 69 0
 211 002a BD46     		mov	sp, r7
 212              		@ sp needed
ARM GAS  C:\Users\Matthew\AppData\Local\Temp\ccBs485u.s 			page 6


 213 002c 80BD     		pop	{r7, pc}
 214              	.L9:
 215 002e C046     		.align	2
 216              	.L8:
 217 0030 00000000 		.word	StackEventHandler
 218 0034 00000000 		.word	deviceConnected
 219 0038 00000000 		.word	restartAdvertisement
 220 003c 00000000 		.word	busyStatus
 221 0040 00000000 		.word	whatToDo
 222 0044 00000000 		.word	started
 223              		.cfi_endproc
 224              	.LFE39:
 225              		.size	initBLE, .-initBLE
 226              		.section	.text.StackEventHandler,"ax",%progbits
 227              		.align	2
 228              		.global	StackEventHandler
 229              		.code	16
 230              		.thumb_func
 231              		.type	StackEventHandler, %function
 232              	StackEventHandler:
 233              	.LFB40:
  70:.\main.c      **** 
  71:.\main.c      **** void StackEventHandler( uint32 eventCode, void *eventParam )
  72:.\main.c      **** {
 234              		.loc 1 72 0
 235              		.cfi_startproc
 236 0000 80B5     		push	{r7, lr}
 237              		.cfi_def_cfa_offset 8
 238              		.cfi_offset 7, -8
 239              		.cfi_offset 14, -4
 240 0002 84B0     		sub	sp, sp, #16
 241              		.cfi_def_cfa_offset 24
 242 0004 00AF     		add	r7, sp, #0
 243              		.cfi_def_cfa_register 7
 244 0006 7860     		str	r0, [r7, #4]
 245 0008 3960     		str	r1, [r7]
  73:.\main.c      ****     CYBLE_GATTS_WRITE_REQ_PARAM_T *wrReqParam;
  74:.\main.c      ****     
  75:.\main.c      ****     switch( eventCode ){
 246              		.loc 1 75 0
 247 000a 7B68     		ldr	r3, [r7, #4]
 248 000c 282B     		cmp	r3, #40
 249 000e 0DD0     		beq	.L12
 250 0010 05D8     		bhi	.L13
 251 0012 012B     		cmp	r3, #1
 252 0014 0AD0     		beq	.L12
 253 0016 052B     		cmp	r3, #5
 254 0018 00D1     		bne	.LCB139
 255 001a EAE0     		b	.L14	@long jump
 256              	.LCB139:
 257              	.LBB2:
  76:.\main.c      ****         case CYBLE_EVT_STACK_ON:       
  77:.\main.c      ****         case CYBLE_EVT_GAP_DEVICE_DISCONNECTED:            
  78:.\main.c      ****             CyBle_GappStartAdvertisement(CYBLE_ADVERTISING_FAST);
  79:.\main.c      ****             deviceConnected = 0;
  80:.\main.c      ****         break;
  81:.\main.c      **** 
ARM GAS  C:\Users\Matthew\AppData\Local\Temp\ccBs485u.s 			page 7


  82:.\main.c      ****         /* GAP Peripheral events */
  83:.\main.c      **** 
  84:.\main.c      **** //        case CYBLE_EVT_GAPP_ADVERTISEMENT_START_STOP:
  85:.\main.c      **** //            if(CyBle_GetState() == CYBLE_STATE_DISCONNECTED){
  86:.\main.c      **** //                restartAdvertisement = 0;
  87:.\main.c      **** //            }
  88:.\main.c      **** //        break;
  89:.\main.c      **** 
  90:.\main.c      ****         /* GATT events */
  91:.\main.c      **** 
  92:.\main.c      ****         case CYBLE_EVT_GATT_CONNECT_IND:
  93:.\main.c      ****             connectionHandle = *(CYBLE_CONN_HANDLE_T*)eventParam;
  94:.\main.c      ****             deviceConnected = 1; 
  95:.\main.c      ****             break;
  96:.\main.c      **** 
  97:.\main.c      ****         case CYBLE_EVT_GATT_DISCONNECT_IND:
  98:.\main.c      ****             deviceConnected = 0;
  99:.\main.c      ****             uint32 i = 0;
 100:.\main.c      ****             for(; i < sizeof(NOTIFY)/sizeof(int); i++)
 101:.\main.c      ****                 NOTIFY[i] = 0;
 102:.\main.c      ****             break;
 103:.\main.c      ****             
 104:.\main.c      ****         case CYBLE_EVT_GATTS_WRITE_REQ:				
 105:.\main.c      **** 			/*When this event is triggered, the peripheral has received 
 106:.\main.c      **** 			* a write command on the custom characteristic */
 107:.\main.c      **** 			
 108:.\main.c      **** 			/* Extract the write value from the event parameter */
 109:.\main.c      ****             wrReqParam = (CYBLE_GATTS_WRITE_REQ_PARAM_T *) eventParam;
 110:.\main.c      ****             
 111:.\main.c      ****             charCode = -1;
 112:.\main.c      ****             
 113:.\main.c      ****             switch(wrReqParam->handleValPair.attrHandle){
 114:.\main.c      ****                 case CYBLE_BIOSNAP_TEMPERATURE_TEMPCCC_DESC_HANDLE:
 115:.\main.c      ****                     CyBle_GattsWriteAttributeValue(&wrReqParam->handleValPair, 0, &cyBle_connHandle
 116:.\main.c      ****                     NOTIFY[TEMPERATURE] = wrReqParam->handleValPair.value.val[0] & 0x01; 
 117:.\main.c      ****                     CyBle_GattsWriteRsp(cyBle_connHandle);
 118:.\main.c      ****                 break;
 119:.\main.c      ****                     
 120:.\main.c      ****                 case CYBLE_BIOSNAP_ACCELEROMETER_ACCELCCC_DESC_HANDLE:
 121:.\main.c      ****                     CyBle_GattsWriteAttributeValue(&wrReqParam->handleValPair, 0, &cyBle_connHandle
 122:.\main.c      ****                     NOTIFY[ACCELEROMETER] = wrReqParam->handleValPair.value.val[0] & 0x01; 
 123:.\main.c      ****                     CyBle_GattsWriteRsp(cyBle_connHandle);
 124:.\main.c      ****                 break;
 125:.\main.c      ****                 
 126:.\main.c      ****                 case CYBLE_BIOSNAP_OXYGEN_OXYGENCCC_DESC_HANDLE:
 127:.\main.c      ****                     CyBle_GattsWriteAttributeValue(&wrReqParam->handleValPair, 0, &cyBle_connHandle
 128:.\main.c      ****                     NOTIFY[OXYGEN] = wrReqParam->handleValPair.value.val[0] & 0x01; 
 129:.\main.c      ****                     CyBle_GattsWriteRsp(cyBle_connHandle);
 130:.\main.c      ****                 break;
 131:.\main.c      ****                     
 132:.\main.c      ****                 case CYBLE_BIOSNAP_HEART_HEARTCCC_DESC_HANDLE:
 133:.\main.c      ****                     CyBle_GattsWriteAttributeValue(&wrReqParam->handleValPair, 0, &cyBle_connHandle
 134:.\main.c      ****                     NOTIFY[HEART] = wrReqParam->handleValPair.value.val[0] & 0x01; 
 135:.\main.c      ****                     CyBle_GattsWriteRsp(cyBle_connHandle);
 136:.\main.c      ****                 break;
 137:.\main.c      ****                     
 138:.\main.c      ****                 case CYBLE_BIOSNAP_BATTERY_BATCCC_DESC_HANDLE:
ARM GAS  C:\Users\Matthew\AppData\Local\Temp\ccBs485u.s 			page 8


 139:.\main.c      ****                     CyBle_GattsWriteAttributeValue(&wrReqParam->handleValPair, 0, &cyBle_connHandle
 140:.\main.c      ****                     NOTIFY[BATTERY] = wrReqParam->handleValPair.value.val[0] & 0x01; 
 141:.\main.c      ****                     CyBle_GattsWriteRsp(cyBle_connHandle);
 142:.\main.c      ****                 break;
 143:.\main.c      ****             }
 144:.\main.c      ****             break; 
 145:.\main.c      ****         
 146:.\main.c      ****         /* default catch-all case */
 147:.\main.c      ****         case CYBLE_EVT_STACK_BUSY_STATUS:
 148:.\main.c      ****             busyStatus = *(uint8*) eventParam;
 149:.\main.c      ****             
 150:.\main.c      ****         default:
 151:.\main.c      ****         break;
 258              		.loc 1 151 0
 259 001c F0E0     		b	.L10
 260              	.L13:
 261              	.LBE2:
  75:.\main.c      ****         case CYBLE_EVT_STACK_ON:       
 262              		.loc 1 75 0
 263 001e 422B     		cmp	r3, #66
 264 0020 19D0     		beq	.L15
 265 0022 4C2B     		cmp	r3, #76
 266 0024 29D0     		beq	.L16
 267 0026 412B     		cmp	r3, #65
 268 0028 07D0     		beq	.L17
 269              	.LBB3:
 270              		.loc 1 151 0
 271 002a E9E0     		b	.L10
 272              	.L12:
  78:.\main.c      ****             deviceConnected = 0;
 273              		.loc 1 78 0
 274 002c 0020     		mov	r0, #0
 275 002e FFF7FEFF 		bl	CyBle_GappStartAdvertisement
  79:.\main.c      ****         break;
 276              		.loc 1 79 0
 277 0032 754B     		ldr	r3, .L29
 278 0034 0022     		mov	r2, #0
 279 0036 1A70     		strb	r2, [r3]
  80:.\main.c      **** 
 280              		.loc 1 80 0
 281 0038 E2E0     		b	.L10
 282              	.L17:
  93:.\main.c      ****             deviceConnected = 1; 
 283              		.loc 1 93 0
 284 003a 744A     		ldr	r2, .L29+4
 285 003c 3B68     		ldr	r3, [r7]
 286 003e 111C     		mov	r1, r2
 287 0040 1A1C     		mov	r2, r3
 288 0042 0223     		mov	r3, #2
 289 0044 081C     		mov	r0, r1
 290 0046 111C     		mov	r1, r2
 291 0048 1A1C     		mov	r2, r3
 292 004a FFF7FEFF 		bl	memcpy
  94:.\main.c      ****             break;
 293              		.loc 1 94 0
 294 004e 6E4B     		ldr	r3, .L29
 295 0050 0122     		mov	r2, #1
ARM GAS  C:\Users\Matthew\AppData\Local\Temp\ccBs485u.s 			page 9


 296 0052 1A70     		strb	r2, [r3]
  95:.\main.c      **** 
 297              		.loc 1 95 0
 298 0054 D4E0     		b	.L10
 299              	.L15:
  98:.\main.c      ****             uint32 i = 0;
 300              		.loc 1 98 0
 301 0056 6C4B     		ldr	r3, .L29
 302 0058 0022     		mov	r2, #0
 303 005a 1A70     		strb	r2, [r3]
  99:.\main.c      ****             for(; i < sizeof(NOTIFY)/sizeof(int); i++)
 304              		.loc 1 99 0
 305 005c 0023     		mov	r3, #0
 306 005e FB60     		str	r3, [r7, #12]
 100:.\main.c      ****                 NOTIFY[i] = 0;
 307              		.loc 1 100 0
 308 0060 07E0     		b	.L19
 309              	.L20:
 101:.\main.c      ****             break;
 310              		.loc 1 101 0 discriminator 2
 311 0062 6B4B     		ldr	r3, .L29+8
 312 0064 FA68     		ldr	r2, [r7, #12]
 313 0066 9200     		lsl	r2, r2, #2
 314 0068 0021     		mov	r1, #0
 315 006a D150     		str	r1, [r2, r3]
 100:.\main.c      ****                 NOTIFY[i] = 0;
 316              		.loc 1 100 0 discriminator 2
 317 006c FB68     		ldr	r3, [r7, #12]
 318 006e 0133     		add	r3, r3, #1
 319 0070 FB60     		str	r3, [r7, #12]
 320              	.L19:
 100:.\main.c      ****                 NOTIFY[i] = 0;
 321              		.loc 1 100 0 is_stmt 0 discriminator 1
 322 0072 FB68     		ldr	r3, [r7, #12]
 323 0074 042B     		cmp	r3, #4
 324 0076 F4D9     		bls	.L20
 102:.\main.c      ****             
 325              		.loc 1 102 0 is_stmt 1
 326 0078 C2E0     		b	.L10
 327              	.L16:
 109:.\main.c      ****             
 328              		.loc 1 109 0
 329 007a 3B68     		ldr	r3, [r7]
 330 007c BB60     		str	r3, [r7, #8]
 111:.\main.c      ****             
 331              		.loc 1 111 0
 332 007e 654B     		ldr	r3, .L29+12
 333 0080 0122     		mov	r2, #1
 334 0082 5242     		neg	r2, r2
 335 0084 1A60     		str	r2, [r3]
 113:.\main.c      ****                 case CYBLE_BIOSNAP_TEMPERATURE_TEMPCCC_DESC_HANDLE:
 336              		.loc 1 113 0
 337 0086 BB68     		ldr	r3, [r7, #8]
 338 0088 9B89     		ldrh	r3, [r3, #12]
 339 008a 113B     		sub	r3, r3, #17
 340 008c 0C2B     		cmp	r3, #12
 341 008e 00D9     		bls	.LCB218
ARM GAS  C:\Users\Matthew\AppData\Local\Temp\ccBs485u.s 			page 10


 342 0090 B5E0     		b	.L28	@long jump
 343              	.LCB218:
 344 0092 9A00     		lsl	r2, r3, #2
 345 0094 604B     		ldr	r3, .L29+16
 346 0096 D318     		add	r3, r2, r3
 347 0098 1B68     		ldr	r3, [r3]
 348 009a 9F46     		mov	pc, r3
 349              		.section	.rodata
 350              		.align	2
 351              	.L23:
 352 0014 E0000000 		.word	.L22
 353 0018 FE010000 		.word	.L28
 354 001c FE010000 		.word	.L28
 355 0020 AC010000 		.word	.L24
 356 0024 FE010000 		.word	.L28
 357 0028 FE010000 		.word	.L28
 358 002c 68010000 		.word	.L25
 359 0030 FE010000 		.word	.L28
 360 0034 FE010000 		.word	.L28
 361 0038 24010000 		.word	.L26
 362 003c FE010000 		.word	.L28
 363 0040 FE010000 		.word	.L28
 364 0044 9C000000 		.word	.L27
 365              		.section	.text.StackEventHandler
 366              	.L27:
 115:.\main.c      ****                     NOTIFY[TEMPERATURE] = wrReqParam->handleValPair.value.val[0] & 0x01; 
 367              		.loc 1 115 0
 368 009c BB68     		ldr	r3, [r7, #8]
 369 009e 1A1D     		add	r2, r3, #4
 370 00a0 5E4B     		ldr	r3, .L29+20
 371 00a2 101C     		mov	r0, r2
 372 00a4 0021     		mov	r1, #0
 373 00a6 1A1C     		mov	r2, r3
 374 00a8 4023     		mov	r3, #64
 375 00aa FFF7FEFF 		bl	CyBle_GattsWriteAttributeValue
 116:.\main.c      ****                     CyBle_GattsWriteRsp(cyBle_connHandle);
 376              		.loc 1 116 0
 377 00ae 0422     		mov	r2, #4
 378 00b0 BB68     		ldr	r3, [r7, #8]
 379 00b2 5B68     		ldr	r3, [r3, #4]
 380 00b4 1B78     		ldrb	r3, [r3]
 381 00b6 191C     		mov	r1, r3
 382 00b8 0123     		mov	r3, #1
 383 00ba 1940     		and	r1, r3
 384 00bc 544B     		ldr	r3, .L29+8
 385 00be 9200     		lsl	r2, r2, #2
 386 00c0 D150     		str	r1, [r2, r3]
 117:.\main.c      ****                 break;
 387              		.loc 1 117 0
 388 00c2 564B     		ldr	r3, .L29+20
 389 00c4 1A78     		ldrb	r2, [r3]
 390 00c6 5B78     		ldrb	r3, [r3, #1]
 391 00c8 1B02     		lsl	r3, r3, #8
 392 00ca 1A43     		orr	r2, r3
 393 00cc 0023     		mov	r3, #0
 394 00ce 1204     		lsl	r2, r2, #16
 395 00d0 120C     		lsr	r2, r2, #16
ARM GAS  C:\Users\Matthew\AppData\Local\Temp\ccBs485u.s 			page 11


 396 00d2 1B0C     		lsr	r3, r3, #16
 397 00d4 1B04     		lsl	r3, r3, #16
 398 00d6 1343     		orr	r3, r2
 399 00d8 181C     		mov	r0, r3
 400 00da FFF7FEFF 		bl	CyBle_GattsWriteRsp
 118:.\main.c      ****                     
 401              		.loc 1 118 0
 402 00de 87E0     		b	.L21
 403              	.L22:
 121:.\main.c      ****                     NOTIFY[ACCELEROMETER] = wrReqParam->handleValPair.value.val[0] & 0x01; 
 404              		.loc 1 121 0
 405 00e0 BB68     		ldr	r3, [r7, #8]
 406 00e2 1A1D     		add	r2, r3, #4
 407 00e4 4D4B     		ldr	r3, .L29+20
 408 00e6 101C     		mov	r0, r2
 409 00e8 0021     		mov	r1, #0
 410 00ea 1A1C     		mov	r2, r3
 411 00ec 4023     		mov	r3, #64
 412 00ee FFF7FEFF 		bl	CyBle_GattsWriteAttributeValue
 122:.\main.c      ****                     CyBle_GattsWriteRsp(cyBle_connHandle);
 413              		.loc 1 122 0
 414 00f2 0022     		mov	r2, #0
 415 00f4 BB68     		ldr	r3, [r7, #8]
 416 00f6 5B68     		ldr	r3, [r3, #4]
 417 00f8 1B78     		ldrb	r3, [r3]
 418 00fa 191C     		mov	r1, r3
 419 00fc 0123     		mov	r3, #1
 420 00fe 1940     		and	r1, r3
 421 0100 434B     		ldr	r3, .L29+8
 422 0102 9200     		lsl	r2, r2, #2
 423 0104 D150     		str	r1, [r2, r3]
 123:.\main.c      ****                 break;
 424              		.loc 1 123 0
 425 0106 454B     		ldr	r3, .L29+20
 426 0108 1A78     		ldrb	r2, [r3]
 427 010a 5B78     		ldrb	r3, [r3, #1]
 428 010c 1B02     		lsl	r3, r3, #8
 429 010e 1A43     		orr	r2, r3
 430 0110 0023     		mov	r3, #0
 431 0112 1204     		lsl	r2, r2, #16
 432 0114 120C     		lsr	r2, r2, #16
 433 0116 1B0C     		lsr	r3, r3, #16
 434 0118 1B04     		lsl	r3, r3, #16
 435 011a 1343     		orr	r3, r2
 436 011c 181C     		mov	r0, r3
 437 011e FFF7FEFF 		bl	CyBle_GattsWriteRsp
 124:.\main.c      ****                 
 438              		.loc 1 124 0
 439 0122 65E0     		b	.L21
 440              	.L26:
 127:.\main.c      ****                     NOTIFY[OXYGEN] = wrReqParam->handleValPair.value.val[0] & 0x01; 
 441              		.loc 1 127 0
 442 0124 BB68     		ldr	r3, [r7, #8]
 443 0126 1A1D     		add	r2, r3, #4
 444 0128 3C4B     		ldr	r3, .L29+20
 445 012a 101C     		mov	r0, r2
 446 012c 0021     		mov	r1, #0
ARM GAS  C:\Users\Matthew\AppData\Local\Temp\ccBs485u.s 			page 12


 447 012e 1A1C     		mov	r2, r3
 448 0130 4023     		mov	r3, #64
 449 0132 FFF7FEFF 		bl	CyBle_GattsWriteAttributeValue
 128:.\main.c      ****                     CyBle_GattsWriteRsp(cyBle_connHandle);
 450              		.loc 1 128 0
 451 0136 0322     		mov	r2, #3
 452 0138 BB68     		ldr	r3, [r7, #8]
 453 013a 5B68     		ldr	r3, [r3, #4]
 454 013c 1B78     		ldrb	r3, [r3]
 455 013e 191C     		mov	r1, r3
 456 0140 0123     		mov	r3, #1
 457 0142 1940     		and	r1, r3
 458 0144 324B     		ldr	r3, .L29+8
 459 0146 9200     		lsl	r2, r2, #2
 460 0148 D150     		str	r1, [r2, r3]
 129:.\main.c      ****                 break;
 461              		.loc 1 129 0
 462 014a 344B     		ldr	r3, .L29+20
 463 014c 1A78     		ldrb	r2, [r3]
 464 014e 5B78     		ldrb	r3, [r3, #1]
 465 0150 1B02     		lsl	r3, r3, #8
 466 0152 1A43     		orr	r2, r3
 467 0154 0023     		mov	r3, #0
 468 0156 1204     		lsl	r2, r2, #16
 469 0158 120C     		lsr	r2, r2, #16
 470 015a 1B0C     		lsr	r3, r3, #16
 471 015c 1B04     		lsl	r3, r3, #16
 472 015e 1343     		orr	r3, r2
 473 0160 181C     		mov	r0, r3
 474 0162 FFF7FEFF 		bl	CyBle_GattsWriteRsp
 130:.\main.c      ****                     
 475              		.loc 1 130 0
 476 0166 43E0     		b	.L21
 477              	.L25:
 133:.\main.c      ****                     NOTIFY[HEART] = wrReqParam->handleValPair.value.val[0] & 0x01; 
 478              		.loc 1 133 0
 479 0168 BB68     		ldr	r3, [r7, #8]
 480 016a 1A1D     		add	r2, r3, #4
 481 016c 2B4B     		ldr	r3, .L29+20
 482 016e 101C     		mov	r0, r2
 483 0170 0021     		mov	r1, #0
 484 0172 1A1C     		mov	r2, r3
 485 0174 4023     		mov	r3, #64
 486 0176 FFF7FEFF 		bl	CyBle_GattsWriteAttributeValue
 134:.\main.c      ****                     CyBle_GattsWriteRsp(cyBle_connHandle);
 487              		.loc 1 134 0
 488 017a 0222     		mov	r2, #2
 489 017c BB68     		ldr	r3, [r7, #8]
 490 017e 5B68     		ldr	r3, [r3, #4]
 491 0180 1B78     		ldrb	r3, [r3]
 492 0182 191C     		mov	r1, r3
 493 0184 0123     		mov	r3, #1
 494 0186 1940     		and	r1, r3
 495 0188 214B     		ldr	r3, .L29+8
 496 018a 9200     		lsl	r2, r2, #2
 497 018c D150     		str	r1, [r2, r3]
 135:.\main.c      ****                 break;
ARM GAS  C:\Users\Matthew\AppData\Local\Temp\ccBs485u.s 			page 13


 498              		.loc 1 135 0
 499 018e 234B     		ldr	r3, .L29+20
 500 0190 1A78     		ldrb	r2, [r3]
 501 0192 5B78     		ldrb	r3, [r3, #1]
 502 0194 1B02     		lsl	r3, r3, #8
 503 0196 1A43     		orr	r2, r3
 504 0198 0023     		mov	r3, #0
 505 019a 1204     		lsl	r2, r2, #16
 506 019c 120C     		lsr	r2, r2, #16
 507 019e 1B0C     		lsr	r3, r3, #16
 508 01a0 1B04     		lsl	r3, r3, #16
 509 01a2 1343     		orr	r3, r2
 510 01a4 181C     		mov	r0, r3
 511 01a6 FFF7FEFF 		bl	CyBle_GattsWriteRsp
 136:.\main.c      ****                     
 512              		.loc 1 136 0
 513 01aa 21E0     		b	.L21
 514              	.L24:
 139:.\main.c      ****                     NOTIFY[BATTERY] = wrReqParam->handleValPair.value.val[0] & 0x01; 
 515              		.loc 1 139 0
 516 01ac BB68     		ldr	r3, [r7, #8]
 517 01ae 1A1D     		add	r2, r3, #4
 518 01b0 1A4B     		ldr	r3, .L29+20
 519 01b2 101C     		mov	r0, r2
 520 01b4 0021     		mov	r1, #0
 521 01b6 1A1C     		mov	r2, r3
 522 01b8 4023     		mov	r3, #64
 523 01ba FFF7FEFF 		bl	CyBle_GattsWriteAttributeValue
 140:.\main.c      ****                     CyBle_GattsWriteRsp(cyBle_connHandle);
 524              		.loc 1 140 0
 525 01be 0122     		mov	r2, #1
 526 01c0 BB68     		ldr	r3, [r7, #8]
 527 01c2 5B68     		ldr	r3, [r3, #4]
 528 01c4 1B78     		ldrb	r3, [r3]
 529 01c6 191C     		mov	r1, r3
 530 01c8 0123     		mov	r3, #1
 531 01ca 1940     		and	r1, r3
 532 01cc 104B     		ldr	r3, .L29+8
 533 01ce 9200     		lsl	r2, r2, #2
 534 01d0 D150     		str	r1, [r2, r3]
 141:.\main.c      ****                 break;
 535              		.loc 1 141 0
 536 01d2 124B     		ldr	r3, .L29+20
 537 01d4 1A78     		ldrb	r2, [r3]
 538 01d6 5B78     		ldrb	r3, [r3, #1]
 539 01d8 1B02     		lsl	r3, r3, #8
 540 01da 1A43     		orr	r2, r3
 541 01dc 0023     		mov	r3, #0
 542 01de 1204     		lsl	r2, r2, #16
 543 01e0 120C     		lsr	r2, r2, #16
 544 01e2 1B0C     		lsr	r3, r3, #16
 545 01e4 1B04     		lsl	r3, r3, #16
 546 01e6 1343     		orr	r3, r2
 547 01e8 181C     		mov	r0, r3
 548 01ea FFF7FEFF 		bl	CyBle_GattsWriteRsp
 142:.\main.c      ****             }
 549              		.loc 1 142 0
ARM GAS  C:\Users\Matthew\AppData\Local\Temp\ccBs485u.s 			page 14


 550 01ee C046     		mov	r8, r8
 551              	.L21:
 144:.\main.c      ****         
 552              		.loc 1 144 0
 553 01f0 05E0     		b	.L28
 554              	.L14:
 148:.\main.c      ****             
 555              		.loc 1 148 0
 556 01f2 3B68     		ldr	r3, [r7]
 557 01f4 1A78     		ldrb	r2, [r3]
 558 01f6 0A4B     		ldr	r3, .L29+24
 559 01f8 1A70     		strb	r2, [r3]
 560              		.loc 1 151 0
 561 01fa C046     		mov	r8, r8
 562 01fc 00E0     		b	.L10
 563              	.L28:
 144:.\main.c      ****         
 564              		.loc 1 144 0
 565 01fe C046     		mov	r8, r8
 566              	.L10:
 567              	.LBE3:
 152:.\main.c      ****         
 153:.\main.c      ****     }
 154:.\main.c      **** }
 568              		.loc 1 154 0
 569 0200 BD46     		mov	sp, r7
 570 0202 04B0     		add	sp, sp, #16
 571              		@ sp needed
 572 0204 80BD     		pop	{r7, pc}
 573              	.L30:
 574 0206 C046     		.align	2
 575              	.L29:
 576 0208 00000000 		.word	deviceConnected
 577 020c 00000000 		.word	connectionHandle
 578 0210 00000000 		.word	NOTIFY
 579 0214 00000000 		.word	charCode
 580 0218 14000000 		.word	.L23
 581 021c 00000000 		.word	cyBle_connHandle
 582 0220 00000000 		.word	busyStatus
 583              		.cfi_endproc
 584              	.LFE40:
 585              		.size	StackEventHandler, .-StackEventHandler
 586              		.section	.text.updateCharacteristic,"ax",%progbits
 587              		.align	2
 588              		.global	updateCharacteristic
 589              		.code	16
 590              		.thumb_func
 591              		.type	updateCharacteristic, %function
 592              	updateCharacteristic:
 593              	.LFB41:
 155:.\main.c      **** 
 156:.\main.c      **** void updateCharacteristic(int charCode, int charHandle, uint32 value){
 594              		.loc 1 156 0
 595              		.cfi_startproc
 596 0000 80B5     		push	{r7, lr}
 597              		.cfi_def_cfa_offset 8
 598              		.cfi_offset 7, -8
ARM GAS  C:\Users\Matthew\AppData\Local\Temp\ccBs485u.s 			page 15


 599              		.cfi_offset 14, -4
 600 0002 88B0     		sub	sp, sp, #32
 601              		.cfi_def_cfa_offset 40
 602 0004 00AF     		add	r7, sp, #0
 603              		.cfi_def_cfa_register 7
 604 0006 F860     		str	r0, [r7, #12]
 605 0008 B960     		str	r1, [r7, #8]
 606 000a 7A60     		str	r2, [r7, #4]
 157:.\main.c      ****     if(CyBle_GetState() != CYBLE_STATE_CONNECTED)
 607              		.loc 1 157 0
 608 000c 1D4B     		ldr	r3, .L35
 609 000e 1B78     		ldrb	r3, [r3]
 610 0010 022B     		cmp	r3, #2
 611 0012 33D1     		bne	.L31
 158:.\main.c      ****         return;
 159:.\main.c      ****    
 160:.\main.c      ****     CYBLE_GATT_HANDLE_VALUE_PAIR_T CCCDHandle; 
 161:.\main.c      **** 
 162:.\main.c      ****     CCCDHandle.attrHandle = charHandle;
 612              		.loc 1 162 0
 613 0014 BB68     		ldr	r3, [r7, #8]
 614 0016 9AB2     		uxth	r2, r3
 615 0018 1423     		mov	r3, #20
 616 001a FB18     		add	r3, r7, r3
 617 001c 1A81     		strh	r2, [r3, #8]
 163:.\main.c      ****     CCCDHandle.value.val = (uint8 *)&value;
 618              		.loc 1 163 0
 619 001e 1423     		mov	r3, #20
 620 0020 FB18     		add	r3, r7, r3
 621 0022 3A1D     		add	r2, r7, #4
 622 0024 1A60     		str	r2, [r3]
 164:.\main.c      ****     CCCDHandle.value.len = 4;
 623              		.loc 1 164 0
 624 0026 1423     		mov	r3, #20
 625 0028 FB18     		add	r3, r7, r3
 626 002a 0422     		mov	r2, #4
 627 002c 9A80     		strh	r2, [r3, #4]
 165:.\main.c      ****     
 166:.\main.c      ****     CyBle_GattsWriteAttributeValue(&CCCDHandle, 0, &cyBle_connHandle, CYBLE_GATT_DB_LOCALLY_INITIAT
 628              		.loc 1 166 0
 629 002e 1423     		mov	r3, #20
 630 0030 FA18     		add	r2, r7, r3
 631 0032 154B     		ldr	r3, .L35+4
 632 0034 101C     		mov	r0, r2
 633 0036 0021     		mov	r1, #0
 634 0038 1A1C     		mov	r2, r3
 635 003a 0023     		mov	r3, #0
 636 003c FFF7FEFF 		bl	CyBle_GattsWriteAttributeValue
 167:.\main.c      ****     CyBle_GattsReadAttributeValue(&CCCDHandle, &cyBle_connHandle, CYBLE_GATT_DB_LOCALLY_INITIATED);
 637              		.loc 1 167 0
 638 0040 1423     		mov	r3, #20
 639 0042 FA18     		add	r2, r7, r3
 640 0044 104B     		ldr	r3, .L35+4
 641 0046 101C     		mov	r0, r2
 642 0048 191C     		mov	r1, r3
 643 004a 0022     		mov	r2, #0
 644 004c FFF7FEFF 		bl	CyBle_GattsReadAttributeValue
ARM GAS  C:\Users\Matthew\AppData\Local\Temp\ccBs485u.s 			page 16


 168:.\main.c      ****    
 169:.\main.c      ****     if(NOTIFY[charCode])
 645              		.loc 1 169 0
 646 0050 0E4B     		ldr	r3, .L35+8
 647 0052 FA68     		ldr	r2, [r7, #12]
 648 0054 9200     		lsl	r2, r2, #2
 649 0056 D358     		ldr	r3, [r2, r3]
 650 0058 002B     		cmp	r3, #0
 651 005a 0FD0     		beq	.L31
 170:.\main.c      ****         CyBle_GattsNotification(cyBle_connHandle, &CCCDHandle);
 652              		.loc 1 170 0
 653 005c 0A4B     		ldr	r3, .L35+4
 654 005e 1422     		mov	r2, #20
 655 0060 B918     		add	r1, r7, r2
 656 0062 1A78     		ldrb	r2, [r3]
 657 0064 5B78     		ldrb	r3, [r3, #1]
 658 0066 1B02     		lsl	r3, r3, #8
 659 0068 1A43     		orr	r2, r3
 660 006a 0023     		mov	r3, #0
 661 006c 1204     		lsl	r2, r2, #16
 662 006e 120C     		lsr	r2, r2, #16
 663 0070 1B0C     		lsr	r3, r3, #16
 664 0072 1B04     		lsl	r3, r3, #16
 665 0074 1343     		orr	r3, r2
 666 0076 181C     		mov	r0, r3
 667 0078 FFF7FEFF 		bl	CyBle_GattsNotification
 668              	.L31:
 171:.\main.c      **** }
 669              		.loc 1 171 0
 670 007c BD46     		mov	sp, r7
 671 007e 08B0     		add	sp, sp, #32
 672              		@ sp needed
 673 0080 80BD     		pop	{r7, pc}
 674              	.L36:
 675 0082 C046     		.align	2
 676              	.L35:
 677 0084 00000000 		.word	cyBle_state
 678 0088 00000000 		.word	cyBle_connHandle
 679 008c 00000000 		.word	NOTIFY
 680              		.cfi_endproc
 681              	.LFE41:
 682              		.size	updateCharacteristic, .-updateCharacteristic
 683              		.section	.text.reverseUint32,"ax",%progbits
 684              		.align	2
 685              		.global	reverseUint32
 686              		.code	16
 687              		.thumb_func
 688              		.type	reverseUint32, %function
 689              	reverseUint32:
 690              	.LFB42:
 172:.\main.c      **** 
 173:.\main.c      **** uint32 reverseUint32(uint32 num){
 691              		.loc 1 173 0
 692              		.cfi_startproc
 693 0000 80B5     		push	{r7, lr}
 694              		.cfi_def_cfa_offset 8
 695              		.cfi_offset 7, -8
ARM GAS  C:\Users\Matthew\AppData\Local\Temp\ccBs485u.s 			page 17


 696              		.cfi_offset 14, -4
 697 0002 82B0     		sub	sp, sp, #8
 698              		.cfi_def_cfa_offset 16
 699 0004 00AF     		add	r7, sp, #0
 700              		.cfi_def_cfa_register 7
 701 0006 7860     		str	r0, [r7, #4]
 174:.\main.c      ****     return ((0xFF000000 & num) >> 24) | ((0x00FF0000 & num) >> 8) | ((0x0000FF00 & num) << 8) | ((0
 702              		.loc 1 174 0
 703 0008 7B68     		ldr	r3, [r7, #4]
 704 000a 1A0E     		lsr	r2, r3, #24
 705 000c 7968     		ldr	r1, [r7, #4]
 706 000e FF23     		mov	r3, #255
 707 0010 1B04     		lsl	r3, r3, #16
 708 0012 0B40     		and	r3, r1
 709 0014 1B0A     		lsr	r3, r3, #8
 710 0016 1A43     		orr	r2, r3
 711 0018 7968     		ldr	r1, [r7, #4]
 712 001a FF23     		mov	r3, #255
 713 001c 1B02     		lsl	r3, r3, #8
 714 001e 0B40     		and	r3, r1
 715 0020 1B02     		lsl	r3, r3, #8
 716 0022 1A43     		orr	r2, r3
 717 0024 7B68     		ldr	r3, [r7, #4]
 718 0026 1B06     		lsl	r3, r3, #24
 719 0028 1343     		orr	r3, r2
 175:.\main.c      **** }
 720              		.loc 1 175 0
 721 002a 181C     		mov	r0, r3
 722 002c BD46     		mov	sp, r7
 723 002e 02B0     		add	sp, sp, #8
 724              		@ sp needed
 725 0030 80BD     		pop	{r7, pc}
 726              		.cfi_endproc
 727              	.LFE42:
 728              		.size	reverseUint32, .-reverseUint32
 729              		.global	__aeabi_f2uiz
 730 0032 C046     		.section	.text.main,"ax",%progbits
 731              		.align	2
 732              		.global	main
 733              		.code	16
 734              		.thumb_func
 735              		.type	main, %function
 736              	main:
 737              	.LFB43:
 176:.\main.c      **** 
 177:.\main.c      **** int main()
 178:.\main.c      **** {
 738              		.loc 1 178 0
 739              		.cfi_startproc
 740 0000 80B5     		push	{r7, lr}
 741              		.cfi_def_cfa_offset 8
 742              		.cfi_offset 7, -8
 743              		.cfi_offset 14, -4
 744 0002 86B0     		sub	sp, sp, #24
 745              		.cfi_def_cfa_offset 32
 746 0004 00AF     		add	r7, sp, #0
 747              		.cfi_def_cfa_register 7
ARM GAS  C:\Users\Matthew\AppData\Local\Temp\ccBs485u.s 			page 18


 179:.\main.c      ****     CyGlobalIntEnable; /* Enable global interrupts. */
 748              		.loc 1 179 0
 749              	@ 179 ".\main.c" 1
 750 0006 62B6     		CPSIE   i
 751              	@ 0 "" 2
 180:.\main.c      ****     initAll();
 752              		.loc 1 180 0
 753              		.code	16
 754 0008 FFF7FEFF 		bl	initAll
 181:.\main.c      ****     
 182:.\main.c      ****     uint32 accel = 0;
 755              		.loc 1 182 0
 756 000c 0023     		mov	r3, #0
 757 000e 7B61     		str	r3, [r7, #20]
 183:.\main.c      ****     uint32 heart = 0;
 758              		.loc 1 183 0
 759 0010 0023     		mov	r3, #0
 760 0012 3B61     		str	r3, [r7, #16]
 184:.\main.c      ****     uint32 oxygen = 0;
 761              		.loc 1 184 0
 762 0014 0023     		mov	r3, #0
 763 0016 FB60     		str	r3, [r7, #12]
 185:.\main.c      ****     uint32 temp = 0;
 764              		.loc 1 185 0
 765 0018 0023     		mov	r3, #0
 766 001a BB60     		str	r3, [r7, #8]
 186:.\main.c      ****     uint32 bat = 0;
 767              		.loc 1 186 0
 768 001c 0023     		mov	r3, #0
 769 001e 7B60     		str	r3, [r7, #4]
 187:.\main.c      ****     
 188:.\main.c      ****     long elapsed = 0;
 770              		.loc 1 188 0
 771 0020 0023     		mov	r3, #0
 772 0022 3B60     		str	r3, [r7]
 773              	.L42:
 189:.\main.c      ****     
 190:.\main.c      ****     for(;;){
 191:.\main.c      ****         
 192:.\main.c      ****         CyBle_ProcessEvents();
 774              		.loc 1 192 0
 775 0024 FFF7FEFF 		bl	CyBle_ProcessEvents
 193:.\main.c      ****         
 194:.\main.c      ****         if(deviceConnected && busyStatus == CYBLE_STACK_STATE_FREE){
 776              		.loc 1 194 0
 777 0028 2D4B     		ldr	r3, .L43
 778 002a 1B78     		ldrb	r3, [r3]
 779 002c 002B     		cmp	r3, #0
 780 002e 53D0     		beq	.L40
 781              		.loc 1 194 0 is_stmt 0 discriminator 1
 782 0030 2C4B     		ldr	r3, .L43+4
 783 0032 1B78     		ldrb	r3, [r3]
 784 0034 002B     		cmp	r3, #0
 785 0036 4FD1     		bne	.L40
 195:.\main.c      ****             PulseOximeter_update();
 786              		.loc 1 195 0 is_stmt 1
 787 0038 FFF7FEFF 		bl	PulseOximeter_update
ARM GAS  C:\Users\Matthew\AppData\Local\Temp\ccBs485u.s 			page 19


 196:.\main.c      ****             elapsed = millis() - tsLastReport;
 788              		.loc 1 196 0
 789 003c FFF7FEFF 		bl	millis
 790 0040 031C     		mov	r3, r0
 791 0042 1A1C     		mov	r2, r3
 792 0044 284B     		ldr	r3, .L43+8
 793 0046 1B68     		ldr	r3, [r3]
 794 0048 D31A     		sub	r3, r2, r3
 795 004a 3B60     		str	r3, [r7]
 197:.\main.c      ****             if (elapsed > REPORTING_PERIOD_MS) {
 796              		.loc 1 197 0
 797 004c 3A68     		ldr	r2, [r7]
 798 004e FA23     		mov	r3, #250
 799 0050 9B00     		lsl	r3, r3, #2
 800 0052 9A42     		cmp	r2, r3
 801 0054 1FDD     		ble	.L41
 198:.\main.c      ****                 oxygen = (uint32)(PulseOximeter_getSpO2());
 802              		.loc 1 198 0
 803 0056 FFF7FEFF 		bl	PulseOximeter_getSpO2
 804 005a 031C     		mov	r3, r0
 805 005c FB60     		str	r3, [r7, #12]
 199:.\main.c      ****                 heart = (uint32)(PulseOximeter_getHeartRate());
 806              		.loc 1 199 0
 807 005e FFF7FEFF 		bl	PulseOximeter_getHeartRate
 808 0062 031C     		add	r3, r0, #0
 809 0064 181C     		add	r0, r3, #0
 810 0066 FFF7FEFF 		bl	__aeabi_f2uiz
 811 006a 031C     		mov	r3, r0
 812 006c 3B61     		str	r3, [r7, #16]
 200:.\main.c      ****                 updateCharacteristic(HEART, CYBLE_BIOSNAP_HEART_CHAR_HANDLE, heart);
 813              		.loc 1 200 0
 814 006e 0222     		mov	r2, #2
 815 0070 3B69     		ldr	r3, [r7, #16]
 816 0072 101C     		mov	r0, r2
 817 0074 1621     		mov	r1, #22
 818 0076 1A1C     		mov	r2, r3
 819 0078 FFF7FEFF 		bl	updateCharacteristic
 201:.\main.c      ****                 updateCharacteristic(OXYGEN, CYBLE_BIOSNAP_OXYGEN_CHAR_HANDLE, oxygen);
 820              		.loc 1 201 0
 821 007c 0322     		mov	r2, #3
 822 007e FB68     		ldr	r3, [r7, #12]
 823 0080 101C     		mov	r0, r2
 824 0082 1921     		mov	r1, #25
 825 0084 1A1C     		mov	r2, r3
 826 0086 FFF7FEFF 		bl	updateCharacteristic
 202:.\main.c      ****                 
 203:.\main.c      ****                 tsLastReport = millis();
 827              		.loc 1 203 0
 828 008a FFF7FEFF 		bl	millis
 829 008e 031C     		mov	r3, r0
 830 0090 1A1C     		mov	r2, r3
 831 0092 154B     		ldr	r3, .L43+8
 832 0094 1A60     		str	r2, [r3]
 833              	.L41:
 204:.\main.c      ****             }
 205:.\main.c      ****             temp = getTemperature();
 834              		.loc 1 205 0
ARM GAS  C:\Users\Matthew\AppData\Local\Temp\ccBs485u.s 			page 20


 835 0096 FFF7FEFF 		bl	getTemperature
 836 009a 031C     		mov	r3, r0
 837 009c BB60     		str	r3, [r7, #8]
 206:.\main.c      ****             updateCharacteristic(TEMPERATURE, CYBLE_BIOSNAP_TEMPERATURE_CHAR_HANDLE, temp);
 838              		.loc 1 206 0
 839 009e 0422     		mov	r2, #4
 840 00a0 BB68     		ldr	r3, [r7, #8]
 841 00a2 101C     		mov	r0, r2
 842 00a4 1C21     		mov	r1, #28
 843 00a6 1A1C     		mov	r2, r3
 844 00a8 FFF7FEFF 		bl	updateCharacteristic
 207:.\main.c      ****         
 208:.\main.c      ****             accel = getAccelXYZ();
 845              		.loc 1 208 0
 846 00ac FFF7FEFF 		bl	getAccelXYZ
 847 00b0 031C     		mov	r3, r0
 848 00b2 7B61     		str	r3, [r7, #20]
 209:.\main.c      ****             updateCharacteristic(ACCELEROMETER, CYBLE_BIOSNAP_ACCELEROMETER_CHAR_HANDLE, accel);
 849              		.loc 1 209 0
 850 00b4 0022     		mov	r2, #0
 851 00b6 7B69     		ldr	r3, [r7, #20]
 852 00b8 101C     		mov	r0, r2
 853 00ba 1021     		mov	r1, #16
 854 00bc 1A1C     		mov	r2, r3
 855 00be FFF7FEFF 		bl	updateCharacteristic
 210:.\main.c      ****             
 211:.\main.c      ****             bat = getBattery();
 856              		.loc 1 211 0
 857 00c2 FFF7FEFF 		bl	getBattery
 858 00c6 031C     		mov	r3, r0
 859 00c8 7B60     		str	r3, [r7, #4]
 212:.\main.c      ****             updateCharacteristic(BATTERY, CYBLE_BIOSNAP_BATTERY_CHAR_HANDLE, bat);
 860              		.loc 1 212 0
 861 00ca 0122     		mov	r2, #1
 862 00cc 7B68     		ldr	r3, [r7, #4]
 863 00ce 101C     		mov	r0, r2
 864 00d0 1321     		mov	r1, #19
 865 00d2 1A1C     		mov	r2, r3
 866 00d4 FFF7FEFF 		bl	updateCharacteristic
 867              	.L40:
 213:.\main.c      ****             
 214:.\main.c      ****         }
 215:.\main.c      ****         CyDelay(10);
 868              		.loc 1 215 0
 869 00d8 0A20     		mov	r0, #10
 870 00da FFF7FEFF 		bl	CyDelay
 216:.\main.c      ****     }
 871              		.loc 1 216 0
 872 00de A1E7     		b	.L42
 873              	.L44:
 874              		.align	2
 875              	.L43:
 876 00e0 00000000 		.word	deviceConnected
 877 00e4 00000000 		.word	busyStatus
 878 00e8 00000000 		.word	tsLastReport
 879              		.cfi_endproc
 880              	.LFE43:
ARM GAS  C:\Users\Matthew\AppData\Local\Temp\ccBs485u.s 			page 21


 881              		.size	main, .-main
 882              		.text
 883              	.Letext0:
 884              		.file 2 "c:\\program files (x86)\\cypress\\psoc creator\\3.3\\psoc creator\\import\\gnu\\arm\\4.9.
 885              		.file 3 "c:\\program files (x86)\\cypress\\psoc creator\\3.3\\psoc creator\\import\\gnu\\arm\\4.9.
 886              		.file 4 "Generated_Source\\PSoC4/cytypes.h"
 887              		.file 5 "Generated_Source\\PSoC4/BLE_1_StackGatt.h"
 888              		.file 6 "Generated_Source\\PSoC4/BLE_1_StackGattServer.h"
 889              		.file 7 "Generated_Source\\PSoC4/BLE_1_Stack.h"
 890              		.file 8 "Generated_Source\\PSoC4/BLE_1_eventHandler.h"
 891              		.file 9 "./MAX30100_All.h"