ARM GAS  C:\Users\Matthew\AppData\Local\Temp\cc2Cvq26.s 			page 1


   1              		.cpu cortex-m0
   2              		.fpu softvfp
   3              		.eabi_attribute 20, 1
   4              		.eabi_attribute 21, 1
   5              		.eabi_attribute 23, 3
   6              		.eabi_attribute 24, 1
   7              		.eabi_attribute 25, 1
   8              		.eabi_attribute 26, 1
   9              		.eabi_attribute 30, 6
  10              		.eabi_attribute 34, 0
  11              		.eabi_attribute 18, 4
  12              		.code	16
  13              		.file	"BLE_1.c"
  14              		.text
  15              	.Ltext0:
  16              		.cfi_sections	.debug_frame
  17              		.global	cyBle_initVar
  18              		.bss
  19              		.type	cyBle_initVar, %object
  20              		.size	cyBle_initVar, 1
  21              	cyBle_initVar:
  22 0000 00       		.space	1
  23              		.global	cyBle_stackMemoryRam
  24              		.section	.noinit,"aw",%progbits
  25              		.align	3
  26              		.type	cyBle_stackMemoryRam, %object
  27              		.size	cyBle_stackMemoryRam, 2784
  28              	cyBle_stackMemoryRam:
  29 0000 00000000 		.space	2784
  29      00000000 
  29      00000000 
  29      00000000 
  29      00000000 
  30              		.global	cyBle_discoveryParam
  31              		.data
  32              		.align	2
  33              		.type	cyBle_discoveryParam, %object
  34              		.size	cyBle_discoveryParam, 16
  35              	cyBle_discoveryParam:
  36 0000 2000     		.short	32
  37 0002 3000     		.short	48
  38 0004 00       		.byte	0
  39 0005 00       		.byte	0
  40 0006 00       		.byte	0
  41 0007 00       		.byte	0
  42 0008 00       		.byte	0
  43 0009 00       		.byte	0
  44 000a 50       		.byte	80
  45 000b A0       		.byte	-96
  46 000c 00       		.byte	0
  47 000d 07       		.byte	7
  48 000e 00       		.byte	0
  49 000f 00       		.space	1
  50              		.global	cyBle_discoveryData
  51              		.align	2
  52              		.type	cyBle_discoveryData, %object
  53              		.size	cyBle_discoveryData, 32
ARM GAS  C:\Users\Matthew\AppData\Local\Temp\cc2Cvq26.s 			page 2


  54              	cyBle_discoveryData:
  55 0010 02       		.byte	2
  56 0011 01       		.byte	1
  57 0012 06       		.byte	6
  58 0013 08       		.byte	8
  59 0014 09       		.byte	9
  60 0015 42       		.byte	66
  61 0016 69       		.byte	105
  62 0017 6F       		.byte	111
  63 0018 53       		.byte	83
  64 0019 6E       		.byte	110
  65 001a 61       		.byte	97
  66 001b 70       		.byte	112
  67 001c 03       		.byte	3
  68 001d 03       		.byte	3
  69 001e A0       		.byte	-96
  70 001f AA       		.byte	-86
  71 0020 00       		.byte	0
  72 0021 00       		.byte	0
  73 0022 00       		.byte	0
  74 0023 00       		.byte	0
  75 0024 00       		.byte	0
  76 0025 00       		.byte	0
  77 0026 00       		.byte	0
  78 0027 00       		.byte	0
  79 0028 00       		.byte	0
  80 0029 00       		.byte	0
  81 002a 00       		.byte	0
  82 002b 00       		.byte	0
  83 002c 00       		.byte	0
  84 002d 00       		.byte	0
  85 002e 00       		.byte	0
  86 002f 10       		.byte	16
  87              		.global	cyBle_scanRspData
  88              		.align	2
  89              		.type	cyBle_scanRspData, %object
  90              		.size	cyBle_scanRspData, 32
  91              	cyBle_scanRspData:
  92 0030 08       		.byte	8
  93 0031 09       		.byte	9
  94 0032 42       		.byte	66
  95 0033 69       		.byte	105
  96 0034 6F       		.byte	111
  97 0035 53       		.byte	83
  98 0036 6E       		.byte	110
  99 0037 61       		.byte	97
 100 0038 70       		.byte	112
 101 0039 03       		.byte	3
 102 003a 03       		.byte	3
 103 003b A0       		.byte	-96
 104 003c AA       		.byte	-86
 105 003d 00       		.byte	0
 106 003e 00       		.byte	0
 107 003f 00       		.byte	0
 108 0040 00       		.byte	0
 109 0041 00       		.byte	0
 110 0042 00       		.byte	0
ARM GAS  C:\Users\Matthew\AppData\Local\Temp\cc2Cvq26.s 			page 3


 111 0043 00       		.byte	0
 112 0044 00       		.byte	0
 113 0045 00       		.byte	0
 114 0046 00       		.byte	0
 115 0047 00       		.byte	0
 116 0048 00       		.byte	0
 117 0049 00       		.byte	0
 118 004a 00       		.byte	0
 119 004b 00       		.byte	0
 120 004c 00       		.byte	0
 121 004d 00       		.byte	0
 122 004e 00       		.byte	0
 123 004f 0D       		.byte	13
 124              		.global	cyBle_discoveryModeInfo
 125              		.align	2
 126              		.type	cyBle_discoveryModeInfo, %object
 127              		.size	cyBle_discoveryModeInfo, 20
 128              	cyBle_discoveryModeInfo:
 129 0050 02       		.byte	2
 130 0051 000000   		.space	3
 131 0054 00000000 		.word	cyBle_discoveryParam
 132 0058 00000000 		.word	cyBle_discoveryData
 133 005c 00000000 		.word	cyBle_scanRspData
 134 0060 1E00     		.short	30
 135 0062 0000     		.space	2
 136              		.comm	cyBle_peerBonding,1,1
 137              		.comm	cyBle_pendingFlashWrite,1,1
 138              		.bss
 139              	cyBle_pendingFlashClearCccdHandle:
 140 0001 00       		.space	1
 141              		.comm	CyBle_ApplCallback,4,4
 142              		.global	cyBle_deviceAddress
 143              		.data
 144              		.align	2
 145              		.type	cyBle_deviceAddress, %object
 146              		.size	cyBle_deviceAddress, 7
 147              	cyBle_deviceAddress:
 148 0064 00       		.byte	0
 149 0065 00       		.byte	0
 150 0066 00       		.byte	0
 151 0067 50       		.byte	80
 152 0068 A0       		.byte	-96
 153 0069 00       		.byte	0
 154 006a 00       		.byte	0
 155              		.global	cyBle_sflashDeviceAddress
 156 006b 00       		.align	2
 157              		.type	cyBle_sflashDeviceAddress, %object
 158              		.size	cyBle_sflashDeviceAddress, 4
 159              	cyBle_sflashDeviceAddress:
 160 006c 00F2FF0F 		.word	268431872
 161              		.section	.text.CyBle_Init,"ax",%progbits
 162              		.align	2
 163              		.global	CyBle_Init
 164              		.code	16
 165              		.thumb_func
 166              		.type	CyBle_Init, %function
 167              	CyBle_Init:
ARM GAS  C:\Users\Matthew\AppData\Local\Temp\cc2Cvq26.s 			page 4


 168              	.LFB2:
 169              		.file 1 ".\\Generated_Source\\PSoC4\\BLE_1.c"
   1:.\Generated_Source\PSoC4/BLE_1.c **** /***************************************************************************//**
   2:.\Generated_Source\PSoC4/BLE_1.c **** * \file CYBLE.c
   3:.\Generated_Source\PSoC4/BLE_1.c **** * \version 3.10
   4:.\Generated_Source\PSoC4/BLE_1.c **** * 
   5:.\Generated_Source\PSoC4/BLE_1.c **** * \brief
   6:.\Generated_Source\PSoC4/BLE_1.c **** *  This file contains the source code for the Common APIs of the BLE Component.
   7:.\Generated_Source\PSoC4/BLE_1.c **** * 
   8:.\Generated_Source\PSoC4/BLE_1.c **** ********************************************************************************
   9:.\Generated_Source\PSoC4/BLE_1.c **** * \copyright
  10:.\Generated_Source\PSoC4/BLE_1.c **** * Copyright 2014-2016, Cypress Semiconductor Corporation.  All rights reserved.
  11:.\Generated_Source\PSoC4/BLE_1.c **** * You may use this file only in accordance with the license, terms, conditions,
  12:.\Generated_Source\PSoC4/BLE_1.c **** * disclaimers, and limitations in the end user license agreement accompanying
  13:.\Generated_Source\PSoC4/BLE_1.c **** * the software package with which this file was provided.
  14:.\Generated_Source\PSoC4/BLE_1.c **** *******************************************************************************/
  15:.\Generated_Source\PSoC4/BLE_1.c **** 
  16:.\Generated_Source\PSoC4/BLE_1.c **** #include "BLE_1_eventHandler.h"
  17:.\Generated_Source\PSoC4/BLE_1.c **** #include "BLE_1_HAL_PVT.h"
  18:.\Generated_Source\PSoC4/BLE_1.c **** #include <stdlib.h>
  19:.\Generated_Source\PSoC4/BLE_1.c **** 
  20:.\Generated_Source\PSoC4/BLE_1.c **** 
  21:.\Generated_Source\PSoC4/BLE_1.c **** /***************************************
  22:.\Generated_Source\PSoC4/BLE_1.c **** * Function Prototypes
  23:.\Generated_Source\PSoC4/BLE_1.c **** ***************************************/
  24:.\Generated_Source\PSoC4/BLE_1.c **** 
  25:.\Generated_Source\PSoC4/BLE_1.c **** #if(CYBLE_GATT_ROLE_SERVER)
  26:.\Generated_Source\PSoC4/BLE_1.c ****     #if(CYBLE_GAP_ROLE_PERIPHERAL)
  27:.\Generated_Source\PSoC4/BLE_1.c ****         static void CyBle_ChangeAdLocalName(const char8 name[], uint8 dest);
  28:.\Generated_Source\PSoC4/BLE_1.c ****     #endif /* (CYBLE_GAP_ROLE_PERIPHERAL) */
  29:.\Generated_Source\PSoC4/BLE_1.c **** #endif /* (CYBLE_GATT_ROLE_SERVER) */
  30:.\Generated_Source\PSoC4/BLE_1.c ****     
  31:.\Generated_Source\PSoC4/BLE_1.c **** 
  32:.\Generated_Source\PSoC4/BLE_1.c **** /***************************************
  33:.\Generated_Source\PSoC4/BLE_1.c **** * Global Variables
  34:.\Generated_Source\PSoC4/BLE_1.c **** ***************************************/
  35:.\Generated_Source\PSoC4/BLE_1.c **** 
  36:.\Generated_Source\PSoC4/BLE_1.c **** /* Indicates whether the BLE has been initialized. The variable is initialized to
  37:.\Generated_Source\PSoC4/BLE_1.c ****    0 and set to 1 the first time CyBle_Start() is called. This allows the component
  38:.\Generated_Source\PSoC4/BLE_1.c ****    to restart without reinitialization after the first call to the CyBle_Start() 
  39:.\Generated_Source\PSoC4/BLE_1.c ****    routine. If reinitialization of the component is required, the variable should 
  40:.\Generated_Source\PSoC4/BLE_1.c ****    be set to 0 before the CyBle_Start() routine is called. Alternatively, the BLE
  41:.\Generated_Source\PSoC4/BLE_1.c ****    can be reinitialized by calling the CyBle_Init() function.
  42:.\Generated_Source\PSoC4/BLE_1.c **** */
  43:.\Generated_Source\PSoC4/BLE_1.c **** uint8  cyBle_initVar = 0u;
  44:.\Generated_Source\PSoC4/BLE_1.c **** 
  45:.\Generated_Source\PSoC4/BLE_1.c **** /* Allocate RAM memory for stack. This buffer could be reused by application when 
  46:.\Generated_Source\PSoC4/BLE_1.c ****    BLE component is stopped. For export mode buffer is allocated in heap.
  47:.\Generated_Source\PSoC4/BLE_1.c **** */
  48:.\Generated_Source\PSoC4/BLE_1.c **** #if(CYBLE_SHARING_MODE_EXPORT)
  49:.\Generated_Source\PSoC4/BLE_1.c ****     
  50:.\Generated_Source\PSoC4/BLE_1.c **** uint8 *cyBle_stackMemoryRam = NULL;
  51:.\Generated_Source\PSoC4/BLE_1.c **** 
  52:.\Generated_Source\PSoC4/BLE_1.c **** #else
  53:.\Generated_Source\PSoC4/BLE_1.c **** 
  54:.\Generated_Source\PSoC4/BLE_1.c **** CYBLE_CYALIGNED_BEGIN CY_NOINIT uint8 cyBle_stackMemoryRam[CYBLE_STACK_RAM_SIZE] CYBLE_CYALIGNED_EN
  55:.\Generated_Source\PSoC4/BLE_1.c **** 
ARM GAS  C:\Users\Matthew\AppData\Local\Temp\cc2Cvq26.s 			page 5


  56:.\Generated_Source\PSoC4/BLE_1.c **** #endif  /* CYBLE_SHARING_MODE_EXPORT */
  57:.\Generated_Source\PSoC4/BLE_1.c **** 
  58:.\Generated_Source\PSoC4/BLE_1.c **** #if(CYBLE_GAP_ROLE_PERIPHERAL || CYBLE_GAP_ROLE_BROADCASTER)
  59:.\Generated_Source\PSoC4/BLE_1.c **** 
  60:.\Generated_Source\PSoC4/BLE_1.c **** CYBLE_GAPP_DISC_PARAM_T cyBle_discoveryParam =
  61:.\Generated_Source\PSoC4/BLE_1.c **** {
  62:.\Generated_Source\PSoC4/BLE_1.c ****     0x0020u,    /* uint16 advertising_interval_min */
  63:.\Generated_Source\PSoC4/BLE_1.c ****     0x0030u,    /* uint16 advertising_interval_max */
  64:.\Generated_Source\PSoC4/BLE_1.c ****     CYBLE_GAPP_CONNECTABLE_UNDIRECTED_ADV, /* uint8 advertising_type */
  65:.\Generated_Source\PSoC4/BLE_1.c ****     0x00u,      /* uint8 own_addr_type */
  66:.\Generated_Source\PSoC4/BLE_1.c ****     0x00u,      /* uint8 direct_addr_type */
  67:.\Generated_Source\PSoC4/BLE_1.c ****     {0x00u, 0x00u, 0x00u, 0x50u, 0xA0u, 0x00u}, /* uint8* direct_addr */
  68:.\Generated_Source\PSoC4/BLE_1.c ****     0x07u,      /* uint8 advertising_channel_map */
  69:.\Generated_Source\PSoC4/BLE_1.c ****     0x00u,      /* uint8 advertising_filter_policy */
  70:.\Generated_Source\PSoC4/BLE_1.c **** };
  71:.\Generated_Source\PSoC4/BLE_1.c **** 
  72:.\Generated_Source\PSoC4/BLE_1.c **** CYBLE_GAPP_DISC_DATA_T cyBle_discoveryData =
  73:.\Generated_Source\PSoC4/BLE_1.c **** {
  74:.\Generated_Source\PSoC4/BLE_1.c ****     { 0x02u, 0x01u, 0x06u, 0x08u, 0x09u, 0x42u, 0x69u,
  75:.\Generated_Source\PSoC4/BLE_1.c ****     0x6Fu, 0x53u, 0x6Eu, 0x61u, 0x70u, 0x03u, 0x03u, 0xA0u,
  76:.\Generated_Source\PSoC4/BLE_1.c ****     0xAAu, 0x00u, 0x00u, 0x00u, 0x00u, 0x00u, 0x00u, 0x00u,
  77:.\Generated_Source\PSoC4/BLE_1.c ****     0x00u, 0x00u, 0x00u, 0x00u, 0x00u, 0x00u, 0x00u, 0x00u }, /* uint8 advertising_data[CYBLE_MAX_A
  78:.\Generated_Source\PSoC4/BLE_1.c ****     0x10u,      /* uint8 adv_data_length */
  79:.\Generated_Source\PSoC4/BLE_1.c **** };
  80:.\Generated_Source\PSoC4/BLE_1.c **** 
  81:.\Generated_Source\PSoC4/BLE_1.c **** CYBLE_GAPP_SCAN_RSP_DATA_T cyBle_scanRspData =
  82:.\Generated_Source\PSoC4/BLE_1.c **** {
  83:.\Generated_Source\PSoC4/BLE_1.c ****     { 0x08u, 0x09u, 0x42u, 0x69u, 0x6Fu, 0x53u, 0x6Eu,
  84:.\Generated_Source\PSoC4/BLE_1.c ****     0x61u, 0x70u, 0x03u, 0x03u, 0xA0u, 0xAAu, 0x00u, 0x00u,
  85:.\Generated_Source\PSoC4/BLE_1.c ****     0x00u, 0x00u, 0x00u, 0x00u, 0x00u, 0x00u, 0x00u, 0x00u,
  86:.\Generated_Source\PSoC4/BLE_1.c ****     0x00u, 0x00u, 0x00u, 0x00u, 0x00u, 0x00u, 0x00u, 0x00u }, /* uint8 scan_rsp_data[CYBLE_MAX_SCAN
  87:.\Generated_Source\PSoC4/BLE_1.c ****     0x0Du,      /* uint8 scan_rsp_data_length */
  88:.\Generated_Source\PSoC4/BLE_1.c **** };
  89:.\Generated_Source\PSoC4/BLE_1.c **** 
  90:.\Generated_Source\PSoC4/BLE_1.c **** /* This variable of type CYBLE_GAPP_DISC_MODE_INFO_T is present only when 
  91:.\Generated_Source\PSoC4/BLE_1.c ****    the BLE component is configured for Peripheral GAP role or Central and 
  92:.\Generated_Source\PSoC4/BLE_1.c ****    Peripheral GAP role. It contains the Advertisement settings and also the 
  93:.\Generated_Source\PSoC4/BLE_1.c ****    Advertisement and Scan response data parameters entered in the customizer.
  94:.\Generated_Source\PSoC4/BLE_1.c ****    This variable can be used by advanced users to change Advertisement settings,
  95:.\Generated_Source\PSoC4/BLE_1.c ****    Advertisement or Scan response data in runtime. 
  96:.\Generated_Source\PSoC4/BLE_1.c **** */
  97:.\Generated_Source\PSoC4/BLE_1.c **** CYBLE_GAPP_DISC_MODE_INFO_T cyBle_discoveryModeInfo =
  98:.\Generated_Source\PSoC4/BLE_1.c **** {
  99:.\Generated_Source\PSoC4/BLE_1.c ****     0x02u,      /* uint8 discMode */
 100:.\Generated_Source\PSoC4/BLE_1.c ****     &cyBle_discoveryParam,
 101:.\Generated_Source\PSoC4/BLE_1.c ****     &cyBle_discoveryData,
 102:.\Generated_Source\PSoC4/BLE_1.c ****     &cyBle_scanRspData,
 103:.\Generated_Source\PSoC4/BLE_1.c ****     0x001Eu,    /* uint16 advTo */
 104:.\Generated_Source\PSoC4/BLE_1.c **** };
 105:.\Generated_Source\PSoC4/BLE_1.c **** 
 106:.\Generated_Source\PSoC4/BLE_1.c **** 
 107:.\Generated_Source\PSoC4/BLE_1.c **** #endif /* CYBLE_GAP_ROLE_PERIPHERAL || CYBLE_GAP_ROLE_BROADCASTER */
 108:.\Generated_Source\PSoC4/BLE_1.c **** 
 109:.\Generated_Source\PSoC4/BLE_1.c **** #if(CYBLE_GAP_ROLE_CENTRAL)
 110:.\Generated_Source\PSoC4/BLE_1.c ****     
 111:.\Generated_Source\PSoC4/BLE_1.c **** CYBLE_GAPC_CONN_PARAM_T cyBle_connectionParameters;
 112:.\Generated_Source\PSoC4/BLE_1.c **** 
ARM GAS  C:\Users\Matthew\AppData\Local\Temp\cc2Cvq26.s 			page 6


 113:.\Generated_Source\PSoC4/BLE_1.c **** /* Connecting timeout is set to 30 seconds in CyBle_Init function. 
 114:.\Generated_Source\PSoC4/BLE_1.c ****    Not zero value starts timer in CyBle_GapcConnectDevice API.
 115:.\Generated_Source\PSoC4/BLE_1.c **** */
 116:.\Generated_Source\PSoC4/BLE_1.c **** uint16 cyBle_connectingTimeout;
 117:.\Generated_Source\PSoC4/BLE_1.c ****     
 118:.\Generated_Source\PSoC4/BLE_1.c **** #endif /* CYBLE_GAP_ROLE_CENTRAL */
 119:.\Generated_Source\PSoC4/BLE_1.c **** 
 120:.\Generated_Source\PSoC4/BLE_1.c **** #if(CYBLE_GAP_ROLE_CENTRAL || CYBLE_GAP_ROLE_OBSERVER)
 121:.\Generated_Source\PSoC4/BLE_1.c ****     
 122:.\Generated_Source\PSoC4/BLE_1.c **** 
 123:.\Generated_Source\PSoC4/BLE_1.c ****     
 124:.\Generated_Source\PSoC4/BLE_1.c **** #endif /* CYBLE_GAP_ROLE_CENTRAL || CYBLE_GAP_ROLE_OBSERVER */
 125:.\Generated_Source\PSoC4/BLE_1.c **** 
 126:.\Generated_Source\PSoC4/BLE_1.c **** #if((CYBLE_GAP_ROLE_PERIPHERAL || CYBLE_GAP_ROLE_CENTRAL) && (CYBLE_BONDING_REQUIREMENT == CYBLE_BO
 127:.\Generated_Source\PSoC4/BLE_1.c **** 
 128:.\Generated_Source\PSoC4/BLE_1.c **** uint8 cyBle_peerBonding;
 129:.\Generated_Source\PSoC4/BLE_1.c **** uint8 cyBle_pendingFlashWrite;
 130:.\Generated_Source\PSoC4/BLE_1.c ****     
 131:.\Generated_Source\PSoC4/BLE_1.c **** #if(CYBLE_GATT_DB_CCCD_COUNT != 0u)
 132:.\Generated_Source\PSoC4/BLE_1.c ****     static uint8 cyBle_pendingFlashClearCccdHandle;
 133:.\Generated_Source\PSoC4/BLE_1.c **** #endif /* CYBLE_GATT_DB_CCCD_COUNT != 0u */
 134:.\Generated_Source\PSoC4/BLE_1.c ****     
 135:.\Generated_Source\PSoC4/BLE_1.c **** #endif  /* (CYBLE_BONDING_REQUIREMENT == CYBLE_BONDING_YES) */
 136:.\Generated_Source\PSoC4/BLE_1.c **** 
 137:.\Generated_Source\PSoC4/BLE_1.c **** CYBLE_CALLBACK_T CyBle_ApplCallback;
 138:.\Generated_Source\PSoC4/BLE_1.c **** CYBLE_GAP_BD_ADDR_T cyBle_deviceAddress = {{0x00u, 0x00u, 0x00u, 0x50u, 0xA0u, 0x00u}, 0x00u };
 139:.\Generated_Source\PSoC4/BLE_1.c **** CYBLE_GAP_BD_ADDR_T * cyBle_sflashDeviceAddress = CYBLE_SFLASH_DEVICE_ADDRESS_PTR;
 140:.\Generated_Source\PSoC4/BLE_1.c **** 
 141:.\Generated_Source\PSoC4/BLE_1.c **** 
 142:.\Generated_Source\PSoC4/BLE_1.c **** /******************************************************************************
 143:.\Generated_Source\PSoC4/BLE_1.c **** * Function Name: CyBle_Init
 144:.\Generated_Source\PSoC4/BLE_1.c **** ***************************************************************************//**
 145:.\Generated_Source\PSoC4/BLE_1.c **** *
 146:.\Generated_Source\PSoC4/BLE_1.c **** *   Initializes the component with the parameters set in the customizer.
 147:.\Generated_Source\PSoC4/BLE_1.c **** * 
 148:.\Generated_Source\PSoC4/BLE_1.c **** *  \return
 149:.\Generated_Source\PSoC4/BLE_1.c **** *   None
 150:.\Generated_Source\PSoC4/BLE_1.c **** * 
 151:.\Generated_Source\PSoC4/BLE_1.c **** ******************************************************************************/
 152:.\Generated_Source\PSoC4/BLE_1.c **** void CyBle_Init(void)
 153:.\Generated_Source\PSoC4/BLE_1.c **** {
 170              		.loc 1 153 0
 171              		.cfi_startproc
 172 0000 80B5     		push	{r7, lr}
 173              		.cfi_def_cfa_offset 8
 174              		.cfi_offset 7, -8
 175              		.cfi_offset 14, -4
 176 0002 00AF     		add	r7, sp, #0
 177              		.cfi_def_cfa_register 7
 154:.\Generated_Source\PSoC4/BLE_1.c ****     cyBle_eventHandlerFlag = 0u;
 178              		.loc 1 154 0
 179 0004 094B     		ldr	r3, .L2
 180 0006 0022     		mov	r2, #0
 181 0008 1A70     		strb	r2, [r3]
 155:.\Generated_Source\PSoC4/BLE_1.c ****     cyBle_busyStatus = CYBLE_STACK_STATE_FREE;
 182              		.loc 1 155 0
 183 000a 094B     		ldr	r3, .L2+4
ARM GAS  C:\Users\Matthew\AppData\Local\Temp\cc2Cvq26.s 			page 7


 184 000c 0022     		mov	r2, #0
 185 000e 1A70     		strb	r2, [r3]
 156:.\Generated_Source\PSoC4/BLE_1.c **** 
 157:.\Generated_Source\PSoC4/BLE_1.c ****     #if(CYBLE_GAP_ROLE_PERIPHERAL || CYBLE_GAP_ROLE_BROADCASTER) 
 158:.\Generated_Source\PSoC4/BLE_1.c ****         cyBle_advertisingIntervalType = CYBLE_ADVERTISING_FAST; 
 186              		.loc 1 158 0
 187 0010 084B     		ldr	r3, .L2+8
 188 0012 0022     		mov	r2, #0
 189 0014 1A70     		strb	r2, [r3]
 159:.\Generated_Source\PSoC4/BLE_1.c ****     #endif /* (CYBLE_GAP_ROLE_PERIPHERAL || CYBLE_GAP_ROLE_BROADCASTER)  */
 160:.\Generated_Source\PSoC4/BLE_1.c ****     #if(CYBLE_GAP_ROLE_CENTRAL || CYBLE_GAP_ROLE_OBSERVER)
 161:.\Generated_Source\PSoC4/BLE_1.c ****         cyBle_scanningIntervalType = CYBLE_SCANNING_FAST; 
 162:.\Generated_Source\PSoC4/BLE_1.c ****     #endif /* (CYBLE_GAP_ROLE_CENTRAL || CYBLE_GAP_ROLE_OBSERVER) */
 163:.\Generated_Source\PSoC4/BLE_1.c ****         
 164:.\Generated_Source\PSoC4/BLE_1.c ****     /* Init default connection parameters. 
 165:.\Generated_Source\PSoC4/BLE_1.c ****        Application may change it before initiating a connection */
 166:.\Generated_Source\PSoC4/BLE_1.c ****     #if(CYBLE_GAP_ROLE_CENTRAL)
 167:.\Generated_Source\PSoC4/BLE_1.c ****         cyBle_connectionParameters.scanIntv = cyBle_discoveryInfo.scanIntv;
 168:.\Generated_Source\PSoC4/BLE_1.c ****         cyBle_connectionParameters.scanWindow = cyBle_discoveryInfo.scanWindow;
 169:.\Generated_Source\PSoC4/BLE_1.c ****         cyBle_connectionParameters.ownAddrType = cyBle_discoveryInfo.ownAddrType;
 170:.\Generated_Source\PSoC4/BLE_1.c ****         cyBle_connectionParameters.initiatorFilterPolicy = cyBle_discoveryInfo.scanFilterPolicy;
 171:.\Generated_Source\PSoC4/BLE_1.c ****         cyBle_connectionParameters.connIntvMin = CYBLE_GAPC_CONNECTION_INTERVAL_MIN;
 172:.\Generated_Source\PSoC4/BLE_1.c ****         cyBle_connectionParameters.connIntvMax = CYBLE_GAPC_CONNECTION_INTERVAL_MAX;
 173:.\Generated_Source\PSoC4/BLE_1.c ****         cyBle_connectionParameters.connLatency = CYBLE_GAPC_CONNECTION_SLAVE_LATENCY;
 174:.\Generated_Source\PSoC4/BLE_1.c ****         cyBle_connectionParameters.supervisionTO = CYBLE_GAPC_CONNECTION_TIME_OUT;
 175:.\Generated_Source\PSoC4/BLE_1.c ****         cyBle_connectionParameters.minCeLength = 0x0000u;
 176:.\Generated_Source\PSoC4/BLE_1.c ****         cyBle_connectionParameters.maxCeLength = 0xFFFFu;
 177:.\Generated_Source\PSoC4/BLE_1.c ****         
 178:.\Generated_Source\PSoC4/BLE_1.c ****         cyBle_connectingTimeout = CYBLE_GAPC_CONNECTING_TIMEOUT;
 179:.\Generated_Source\PSoC4/BLE_1.c ****     #endif /* CYBLE_GAP_ROLE_CENTRAL */
 180:.\Generated_Source\PSoC4/BLE_1.c **** 
 181:.\Generated_Source\PSoC4/BLE_1.c ****     CyBle_ServiceInit();
 190              		.loc 1 181 0
 191 0016 FFF7FEFF 		bl	CyBle_ServiceInit
 182:.\Generated_Source\PSoC4/BLE_1.c **** 
 183:.\Generated_Source\PSoC4/BLE_1.c ****     #if((CYBLE_GAP_ROLE_PERIPHERAL || CYBLE_GAP_ROLE_CENTRAL) && (CYBLE_BONDING_REQUIREMENT == CYBL
 184:.\Generated_Source\PSoC4/BLE_1.c ****         cyBle_pendingFlashWrite = 0u;
 192              		.loc 1 184 0
 193 001a 074B     		ldr	r3, .L2+12
 194 001c 0022     		mov	r2, #0
 195 001e 1A70     		strb	r2, [r3]
 185:.\Generated_Source\PSoC4/BLE_1.c ****         cyBle_peerBonding = CYBLE_GAP_BONDING_NONE;
 196              		.loc 1 185 0
 197 0020 064B     		ldr	r3, .L2+16
 198 0022 0022     		mov	r2, #0
 199 0024 1A70     		strb	r2, [r3]
 186:.\Generated_Source\PSoC4/BLE_1.c ****     #endif  /* (CYBLE_BONDING_REQUIREMENT == CYBLE_BONDING_YES) */
 187:.\Generated_Source\PSoC4/BLE_1.c **** 
 188:.\Generated_Source\PSoC4/BLE_1.c **** }
 200              		.loc 1 188 0
 201 0026 BD46     		mov	sp, r7
 202              		@ sp needed
 203 0028 80BD     		pop	{r7, pc}
 204              	.L3:
 205 002a C046     		.align	2
 206              	.L2:
 207 002c 00000000 		.word	cyBle_eventHandlerFlag
ARM GAS  C:\Users\Matthew\AppData\Local\Temp\cc2Cvq26.s 			page 8


 208 0030 00000000 		.word	cyBle_busyStatus
 209 0034 00000000 		.word	cyBle_advertisingIntervalType
 210 0038 00000000 		.word	cyBle_pendingFlashWrite
 211 003c 00000000 		.word	cyBle_peerBonding
 212              		.cfi_endproc
 213              	.LFE2:
 214              		.size	CyBle_Init, .-CyBle_Init
 215              		.section	.text.CyBle_ServiceInit,"ax",%progbits
 216              		.align	2
 217              		.global	CyBle_ServiceInit
 218              		.code	16
 219              		.thumb_func
 220              		.type	CyBle_ServiceInit, %function
 221              	CyBle_ServiceInit:
 222              	.LFB3:
 189:.\Generated_Source\PSoC4/BLE_1.c **** 
 190:.\Generated_Source\PSoC4/BLE_1.c **** 
 191:.\Generated_Source\PSoC4/BLE_1.c **** /******************************************************************************
 192:.\Generated_Source\PSoC4/BLE_1.c **** * Function Name: CyBle_ServiceInit
 193:.\Generated_Source\PSoC4/BLE_1.c **** ***************************************************************************//**
 194:.\Generated_Source\PSoC4/BLE_1.c **** * 
 195:.\Generated_Source\PSoC4/BLE_1.c **** *  Initializes all included services.
 196:.\Generated_Source\PSoC4/BLE_1.c **** * 
 197:.\Generated_Source\PSoC4/BLE_1.c **** * \return
 198:.\Generated_Source\PSoC4/BLE_1.c **** *  None
 199:.\Generated_Source\PSoC4/BLE_1.c **** * 
 200:.\Generated_Source\PSoC4/BLE_1.c **** ******************************************************************************/
 201:.\Generated_Source\PSoC4/BLE_1.c **** void CyBle_ServiceInit(void)
 202:.\Generated_Source\PSoC4/BLE_1.c **** {
 223              		.loc 1 202 0
 224              		.cfi_startproc
 225 0000 80B5     		push	{r7, lr}
 226              		.cfi_def_cfa_offset 8
 227              		.cfi_offset 7, -8
 228              		.cfi_offset 14, -4
 229 0002 00AF     		add	r7, sp, #0
 230              		.cfi_def_cfa_register 7
 203:.\Generated_Source\PSoC4/BLE_1.c ****     #if(CYBLE_GATT_ROLE_CLIENT)
 204:.\Generated_Source\PSoC4/BLE_1.c ****         /* Check service range before clearing to support partial discovery */
 205:.\Generated_Source\PSoC4/BLE_1.c ****         if(cyBle_serverInfo[CYBLE_SRVI_GAP].range.startHandle == CYBLE_GATT_INVALID_ATTR_HANDLE_VAL
 206:.\Generated_Source\PSoC4/BLE_1.c ****         {
 207:.\Generated_Source\PSoC4/BLE_1.c ****             (void)memset(&cyBle_gapc, 0, sizeof(cyBle_gapc));
 208:.\Generated_Source\PSoC4/BLE_1.c ****         }
 209:.\Generated_Source\PSoC4/BLE_1.c ****         if(cyBle_serverInfo[CYBLE_SRVI_GATT].range.startHandle == CYBLE_GATT_INVALID_ATTR_HANDLE_VA
 210:.\Generated_Source\PSoC4/BLE_1.c ****         {
 211:.\Generated_Source\PSoC4/BLE_1.c ****             (void)memset(&cyBle_gattc, 0, sizeof(cyBle_gattc));
 212:.\Generated_Source\PSoC4/BLE_1.c ****         }
 213:.\Generated_Source\PSoC4/BLE_1.c ****     #endif /* CYBLE_GATT_ROLE_CLIENT */
 214:.\Generated_Source\PSoC4/BLE_1.c ****     
 215:.\Generated_Source\PSoC4/BLE_1.c **** 	#ifdef CYBLE_ANCS
 216:.\Generated_Source\PSoC4/BLE_1.c ****         CyBle_AncsInit();
 217:.\Generated_Source\PSoC4/BLE_1.c ****     #endif /* CYBLE_ANCS */
 218:.\Generated_Source\PSoC4/BLE_1.c **** 	
 219:.\Generated_Source\PSoC4/BLE_1.c ****     #ifdef CYBLE_ANS
 220:.\Generated_Source\PSoC4/BLE_1.c ****         CyBle_AnsInit();
 221:.\Generated_Source\PSoC4/BLE_1.c ****     #endif /* CYBLE_ANS */
 222:.\Generated_Source\PSoC4/BLE_1.c ****     
ARM GAS  C:\Users\Matthew\AppData\Local\Temp\cc2Cvq26.s 			page 9


 223:.\Generated_Source\PSoC4/BLE_1.c ****     #ifdef CYBLE_BAS
 224:.\Generated_Source\PSoC4/BLE_1.c ****         CyBle_BasInit();
 225:.\Generated_Source\PSoC4/BLE_1.c ****     #endif /* CYBLE_BAS */
 226:.\Generated_Source\PSoC4/BLE_1.c ****     
 227:.\Generated_Source\PSoC4/BLE_1.c ****     #ifdef CYBLE_BCS
 228:.\Generated_Source\PSoC4/BLE_1.c ****         CyBle_BcsInit();
 229:.\Generated_Source\PSoC4/BLE_1.c ****     #endif /* CYBLE_BCS */
 230:.\Generated_Source\PSoC4/BLE_1.c **** 
 231:.\Generated_Source\PSoC4/BLE_1.c ****     #ifdef CYBLE_BLS
 232:.\Generated_Source\PSoC4/BLE_1.c ****         CyBle_BlsInit();
 233:.\Generated_Source\PSoC4/BLE_1.c ****     #endif /* CYBLE_BLS */
 234:.\Generated_Source\PSoC4/BLE_1.c ****     
 235:.\Generated_Source\PSoC4/BLE_1.c ****     #ifdef CYBLE_BMS
 236:.\Generated_Source\PSoC4/BLE_1.c ****         CyBle_BmsInit();
 237:.\Generated_Source\PSoC4/BLE_1.c ****     #endif /* CYBLE_BMS */
 238:.\Generated_Source\PSoC4/BLE_1.c ****     
 239:.\Generated_Source\PSoC4/BLE_1.c ****     #ifdef CYBLE_CGMS
 240:.\Generated_Source\PSoC4/BLE_1.c ****         CyBle_CgmsInit();
 241:.\Generated_Source\PSoC4/BLE_1.c ****     #endif /* CYBLE_CGMS */
 242:.\Generated_Source\PSoC4/BLE_1.c **** 
 243:.\Generated_Source\PSoC4/BLE_1.c ****     #ifdef CYBLE_CPS
 244:.\Generated_Source\PSoC4/BLE_1.c ****         CyBle_CpsInit();
 245:.\Generated_Source\PSoC4/BLE_1.c ****     #endif /* CYBLE_CPS */
 246:.\Generated_Source\PSoC4/BLE_1.c **** 
 247:.\Generated_Source\PSoC4/BLE_1.c ****     #ifdef CYBLE_CSCS
 248:.\Generated_Source\PSoC4/BLE_1.c ****         CyBle_CscsInit();
 249:.\Generated_Source\PSoC4/BLE_1.c ****     #endif /* CYBLE_CSCS */
 250:.\Generated_Source\PSoC4/BLE_1.c ****     
 251:.\Generated_Source\PSoC4/BLE_1.c ****     #ifdef CYBLE_CTS
 252:.\Generated_Source\PSoC4/BLE_1.c ****         CyBle_CtsInit();
 253:.\Generated_Source\PSoC4/BLE_1.c ****     #endif /* CYBLE_CTS */
 254:.\Generated_Source\PSoC4/BLE_1.c **** 
 255:.\Generated_Source\PSoC4/BLE_1.c ****     #ifdef CYBLE_CUSTOM
 256:.\Generated_Source\PSoC4/BLE_1.c ****         CyBle_CustomInit();
 231              		.loc 1 256 0
 232 0004 FFF7FEFF 		bl	CyBle_CustomInit
 257:.\Generated_Source\PSoC4/BLE_1.c ****     #endif /* CYBLE_CUSTOM */
 258:.\Generated_Source\PSoC4/BLE_1.c **** 
 259:.\Generated_Source\PSoC4/BLE_1.c ****     #ifdef CYBLE_DIS
 260:.\Generated_Source\PSoC4/BLE_1.c ****         CyBle_DisInit();
 261:.\Generated_Source\PSoC4/BLE_1.c ****     #endif /* CYBLE_DIS */
 262:.\Generated_Source\PSoC4/BLE_1.c **** 
 263:.\Generated_Source\PSoC4/BLE_1.c ****     #ifdef CYBLE_ESS
 264:.\Generated_Source\PSoC4/BLE_1.c ****         CyBle_EssInit();
 265:.\Generated_Source\PSoC4/BLE_1.c ****     #endif /* CYBLE_ESS */
 266:.\Generated_Source\PSoC4/BLE_1.c ****     
 267:.\Generated_Source\PSoC4/BLE_1.c ****     #ifdef CYBLE_GLS
 268:.\Generated_Source\PSoC4/BLE_1.c ****         CyBle_GlsInit();
 269:.\Generated_Source\PSoC4/BLE_1.c ****     #endif /* CYBLE_GLS */
 270:.\Generated_Source\PSoC4/BLE_1.c ****     
 271:.\Generated_Source\PSoC4/BLE_1.c ****     #ifdef CYBLE_HIDS
 272:.\Generated_Source\PSoC4/BLE_1.c ****         CyBle_HidsInit();
 273:.\Generated_Source\PSoC4/BLE_1.c ****     #endif /* CYBLE_HIDS */
 274:.\Generated_Source\PSoC4/BLE_1.c **** 
 275:.\Generated_Source\PSoC4/BLE_1.c ****     #ifdef CYBLE_HPS
 276:.\Generated_Source\PSoC4/BLE_1.c ****         CyBle_HpsInit();
 277:.\Generated_Source\PSoC4/BLE_1.c ****     #endif /* CYBLE_HPS */
ARM GAS  C:\Users\Matthew\AppData\Local\Temp\cc2Cvq26.s 			page 10


 278:.\Generated_Source\PSoC4/BLE_1.c **** 
 279:.\Generated_Source\PSoC4/BLE_1.c ****     #ifdef CYBLE_HRS
 280:.\Generated_Source\PSoC4/BLE_1.c ****         CyBle_HrsInit();
 281:.\Generated_Source\PSoC4/BLE_1.c ****     #endif /* CYBLE_HRS */
 282:.\Generated_Source\PSoC4/BLE_1.c ****     
 283:.\Generated_Source\PSoC4/BLE_1.c ****     #ifdef CYBLE_HTS
 284:.\Generated_Source\PSoC4/BLE_1.c ****         CyBle_HtsInit();
 285:.\Generated_Source\PSoC4/BLE_1.c ****     #endif /* CYBLE_RSCS */
 286:.\Generated_Source\PSoC4/BLE_1.c **** 
 287:.\Generated_Source\PSoC4/BLE_1.c ****     #ifdef CYBLE_IAS
 288:.\Generated_Source\PSoC4/BLE_1.c ****         CyBle_IasInit();
 289:.\Generated_Source\PSoC4/BLE_1.c ****     #endif /* CYBLE_IAS */
 290:.\Generated_Source\PSoC4/BLE_1.c **** 
 291:.\Generated_Source\PSoC4/BLE_1.c ****     #ifdef CYBLE_IPS
 292:.\Generated_Source\PSoC4/BLE_1.c ****         CyBle_IpsInit();
 293:.\Generated_Source\PSoC4/BLE_1.c ****     #endif /* CYBLE_IPS */
 294:.\Generated_Source\PSoC4/BLE_1.c ****     
 295:.\Generated_Source\PSoC4/BLE_1.c ****     #ifdef CYBLE_LLS
 296:.\Generated_Source\PSoC4/BLE_1.c ****         CyBle_LlsInit();
 297:.\Generated_Source\PSoC4/BLE_1.c ****     #endif /* CYBLE_LLS */
 298:.\Generated_Source\PSoC4/BLE_1.c **** 
 299:.\Generated_Source\PSoC4/BLE_1.c ****     #ifdef CYBLE_LNS
 300:.\Generated_Source\PSoC4/BLE_1.c ****         CyBle_LnsInit();
 301:.\Generated_Source\PSoC4/BLE_1.c ****     #endif /* CYBLE_LNS */
 302:.\Generated_Source\PSoC4/BLE_1.c ****     
 303:.\Generated_Source\PSoC4/BLE_1.c ****     #ifdef CYBLE_NDCS
 304:.\Generated_Source\PSoC4/BLE_1.c ****         CyBle_NdcsInit();
 305:.\Generated_Source\PSoC4/BLE_1.c ****     #endif /* CYBLE_NDCS */
 306:.\Generated_Source\PSoC4/BLE_1.c ****     
 307:.\Generated_Source\PSoC4/BLE_1.c ****     #ifdef CYBLE_PASS
 308:.\Generated_Source\PSoC4/BLE_1.c ****         CyBle_PassInit();
 309:.\Generated_Source\PSoC4/BLE_1.c ****     #endif /* CYBLE_PASS */
 310:.\Generated_Source\PSoC4/BLE_1.c ****     
 311:.\Generated_Source\PSoC4/BLE_1.c ****     #ifdef CYBLE_RSCS
 312:.\Generated_Source\PSoC4/BLE_1.c ****         CyBle_RscsInit();
 313:.\Generated_Source\PSoC4/BLE_1.c ****     #endif /* CYBLE_RSCS */
 314:.\Generated_Source\PSoC4/BLE_1.c **** 
 315:.\Generated_Source\PSoC4/BLE_1.c ****     #ifdef CYBLE_RTUS
 316:.\Generated_Source\PSoC4/BLE_1.c ****         CyBle_RtusInit();
 317:.\Generated_Source\PSoC4/BLE_1.c ****     #endif /* CYBLE_RTUS */
 318:.\Generated_Source\PSoC4/BLE_1.c **** 
 319:.\Generated_Source\PSoC4/BLE_1.c ****     #ifdef CYBLE_SCPS
 320:.\Generated_Source\PSoC4/BLE_1.c ****         CyBle_ScpsInit();
 321:.\Generated_Source\PSoC4/BLE_1.c ****     #endif /* CYBLE_SCPS */
 322:.\Generated_Source\PSoC4/BLE_1.c ****     
 323:.\Generated_Source\PSoC4/BLE_1.c ****     #ifdef CYBLE_TPS
 324:.\Generated_Source\PSoC4/BLE_1.c ****         CyBle_TpsInit();
 325:.\Generated_Source\PSoC4/BLE_1.c ****     #endif /* CYBLE_TPS */
 326:.\Generated_Source\PSoC4/BLE_1.c ****     
 327:.\Generated_Source\PSoC4/BLE_1.c ****     #ifdef CYBLE_UDS
 328:.\Generated_Source\PSoC4/BLE_1.c ****         CyBle_UdsInit();
 329:.\Generated_Source\PSoC4/BLE_1.c ****     #endif /* CYBLE_UDS */
 330:.\Generated_Source\PSoC4/BLE_1.c **** 
 331:.\Generated_Source\PSoC4/BLE_1.c ****     #ifdef CYBLE_WPTS
 332:.\Generated_Source\PSoC4/BLE_1.c ****         CyBle_WptsInit();
 333:.\Generated_Source\PSoC4/BLE_1.c ****     #endif /* CYBLE_WPTS */
 334:.\Generated_Source\PSoC4/BLE_1.c **** 
ARM GAS  C:\Users\Matthew\AppData\Local\Temp\cc2Cvq26.s 			page 11


 335:.\Generated_Source\PSoC4/BLE_1.c ****     #ifdef CYBLE_WSS
 336:.\Generated_Source\PSoC4/BLE_1.c ****         CyBle_WssInit();
 337:.\Generated_Source\PSoC4/BLE_1.c ****     #endif /* CYBLE_WSS */
 338:.\Generated_Source\PSoC4/BLE_1.c **** }
 233              		.loc 1 338 0
 234 0008 BD46     		mov	sp, r7
 235              		@ sp needed
 236 000a 80BD     		pop	{r7, pc}
 237              		.cfi_endproc
 238              	.LFE3:
 239              		.size	CyBle_ServiceInit, .-CyBle_ServiceInit
 240              		.section	.rodata
 241              		.align	2
 242              	.LC0:
 243 0000 2400     		.short	36
 244 0002 03       		.byte	3
 245 0003 00       		.space	1
 246 0004 3000     		.short	48
 247 0006 01       		.byte	1
 248 0007 00       		.space	1
 249 0008 2800     		.short	40
 250 000a 02       		.byte	2
 251 000b 00       		.space	1
 252 000c 2400     		.short	36
 253 000e 01       		.byte	1
 254 000f 00       		.space	1
 255 0010 2400     		.short	36
 256 0012 01       		.byte	1
 257 0013 00       		.space	1
 258              		.section	.text.CyBle_Start,"ax",%progbits
 259              		.align	2
 260              		.global	CyBle_Start
 261              		.code	16
 262              		.thumb_func
 263              		.type	CyBle_Start, %function
 264              	CyBle_Start:
 265              	.LFB4:
 339:.\Generated_Source\PSoC4/BLE_1.c **** 
 340:.\Generated_Source\PSoC4/BLE_1.c **** 
 341:.\Generated_Source\PSoC4/BLE_1.c **** /******************************************************************************
 342:.\Generated_Source\PSoC4/BLE_1.c **** * Function Name: CyBle_Start
 343:.\Generated_Source\PSoC4/BLE_1.c **** ***************************************************************************//**
 344:.\Generated_Source\PSoC4/BLE_1.c **** * 
 345:.\Generated_Source\PSoC4/BLE_1.c **** *  This function initializes the BLE Stack, which consists of the BLE Stack 
 346:.\Generated_Source\PSoC4/BLE_1.c **** *  Manager, BLE Controller, and BLE Host modules. It takes care of initializing
 347:.\Generated_Source\PSoC4/BLE_1.c **** *  the Profile layer, schedulers, Timer and other platform related
 348:.\Generated_Source\PSoC4/BLE_1.c **** *  resources required for the BLE component. It also registers the callback 
 349:.\Generated_Source\PSoC4/BLE_1.c **** *  function for BLE events that will be registered in the BLE stack.
 350:.\Generated_Source\PSoC4/BLE_1.c **** * 
 351:.\Generated_Source\PSoC4/BLE_1.c **** *  Note that this function does not reset the BLE Stack.
 352:.\Generated_Source\PSoC4/BLE_1.c **** * 
 353:.\Generated_Source\PSoC4/BLE_1.c **** *  For HCI-Mode of operation, this function will not initialize the BLE Host 
 354:.\Generated_Source\PSoC4/BLE_1.c **** *  module.
 355:.\Generated_Source\PSoC4/BLE_1.c **** * 
 356:.\Generated_Source\PSoC4/BLE_1.c **** *  Calling this function results in the generation of CYBLE_EVT_STACK_ON event
 357:.\Generated_Source\PSoC4/BLE_1.c **** *  on successful initialization of the BLE Stack.
 358:.\Generated_Source\PSoC4/BLE_1.c **** * 
ARM GAS  C:\Users\Matthew\AppData\Local\Temp\cc2Cvq26.s 			page 12


 359:.\Generated_Source\PSoC4/BLE_1.c **** *  \param callbackFunc: Event callback function to receive events from BLE stack.
 360:.\Generated_Source\PSoC4/BLE_1.c **** *   CYBLE_CALLBACK_T is a function pointer type.
 361:.\Generated_Source\PSoC4/BLE_1.c **** * 
 362:.\Generated_Source\PSoC4/BLE_1.c **** * \return
 363:.\Generated_Source\PSoC4/BLE_1.c **** *  CYBLE_API_RESULT_T : Return value indicates if the function succeeded or 
 364:.\Generated_Source\PSoC4/BLE_1.c **** *  failed. Following are the possible error codes.
 365:.\Generated_Source\PSoC4/BLE_1.c **** * 
 366:.\Generated_Source\PSoC4/BLE_1.c **** *   <table>
 367:.\Generated_Source\PSoC4/BLE_1.c **** *  	  <tr>
 368:.\Generated_Source\PSoC4/BLE_1.c **** *       <th>Error codes</th>
 369:.\Generated_Source\PSoC4/BLE_1.c **** *       <th>Description</th>
 370:.\Generated_Source\PSoC4/BLE_1.c **** *     </tr>
 371:.\Generated_Source\PSoC4/BLE_1.c **** *     <tr>
 372:.\Generated_Source\PSoC4/BLE_1.c **** *       <td>CYBLE_ERROR_OK</td>
 373:.\Generated_Source\PSoC4/BLE_1.c **** *       <td>On successful operation.</td>
 374:.\Generated_Source\PSoC4/BLE_1.c **** *     </tr>
 375:.\Generated_Source\PSoC4/BLE_1.c **** *     <tr>
 376:.\Generated_Source\PSoC4/BLE_1.c **** *       <td>CYBLE_ERROR_INVALID_PARAMETER</td>
 377:.\Generated_Source\PSoC4/BLE_1.c **** *       <td>On passing a NULL pointer to the function when the BLE stack is not built in HCI mode. 
 378:.\Generated_Source\PSoC4/BLE_1.c **** *			CYBLE_ERROR_INVALID_PARAMETER is never returned in HCI mode.</td>
 379:.\Generated_Source\PSoC4/BLE_1.c **** *     </tr>
 380:.\Generated_Source\PSoC4/BLE_1.c **** *     <tr>
 381:.\Generated_Source\PSoC4/BLE_1.c **** *       <td>CYBLE_ERROR_REPEATED_ATTEMPTS</td>
 382:.\Generated_Source\PSoC4/BLE_1.c **** *       <td>On invoking this function more than once without calling CyBle_Shutdown() 
 383:.\Generated_Source\PSoC4/BLE_1.c **** *           function between calls to this function.</td>
 384:.\Generated_Source\PSoC4/BLE_1.c **** *     </tr>
 385:.\Generated_Source\PSoC4/BLE_1.c **** *     <tr>
 386:.\Generated_Source\PSoC4/BLE_1.c **** *       <td>CYBLE_ERROR_MEMORY_ALLOCATION_FAILED</td>
 387:.\Generated_Source\PSoC4/BLE_1.c **** *       <td>There is insufficient memory available.</td>
 388:.\Generated_Source\PSoC4/BLE_1.c **** *     </tr>
 389:.\Generated_Source\PSoC4/BLE_1.c **** *   </table>
 390:.\Generated_Source\PSoC4/BLE_1.c **** * 
 391:.\Generated_Source\PSoC4/BLE_1.c **** *  \globalvars
 392:.\Generated_Source\PSoC4/BLE_1.c **** *   The CyBle_initVar variable is used to indicate initial
 393:.\Generated_Source\PSoC4/BLE_1.c **** *   configuration of this component. The variable is initialized to zero (0u)
 394:.\Generated_Source\PSoC4/BLE_1.c **** *   and set to one (1u) the first time CyBle_Start() is called. This
 395:.\Generated_Source\PSoC4/BLE_1.c **** *   allows for component initialization without re-initialization in all
 396:.\Generated_Source\PSoC4/BLE_1.c **** *   subsequent calls to the CyBle_Start() routine.
 397:.\Generated_Source\PSoC4/BLE_1.c **** * 
 398:.\Generated_Source\PSoC4/BLE_1.c **** ******************************************************************************/
 399:.\Generated_Source\PSoC4/BLE_1.c **** CYBLE_API_RESULT_T CyBle_Start(CYBLE_CALLBACK_T callbackFunc)
 400:.\Generated_Source\PSoC4/BLE_1.c **** {
 266              		.loc 1 400 0
 267              		.cfi_startproc
 268 0000 B0B5     		push	{r4, r5, r7, lr}
 269              		.cfi_def_cfa_offset 16
 270              		.cfi_offset 4, -16
 271              		.cfi_offset 5, -12
 272              		.cfi_offset 7, -8
 273              		.cfi_offset 14, -4
 274 0002 94B0     		sub	sp, sp, #80
 275              		.cfi_def_cfa_offset 96
 276 0004 04AF     		add	r7, sp, #16
 277              		.cfi_def_cfa 7, 80
 278 0006 7860     		str	r0, [r7, #4]
 401:.\Generated_Source\PSoC4/BLE_1.c ****     CYBLE_API_RESULT_T apiResult = CYBLE_ERROR_OK;
 279              		.loc 1 401 0
ARM GAS  C:\Users\Matthew\AppData\Local\Temp\cc2Cvq26.s 			page 13


 280 0008 3E23     		mov	r3, #62
 281 000a FB18     		add	r3, r7, r3
 282 000c 0022     		mov	r2, #0
 283 000e 1A80     		strh	r2, [r3]
 402:.\Generated_Source\PSoC4/BLE_1.c ****     
 403:.\Generated_Source\PSoC4/BLE_1.c ****     #if(CYBLE_MODE_PROFILE)
 404:.\Generated_Source\PSoC4/BLE_1.c ****     
 405:.\Generated_Source\PSoC4/BLE_1.c ****     CYBLE_STK_APP_DATA_BUFF_T cyBle_stackDataBuff[CYBLE_STACK_APP_MIN_POOL] = 
 284              		.loc 1 405 0
 285 0010 2823     		mov	r3, #40
 286 0012 FA18     		add	r2, r7, r3
 287 0014 3E4B     		ldr	r3, .L12
 288 0016 111C     		mov	r1, r2
 289 0018 1A1C     		mov	r2, r3
 290 001a 1423     		mov	r3, #20
 291 001c 081C     		mov	r0, r1
 292 001e 111C     		mov	r1, r2
 293 0020 1A1C     		mov	r2, r3
 294 0022 FFF7FEFF 		bl	memcpy
 406:.\Generated_Source\PSoC4/BLE_1.c ****     {
 407:.\Generated_Source\PSoC4/BLE_1.c ****         {CYBLE_GATT_MTU_PLUS_L2CAP_MEM_EXT, CYBLE_GATT_MTU_BUFF_COUNT + CYBLE_GATT_MAX_ATTR_BUFF_CO
 408:.\Generated_Source\PSoC4/BLE_1.c ****         {CYBLE_L2CAP_PSM_PLUS_L2CAP_MEM_EXT, CYBLE_L2CAP_PSM_COUNT},
 409:.\Generated_Source\PSoC4/BLE_1.c ****         {CYBLE_L2CAP_CBFC_PLUS_L2CAP_MEM_EXT, 2u * CYBLE_L2CAP_LOGICAL_CHANNEL_COUNT},
 410:.\Generated_Source\PSoC4/BLE_1.c ****         {CYBLE_L2CAP_MTU_PLUS_L2CAP_MEM_EXT, CYBLE_L2CAP_LOGICAL_CHANNEL_COUNT},
 411:.\Generated_Source\PSoC4/BLE_1.c ****         {CYBLE_L2CAP_MPS_PLUS_L2CAP_MEM_EXT, CYBLE_L2CAP_LOGICAL_CHANNEL_COUNT * (CYBLE_L2CAP_MTU_M
 412:.\Generated_Source\PSoC4/BLE_1.c ****     }; 
 413:.\Generated_Source\PSoC4/BLE_1.c **** 
 414:.\Generated_Source\PSoC4/BLE_1.c ****     #endif /* CYBLE_MODE_PROFILE */
 415:.\Generated_Source\PSoC4/BLE_1.c ****     
 416:.\Generated_Source\PSoC4/BLE_1.c ****     /* If not initialized then initialize all the required hardware and software */
 417:.\Generated_Source\PSoC4/BLE_1.c ****     if(cyBle_initVar == 0u)
 295              		.loc 1 417 0
 296 0026 3B4B     		ldr	r3, .L12+4
 297 0028 1B78     		ldrb	r3, [r3]
 298 002a 002B     		cmp	r3, #0
 299 002c 04D1     		bne	.L6
 418:.\Generated_Source\PSoC4/BLE_1.c ****     {
 419:.\Generated_Source\PSoC4/BLE_1.c ****         CyBle_Init();
 300              		.loc 1 419 0
 301 002e FFF7FEFF 		bl	CyBle_Init
 420:.\Generated_Source\PSoC4/BLE_1.c ****         cyBle_initVar = 1u;
 302              		.loc 1 420 0
 303 0032 384B     		ldr	r3, .L12+4
 304 0034 0122     		mov	r2, #1
 305 0036 1A70     		strb	r2, [r3]
 306              	.L6:
 421:.\Generated_Source\PSoC4/BLE_1.c ****     }
 422:.\Generated_Source\PSoC4/BLE_1.c ****     
 423:.\Generated_Source\PSoC4/BLE_1.c ****     if(callbackFunc != NULL)
 307              		.loc 1 423 0
 308 0038 7B68     		ldr	r3, [r7, #4]
 309 003a 002B     		cmp	r3, #0
 310 003c 5CD0     		beq	.L7
 424:.\Generated_Source\PSoC4/BLE_1.c ****     {
 425:.\Generated_Source\PSoC4/BLE_1.c ****         CyBle_ApplCallback = callbackFunc;
 311              		.loc 1 425 0
 312 003e 364B     		ldr	r3, .L12+8
ARM GAS  C:\Users\Matthew\AppData\Local\Temp\cc2Cvq26.s 			page 14


 313 0040 7A68     		ldr	r2, [r7, #4]
 314 0042 1A60     		str	r2, [r3]
 426:.\Generated_Source\PSoC4/BLE_1.c ****         
 427:.\Generated_Source\PSoC4/BLE_1.c ****     #if(CYBLE_SHARING_MODE_EXPORT)
 428:.\Generated_Source\PSoC4/BLE_1.c ****         if(cyBle_stackMemoryRam == NULL)
 429:.\Generated_Source\PSoC4/BLE_1.c ****         {
 430:.\Generated_Source\PSoC4/BLE_1.c ****             cyBle_stackMemoryRam = (uint8 *)malloc(CYBLE_STACK_RAM_SIZE);
 431:.\Generated_Source\PSoC4/BLE_1.c ****             if(cyBle_stackMemoryRam == NULL)
 432:.\Generated_Source\PSoC4/BLE_1.c ****             {
 433:.\Generated_Source\PSoC4/BLE_1.c ****                 apiResult = CYBLE_ERROR_MEMORY_ALLOCATION_FAILED;
 434:.\Generated_Source\PSoC4/BLE_1.c ****             }
 435:.\Generated_Source\PSoC4/BLE_1.c ****         }
 436:.\Generated_Source\PSoC4/BLE_1.c ****     #endif /* CYBLE_SHARING_MODE_EXPORT */
 437:.\Generated_Source\PSoC4/BLE_1.c ****         if(apiResult == CYBLE_ERROR_OK)
 315              		.loc 1 437 0
 316 0044 3E23     		mov	r3, #62
 317 0046 FB18     		add	r3, r7, r3
 318 0048 1B88     		ldrh	r3, [r3]
 319 004a 002B     		cmp	r3, #0
 320 004c 29D1     		bne	.L8
 321              	.LBB2:
 438:.\Generated_Source\PSoC4/BLE_1.c ****         {
 439:.\Generated_Source\PSoC4/BLE_1.c ****             CYBLE_DLE_CONFIG_PARAM_T dleConfigParams;
 440:.\Generated_Source\PSoC4/BLE_1.c ****             CYBLE_PRIVACY_1_2_CONFIG_PARAM_T privacyConfigParams;
 441:.\Generated_Source\PSoC4/BLE_1.c ****             CYBLE_STACK_CONFIG_PARAM_T stackConfig;
 442:.\Generated_Source\PSoC4/BLE_1.c ****             uint16 featureHeapReq;
 443:.\Generated_Source\PSoC4/BLE_1.c ****             
 444:.\Generated_Source\PSoC4/BLE_1.c ****             stackConfig.privacyConfig = &privacyConfigParams;
 322              		.loc 1 444 0
 323 004e 1023     		mov	r3, #16
 324 0050 FB18     		add	r3, r7, r3
 325 0052 1C22     		mov	r2, #28
 326 0054 BA18     		add	r2, r7, r2
 327 0056 5A60     		str	r2, [r3, #4]
 445:.\Generated_Source\PSoC4/BLE_1.c ****             stackConfig.dleConfig = &dleConfigParams;
 328              		.loc 1 445 0
 329 0058 1023     		mov	r3, #16
 330 005a FB18     		add	r3, r7, r3
 331 005c 2022     		mov	r2, #32
 332 005e BA18     		add	r2, r7, r2
 333 0060 1A60     		str	r2, [r3]
 446:.\Generated_Source\PSoC4/BLE_1.c ****             
 447:.\Generated_Source\PSoC4/BLE_1.c ****             /* Configure default BLE 4.1 features and enabled 4.2 features */
 448:.\Generated_Source\PSoC4/BLE_1.c ****             stackConfig.feature_mask = CYBLE_DLE_FEATURE | CYBLE_LL_PRIVACY_FEATURE | 
 334              		.loc 1 448 0
 335 0062 1023     		mov	r3, #16
 336 0064 FB18     		add	r3, r7, r3
 337 0066 0022     		mov	r2, #0
 338 0068 1A81     		strh	r2, [r3, #8]
 449:.\Generated_Source\PSoC4/BLE_1.c ****                                        CYBLE_SECURE_CONN_FEATURE;
 450:.\Generated_Source\PSoC4/BLE_1.c **** 
 451:.\Generated_Source\PSoC4/BLE_1.c ****             /* Configure DLE */
 452:.\Generated_Source\PSoC4/BLE_1.c ****             dleConfigParams.dleMaxTxCapability = CYBLE_LL_MAX_TX_PAYLOAD_SIZE;
 339              		.loc 1 452 0
 340 006a 2023     		mov	r3, #32
 341 006c FB18     		add	r3, r7, r3
 342 006e 1B22     		mov	r2, #27
ARM GAS  C:\Users\Matthew\AppData\Local\Temp\cc2Cvq26.s 			page 15


 343 0070 1A80     		strh	r2, [r3]
 453:.\Generated_Source\PSoC4/BLE_1.c ****             dleConfigParams.dleMaxRxCapability = CYBLE_LL_MAX_RX_PAYLOAD_SIZE;
 344              		.loc 1 453 0
 345 0072 2023     		mov	r3, #32
 346 0074 FB18     		add	r3, r7, r3
 347 0076 1B22     		mov	r2, #27
 348 0078 5A80     		strh	r2, [r3, #2]
 454:.\Generated_Source\PSoC4/BLE_1.c ****             dleConfigParams.dleNumTxBuffer = CYBLE_LL_DEFAULT_NUM_ACL_TX_PACKETS;
 349              		.loc 1 454 0
 350 007a 2023     		mov	r3, #32
 351 007c FB18     		add	r3, r7, r3
 352 007e 0422     		mov	r2, #4
 353 0080 1A71     		strb	r2, [r3, #4]
 455:.\Generated_Source\PSoC4/BLE_1.c ****         #if(CYBLE_DLE_FEATURE_ENABLED)
 456:.\Generated_Source\PSoC4/BLE_1.c ****             CyBle_EnableDleFeature();              /* Enable DLE code in stack */
 457:.\Generated_Source\PSoC4/BLE_1.c ****         #endif /* CYBLE_DLE_FEATURE_ENABLED */
 458:.\Generated_Source\PSoC4/BLE_1.c ****         
 459:.\Generated_Source\PSoC4/BLE_1.c ****             /* Configure LL Privacy */
 460:.\Generated_Source\PSoC4/BLE_1.c ****             privacyConfigParams.resolvingListSize = CYBLE_MAX_RESOLVABLE_DEVICES;
 354              		.loc 1 460 0
 355 0082 1C23     		mov	r3, #28
 356 0084 FB18     		add	r3, r7, r3
 357 0086 0022     		mov	r2, #0
 358 0088 1A70     		strb	r2, [r3]
 461:.\Generated_Source\PSoC4/BLE_1.c ****         #if(CYBLE_LL_PRIVACY_FEATURE_ENABLED)
 462:.\Generated_Source\PSoC4/BLE_1.c ****             CyBle_EnablePrivacyFeature();          /* Enable LL Privacy code in stack */
 463:.\Generated_Source\PSoC4/BLE_1.c ****         #endif /* CYBLE_LL_PRIVACY_FEATURE_ENABLED */
 464:.\Generated_Source\PSoC4/BLE_1.c **** 
 465:.\Generated_Source\PSoC4/BLE_1.c ****             apiResult = CyBle_StackSetFeatureConfig(&stackConfig, &featureHeapReq);
 359              		.loc 1 465 0
 360 008a 3E23     		mov	r3, #62
 361 008c FC18     		add	r4, r7, r3
 362 008e 1023     		mov	r3, #16
 363 0090 FA18     		add	r2, r7, r3
 364 0092 0E23     		mov	r3, #14
 365 0094 FB18     		add	r3, r7, r3
 366 0096 101C     		mov	r0, r2
 367 0098 191C     		mov	r1, r3
 368 009a FFF7FEFF 		bl	CyBle_StackSetFeatureConfig
 369 009e 031C     		mov	r3, r0
 370 00a0 2380     		strh	r3, [r4]
 371              	.L8:
 372              	.LBE2:
 466:.\Generated_Source\PSoC4/BLE_1.c ****             }
 467:.\Generated_Source\PSoC4/BLE_1.c ****     
 468:.\Generated_Source\PSoC4/BLE_1.c ****         if(apiResult == CYBLE_ERROR_OK)
 373              		.loc 1 468 0
 374 00a2 3E23     		mov	r3, #62
 375 00a4 FB18     		add	r3, r7, r3
 376 00a6 1B88     		ldrh	r3, [r3]
 377 00a8 002B     		cmp	r3, #0
 378 00aa 29D1     		bne	.L10
 469:.\Generated_Source\PSoC4/BLE_1.c ****         {
 470:.\Generated_Source\PSoC4/BLE_1.c ****             
 471:.\Generated_Source\PSoC4/BLE_1.c ****         #if(CYBLE_MODE_PROFILE)
 472:.\Generated_Source\PSoC4/BLE_1.c ****             #if(CYBLE_BONDING_REQUIREMENT == CYBLE_BONDING_YES)
 473:.\Generated_Source\PSoC4/BLE_1.c ****                 apiResult = CyBle_StackInit(&CyBle_EventHandler, cyBle_stackMemoryRam, 
ARM GAS  C:\Users\Matthew\AppData\Local\Temp\cc2Cvq26.s 			page 16


 379              		.loc 1 473 0
 380 00ac 3E23     		mov	r3, #62
 381 00ae FC18     		add	r4, r7, r3
 382 00b0 1A48     		ldr	r0, .L12+12
 383 00b2 1B49     		ldr	r1, .L12+16
 384 00b4 AE23     		mov	r3, #174
 385 00b6 1A01     		lsl	r2, r3, #4
 386 00b8 2823     		mov	r3, #40
 387 00ba FD18     		add	r5, r7, r3
 388 00bc 0523     		mov	r3, #5
 389 00be 0093     		str	r3, [sp]
 390 00c0 184B     		ldr	r3, .L12+20
 391 00c2 0193     		str	r3, [sp, #4]
 392 00c4 184B     		ldr	r3, .L12+24
 393 00c6 0293     		str	r3, [sp, #8]
 394 00c8 2B1C     		mov	r3, r5
 395 00ca FFF7FEFF 		bl	CyBle_StackInit
 396 00ce 031C     		mov	r3, r0
 397 00d0 2380     		strh	r3, [r4]
 474:.\Generated_Source\PSoC4/BLE_1.c ****                     CYBLE_STACK_RAM_SIZE - CYBLE_GATT_PREPARE_WRITE_BUFF_LEN, cyBle_stackDataBuff, 
 475:.\Generated_Source\PSoC4/BLE_1.c ****                     CYBLE_STACK_APP_MIN_POOL, cyBle_flashStorage.stackFlashptr, CYBLE_STACK_FLASH_S
 476:.\Generated_Source\PSoC4/BLE_1.c ****             #else
 477:.\Generated_Source\PSoC4/BLE_1.c ****                 apiResult = CyBle_StackInit(&CyBle_EventHandler, cyBle_stackMemoryRam, 
 478:.\Generated_Source\PSoC4/BLE_1.c ****                     CYBLE_STACK_RAM_SIZE - CYBLE_GATT_PREPARE_WRITE_BUFF_LEN, cyBle_stackDataBuff, 
 479:.\Generated_Source\PSoC4/BLE_1.c ****                     CYBLE_STACK_APP_MIN_POOL, NULL, 0u);
 480:.\Generated_Source\PSoC4/BLE_1.c ****             #endif  /* CYBLE_BONDING_REQUIREMENT == CYBLE_BONDING_YES */
 481:.\Generated_Source\PSoC4/BLE_1.c ****         #else
 482:.\Generated_Source\PSoC4/BLE_1.c ****             apiResult = CyBle_StackInit(&CyBle_EventHandler, cyBle_stackMemoryRam, CYBLE_STACK_RAM_
 483:.\Generated_Source\PSoC4/BLE_1.c ****                 NULL, 0u, NULL, 0u);
 484:.\Generated_Source\PSoC4/BLE_1.c ****         #endif /* CYBLE_MODE_PROFILE */
 485:.\Generated_Source\PSoC4/BLE_1.c **** 
 486:.\Generated_Source\PSoC4/BLE_1.c ****             if(apiResult == CYBLE_ERROR_OK)
 398              		.loc 1 486 0
 399 00d2 3E23     		mov	r3, #62
 400 00d4 FB18     		add	r3, r7, r3
 401 00d6 1B88     		ldrh	r3, [r3]
 402 00d8 002B     		cmp	r3, #0
 403 00da 11D1     		bne	.L10
 487:.\Generated_Source\PSoC4/BLE_1.c ****             {
 488:.\Generated_Source\PSoC4/BLE_1.c ****                 CyBle_SetState(CYBLE_STATE_INITIALIZING);
 404              		.loc 1 488 0
 405 00dc 134B     		ldr	r3, .L12+28
 406 00de 0122     		mov	r2, #1
 407 00e0 1A70     		strb	r2, [r3]
 489:.\Generated_Source\PSoC4/BLE_1.c ****                 
 490:.\Generated_Source\PSoC4/BLE_1.c ****             #if (CYBLE_GATT_ROLE_CLIENT)
 491:.\Generated_Source\PSoC4/BLE_1.c ****                 CyBle_SetClientState(CYBLE_CLIENT_STATE_DISCONNECTED);
 492:.\Generated_Source\PSoC4/BLE_1.c ****             #endif /* CYBLE_GATT_ROLE_CLIENT */
 493:.\Generated_Source\PSoC4/BLE_1.c ****                 
 494:.\Generated_Source\PSoC4/BLE_1.c ****             #if(CYBLE_GATT_ROLE_SERVER)
 495:.\Generated_Source\PSoC4/BLE_1.c ****                 apiResult = CyBle_GattsDbRegister(cyBle_gattDB, CYBLE_GATT_DB_INDEX_COUNT, CYBLE_GA
 408              		.loc 1 495 0
 409 00e2 3E23     		mov	r3, #62
 410 00e4 FC18     		add	r4, r7, r3
 411 00e6 124B     		ldr	r3, .L12+32
 412 00e8 181C     		mov	r0, r3
 413 00ea 1D21     		mov	r1, #29
ARM GAS  C:\Users\Matthew\AppData\Local\Temp\cc2Cvq26.s 			page 17


 414 00ec 0822     		mov	r2, #8
 415 00ee FFF7FEFF 		bl	CyBle_GattsDbRegister
 416 00f2 031C     		mov	r3, r0
 417 00f4 2380     		strh	r3, [r4]
 418 00f6 03E0     		b	.L10
 419              	.L7:
 496:.\Generated_Source\PSoC4/BLE_1.c ****             #endif /* CYBLE_GATT_ROLE_SERVER */
 497:.\Generated_Source\PSoC4/BLE_1.c ****             }
 498:.\Generated_Source\PSoC4/BLE_1.c ****         }
 499:.\Generated_Source\PSoC4/BLE_1.c ****     }
 500:.\Generated_Source\PSoC4/BLE_1.c ****     else
 501:.\Generated_Source\PSoC4/BLE_1.c ****     {
 502:.\Generated_Source\PSoC4/BLE_1.c ****         apiResult = CYBLE_ERROR_INVALID_PARAMETER;
 420              		.loc 1 502 0
 421 00f8 3E23     		mov	r3, #62
 422 00fa FB18     		add	r3, r7, r3
 423 00fc 0122     		mov	r2, #1
 424 00fe 1A80     		strh	r2, [r3]
 425              	.L10:
 503:.\Generated_Source\PSoC4/BLE_1.c ****     }
 504:.\Generated_Source\PSoC4/BLE_1.c **** 
 505:.\Generated_Source\PSoC4/BLE_1.c ****     return (apiResult);
 426              		.loc 1 505 0
 427 0100 3E23     		mov	r3, #62
 428 0102 FB18     		add	r3, r7, r3
 429 0104 1B88     		ldrh	r3, [r3]
 506:.\Generated_Source\PSoC4/BLE_1.c **** }
 430              		.loc 1 506 0
 431 0106 181C     		mov	r0, r3
 432 0108 BD46     		mov	sp, r7
 433 010a 10B0     		add	sp, sp, #64
 434              		@ sp needed
 435 010c B0BD     		pop	{r4, r5, r7, pc}
 436              	.L13:
 437 010e C046     		.align	2
 438              	.L12:
 439 0110 00000000 		.word	.LC0
 440 0114 00000000 		.word	cyBle_initVar
 441 0118 00000000 		.word	CyBle_ApplCallback
 442 011c 00000000 		.word	CyBle_EventHandler
 443 0120 00000000 		.word	cyBle_stackMemoryRam
 444 0124 00000000 		.word	cyBle_flashStorage
 445 0128 79020000 		.word	633
 446 012c 00000000 		.word	cyBle_state
 447 0130 00000000 		.word	cyBle_gattDB
 448              		.cfi_endproc
 449              	.LFE4:
 450              		.size	CyBle_Start, .-CyBle_Start
 451              		.section	.text.CyBle_Stop,"ax",%progbits
 452              		.align	2
 453              		.global	CyBle_Stop
 454              		.code	16
 455              		.thumb_func
 456              		.type	CyBle_Stop, %function
 457              	CyBle_Stop:
 458              	.LFB5:
 507:.\Generated_Source\PSoC4/BLE_1.c **** 
ARM GAS  C:\Users\Matthew\AppData\Local\Temp\cc2Cvq26.s 			page 18


 508:.\Generated_Source\PSoC4/BLE_1.c **** 
 509:.\Generated_Source\PSoC4/BLE_1.c **** /******************************************************************************
 510:.\Generated_Source\PSoC4/BLE_1.c **** * Function Name: CyBle_Stop
 511:.\Generated_Source\PSoC4/BLE_1.c **** ***************************************************************************//**
 512:.\Generated_Source\PSoC4/BLE_1.c **** * 
 513:.\Generated_Source\PSoC4/BLE_1.c **** *  This function stops any ongoing operation in the BLE Stack and forces the 
 514:.\Generated_Source\PSoC4/BLE_1.c **** *  BLE Stack to shut down. The only function that can be called after calling
 515:.\Generated_Source\PSoC4/BLE_1.c **** *  this function is CyBle_Start(). 
 516:.\Generated_Source\PSoC4/BLE_1.c **** * 
 517:.\Generated_Source\PSoC4/BLE_1.c **** * \return
 518:.\Generated_Source\PSoC4/BLE_1.c **** *  None
 519:.\Generated_Source\PSoC4/BLE_1.c **** * 
 520:.\Generated_Source\PSoC4/BLE_1.c **** ******************************************************************************/
 521:.\Generated_Source\PSoC4/BLE_1.c **** void CyBle_Stop(void)
 522:.\Generated_Source\PSoC4/BLE_1.c **** {
 459              		.loc 1 522 0
 460              		.cfi_startproc
 461 0000 80B5     		push	{r7, lr}
 462              		.cfi_def_cfa_offset 8
 463              		.cfi_offset 7, -8
 464              		.cfi_offset 14, -4
 465 0002 00AF     		add	r7, sp, #0
 466              		.cfi_def_cfa_register 7
 523:.\Generated_Source\PSoC4/BLE_1.c ****     CyBle_Shutdown();                         /* Stop all ongoing activities */
 467              		.loc 1 523 0
 468 0004 FFF7FEFF 		bl	CyBle_Shutdown
 524:.\Generated_Source\PSoC4/BLE_1.c ****     CyBle_SetState(CYBLE_STATE_STOPPED);
 469              		.loc 1 524 0
 470 0008 024B     		ldr	r3, .L15
 471 000a 0022     		mov	r2, #0
 472 000c 1A70     		strb	r2, [r3]
 525:.\Generated_Source\PSoC4/BLE_1.c ****     #if(CYBLE_SHARING_MODE_EXPORT)
 526:.\Generated_Source\PSoC4/BLE_1.c ****         if(cyBle_stackMemoryRam != NULL)
 527:.\Generated_Source\PSoC4/BLE_1.c ****         {
 528:.\Generated_Source\PSoC4/BLE_1.c ****             free(cyBle_stackMemoryRam);
 529:.\Generated_Source\PSoC4/BLE_1.c ****         }
 530:.\Generated_Source\PSoC4/BLE_1.c ****     #endif /* CYBLE_SHARING_MODE_EXPORT */
 531:.\Generated_Source\PSoC4/BLE_1.c **** }
 473              		.loc 1 531 0
 474 000e BD46     		mov	sp, r7
 475              		@ sp needed
 476 0010 80BD     		pop	{r7, pc}
 477              	.L16:
 478 0012 C046     		.align	2
 479              	.L15:
 480 0014 00000000 		.word	cyBle_state
 481              		.cfi_endproc
 482              	.LFE5:
 483              		.size	CyBle_Stop, .-CyBle_Stop
 484              		.section	.text.CyBle_StoreBondingData,"ax",%progbits
 485              		.align	2
 486              		.global	CyBle_StoreBondingData
 487              		.code	16
 488              		.thumb_func
 489              		.type	CyBle_StoreBondingData, %function
 490              	CyBle_StoreBondingData:
 491              	.LFB6:
ARM GAS  C:\Users\Matthew\AppData\Local\Temp\cc2Cvq26.s 			page 19


 532:.\Generated_Source\PSoC4/BLE_1.c **** 
 533:.\Generated_Source\PSoC4/BLE_1.c **** 
 534:.\Generated_Source\PSoC4/BLE_1.c **** #if((CYBLE_GAP_ROLE_PERIPHERAL || CYBLE_GAP_ROLE_CENTRAL) && (CYBLE_BONDING_REQUIREMENT == CYBLE_BO
 535:.\Generated_Source\PSoC4/BLE_1.c **** 
 536:.\Generated_Source\PSoC4/BLE_1.c ****     
 537:.\Generated_Source\PSoC4/BLE_1.c **** /******************************************************************************
 538:.\Generated_Source\PSoC4/BLE_1.c **** * Function Name: CyBle_StoreBondingData
 539:.\Generated_Source\PSoC4/BLE_1.c **** ***************************************************************************//**
 540:.\Generated_Source\PSoC4/BLE_1.c **** * 
 541:.\Generated_Source\PSoC4/BLE_1.c **** *  This function writes the new bonding data from RAM to the dedicated Flash 
 542:.\Generated_Source\PSoC4/BLE_1.c **** *  location as defined by the component. It performs data comparing between RAM
 543:.\Generated_Source\PSoC4/BLE_1.c **** *  and Flash before writing to Flash. If there is no change between RAM and Flash
 544:.\Generated_Source\PSoC4/BLE_1.c **** *  data, then no write is performed. It writes only one flash row in one call.
 545:.\Generated_Source\PSoC4/BLE_1.c **** *  Application should keep calling this function till API return CYBLE_ERROR_OK. 
 546:.\Generated_Source\PSoC4/BLE_1.c **** *  This function is available only when Bonding requirement is selected in
 547:.\Generated_Source\PSoC4/BLE_1.c **** *  Security settings.    
 548:.\Generated_Source\PSoC4/BLE_1.c **** * 
 549:.\Generated_Source\PSoC4/BLE_1.c **** *  \param isForceWrite:  If value is set to 0, then stack will check if flash write 
 550:.\Generated_Source\PSoC4/BLE_1.c **** *                 is permissible. 
 551:.\Generated_Source\PSoC4/BLE_1.c **** *  
 552:.\Generated_Source\PSoC4/BLE_1.c **** * \return
 553:.\Generated_Source\PSoC4/BLE_1.c **** *  Return value is of type CYBLE_API_RESULT_T.
 554:.\Generated_Source\PSoC4/BLE_1.c **** *
 555:.\Generated_Source\PSoC4/BLE_1.c **** *   Errors codes                         | Description
 556:.\Generated_Source\PSoC4/BLE_1.c **** *   ----------------------------------   | ------------------------------------
 557:.\Generated_Source\PSoC4/BLE_1.c **** *   CYBLE_ERROR_OK                       | On successful operation
 558:.\Generated_Source\PSoC4/BLE_1.c **** *   CYBLE_ERROR_FLASH_WRITE_NOT_PERMITED | Flash Write is not complete
 559:.\Generated_Source\PSoC4/BLE_1.c **** *    
 560:.\Generated_Source\PSoC4/BLE_1.c **** *  \sideeffect
 561:.\Generated_Source\PSoC4/BLE_1.c **** *   For BLE devices with 128K of Flash memory this API will automatically 
 562:.\Generated_Source\PSoC4/BLE_1.c **** *   modify the clock settings for the device.
 563:.\Generated_Source\PSoC4/BLE_1.c **** *   Writing to flash requires changes to be done to the IMO (set to 48 MHz)
 564:.\Generated_Source\PSoC4/BLE_1.c **** *   and HFCLK (source set to IMO) settings. The configuration is restored before
 565:.\Generated_Source\PSoC4/BLE_1.c **** *   returning. This will impact the operation of most of the hardware in the
 566:.\Generated_Source\PSoC4/BLE_1.c **** *   device.
 567:.\Generated_Source\PSoC4/BLE_1.c **** * 
 568:.\Generated_Source\PSoC4/BLE_1.c **** *  \globalvars
 569:.\Generated_Source\PSoC4/BLE_1.c **** *   The cyBle_pendingFlashWrite variable is used to detect status
 570:.\Generated_Source\PSoC4/BLE_1.c **** *   of pending write to flash operation for stack data and CCCD.
 571:.\Generated_Source\PSoC4/BLE_1.c **** *   This API automatically clears pending bits after write operation complete.
 572:.\Generated_Source\PSoC4/BLE_1.c **** *     
 573:.\Generated_Source\PSoC4/BLE_1.c **** ******************************************************************************/
 574:.\Generated_Source\PSoC4/BLE_1.c **** CYBLE_API_RESULT_T CyBle_StoreBondingData(uint8 isForceWrite)
 575:.\Generated_Source\PSoC4/BLE_1.c **** {
 492              		.loc 1 575 0
 493              		.cfi_startproc
 494 0000 90B5     		push	{r4, r7, lr}
 495              		.cfi_def_cfa_offset 12
 496              		.cfi_offset 4, -12
 497              		.cfi_offset 7, -8
 498              		.cfi_offset 14, -4
 499 0002 97B0     		sub	sp, sp, #92
 500              		.cfi_def_cfa_offset 104
 501 0004 00AF     		add	r7, sp, #0
 502              		.cfi_def_cfa_register 7
 503 0006 021C     		mov	r2, r0
 504 0008 FB1D     		add	r3, r7, #7
ARM GAS  C:\Users\Matthew\AppData\Local\Temp\cc2Cvq26.s 			page 20


 505 000a 1A70     		strb	r2, [r3]
 576:.\Generated_Source\PSoC4/BLE_1.c ****     CYBLE_API_RESULT_T apiResult = CYBLE_ERROR_OK;
 506              		.loc 1 576 0
 507 000c 5623     		mov	r3, #86
 508 000e FB18     		add	r3, r7, r3
 509 0010 0022     		mov	r2, #0
 510 0012 1A80     		strh	r2, [r3]
 577:.\Generated_Source\PSoC4/BLE_1.c ****     
 578:.\Generated_Source\PSoC4/BLE_1.c ****     /* Store Stack data */
 579:.\Generated_Source\PSoC4/BLE_1.c ****     if((cyBle_pendingFlashWrite & CYBLE_PENDING_STACK_FLASH_WRITE_BIT) != 0u)
 511              		.loc 1 579 0
 512 0014 644B     		ldr	r3, .L27
 513 0016 1B78     		ldrb	r3, [r3]
 514 0018 1A1C     		mov	r2, r3
 515 001a 0123     		mov	r3, #1
 516 001c 1340     		and	r3, r2
 517 001e 1ED0     		beq	.L18
 580:.\Generated_Source\PSoC4/BLE_1.c ****     {
 581:.\Generated_Source\PSoC4/BLE_1.c ****         apiResult = CyBle_StoreStackData(isForceWrite);
 518              		.loc 1 581 0
 519 0020 5623     		mov	r3, #86
 520 0022 FC18     		add	r4, r7, r3
 521 0024 FB1D     		add	r3, r7, #7
 522 0026 1B78     		ldrb	r3, [r3]
 523 0028 181C     		mov	r0, r3
 524 002a FFF7FEFF 		bl	CyBle_StoreStackData
 525 002e 031C     		mov	r3, r0
 526 0030 2380     		strh	r3, [r4]
 582:.\Generated_Source\PSoC4/BLE_1.c ****         if(apiResult == CYBLE_ERROR_OK)
 527              		.loc 1 582 0
 528 0032 5623     		mov	r3, #86
 529 0034 FB18     		add	r3, r7, r3
 530 0036 1B88     		ldrh	r3, [r3]
 531 0038 002B     		cmp	r3, #0
 532 003a 10D1     		bne	.L18
 583:.\Generated_Source\PSoC4/BLE_1.c ****         {
 584:.\Generated_Source\PSoC4/BLE_1.c ****             cyBle_pendingFlashWrite &= (uint8)~CYBLE_PENDING_STACK_FLASH_WRITE_BIT;
 533              		.loc 1 584 0
 534 003c 5A4B     		ldr	r3, .L27
 535 003e 1B78     		ldrb	r3, [r3]
 536 0040 0122     		mov	r2, #1
 537 0042 9343     		bic	r3, r2
 538 0044 DAB2     		uxtb	r2, r3
 539 0046 584B     		ldr	r3, .L27
 540 0048 1A70     		strb	r2, [r3]
 585:.\Generated_Source\PSoC4/BLE_1.c ****             /* Change apiResult if there are more pending data to store */
 586:.\Generated_Source\PSoC4/BLE_1.c ****             if((cyBle_pendingFlashWrite & CYBLE_PENDING_CCCD_FLASH_WRITE_BIT) != 0u)
 541              		.loc 1 586 0
 542 004a 574B     		ldr	r3, .L27
 543 004c 1B78     		ldrb	r3, [r3]
 544 004e 1A1C     		mov	r2, r3
 545 0050 0223     		mov	r3, #2
 546 0052 1340     		and	r3, r2
 547 0054 03D0     		beq	.L18
 587:.\Generated_Source\PSoC4/BLE_1.c ****             {
 588:.\Generated_Source\PSoC4/BLE_1.c ****                 apiResult = CYBLE_ERROR_FLASH_WRITE_NOT_PERMITED;
 548              		.loc 1 588 0
ARM GAS  C:\Users\Matthew\AppData\Local\Temp\cc2Cvq26.s 			page 21


 549 0056 5623     		mov	r3, #86
 550 0058 FB18     		add	r3, r7, r3
 551 005a 2822     		mov	r2, #40
 552 005c 1A80     		strh	r2, [r3]
 553              	.L18:
 589:.\Generated_Source\PSoC4/BLE_1.c ****             }
 590:.\Generated_Source\PSoC4/BLE_1.c ****         }
 591:.\Generated_Source\PSoC4/BLE_1.c ****     }
 592:.\Generated_Source\PSoC4/BLE_1.c **** #if(CYBLE_GATT_DB_CCCD_COUNT != 0u)
 593:.\Generated_Source\PSoC4/BLE_1.c ****     /* Store CCCD values */
 594:.\Generated_Source\PSoC4/BLE_1.c ****     if( ((apiResult == CYBLE_ERROR_OK) || (isForceWrite != 0u)) && 
 554              		.loc 1 594 0
 555 005e 5623     		mov	r3, #86
 556 0060 FB18     		add	r3, r7, r3
 557 0062 1B88     		ldrh	r3, [r3]
 558 0064 002B     		cmp	r3, #0
 559 0066 03D0     		beq	.L19
 560              		.loc 1 594 0 is_stmt 0 discriminator 2
 561 0068 FB1D     		add	r3, r7, #7
 562 006a 1B78     		ldrb	r3, [r3]
 563 006c 002B     		cmp	r3, #0
 564 006e 2ED0     		beq	.L20
 565              	.L19:
 595:.\Generated_Source\PSoC4/BLE_1.c ****         ((cyBle_pendingFlashWrite & CYBLE_PENDING_CCCD_FLASH_WRITE_BIT) != 0u) &&
 566              		.loc 1 595 0 is_stmt 1 discriminator 3
 567 0070 4D4B     		ldr	r3, .L27
 568 0072 1B78     		ldrb	r3, [r3]
 569 0074 1A1C     		mov	r2, r3
 570 0076 0223     		mov	r3, #2
 571 0078 1340     		and	r3, r2
 594:.\Generated_Source\PSoC4/BLE_1.c ****         ((cyBle_pendingFlashWrite & CYBLE_PENDING_CCCD_FLASH_WRITE_BIT) != 0u) &&
 572              		.loc 1 594 0 discriminator 3
 573 007a 28D0     		beq	.L20
 596:.\Generated_Source\PSoC4/BLE_1.c ****         (cyBle_connHandle.bdHandle <= CYBLE_GAP_MAX_BONDED_DEVICE))
 574              		.loc 1 596 0
 575 007c 4B4B     		ldr	r3, .L27+4
 576 007e 1B78     		ldrb	r3, [r3]
 595:.\Generated_Source\PSoC4/BLE_1.c ****         ((cyBle_pendingFlashWrite & CYBLE_PENDING_CCCD_FLASH_WRITE_BIT) != 0u) &&
 577              		.loc 1 595 0
 578 0080 042B     		cmp	r3, #4
 579 0082 24D8     		bhi	.L20
 597:.\Generated_Source\PSoC4/BLE_1.c ****     {
 598:.\Generated_Source\PSoC4/BLE_1.c ****         apiResult = CyBle_StoreAppData(cyBle_attValuesCCCD, cyBle_flashStorage.attValuesCCCDFlashMe
 599:.\Generated_Source\PSoC4/BLE_1.c ****                         cyBle_connHandle.bdHandle], CYBLE_GATT_DB_CCCD_COUNT, isForceWrite);
 580              		.loc 1 599 0
 581 0084 494B     		ldr	r3, .L27+4
 582 0086 1B78     		ldrb	r3, [r3]
 598:.\Generated_Source\PSoC4/BLE_1.c ****                         cyBle_connHandle.bdHandle], CYBLE_GATT_DB_CCCD_COUNT, isForceWrite);
 583              		.loc 1 598 0
 584 0088 1A1C     		mov	r2, r3
 585 008a 131C     		mov	r3, r2
 586 008c 5B00     		lsl	r3, r3, #1
 587 008e 9B18     		add	r3, r3, r2
 588 0090 9B00     		lsl	r3, r3, #2
 589 0092 9E22     		mov	r2, #158
 590 0094 9200     		lsl	r2, r2, #2
 591 0096 9A18     		add	r2, r3, r2
ARM GAS  C:\Users\Matthew\AppData\Local\Temp\cc2Cvq26.s 			page 22


 592 0098 454B     		ldr	r3, .L27+8
 593 009a D318     		add	r3, r2, r3
 594 009c 5A1C     		add	r2, r3, #1
 595 009e 5623     		mov	r3, #86
 596 00a0 FC18     		add	r4, r7, r3
 597 00a2 4449     		ldr	r1, .L27+12
 598 00a4 FB1D     		add	r3, r7, #7
 599 00a6 1B78     		ldrb	r3, [r3]
 600 00a8 081C     		mov	r0, r1
 601 00aa 111C     		mov	r1, r2
 602 00ac 0C22     		mov	r2, #12
 603 00ae FFF7FEFF 		bl	CyBle_StoreAppData
 604 00b2 031C     		mov	r3, r0
 605 00b4 2380     		strh	r3, [r4]
 600:.\Generated_Source\PSoC4/BLE_1.c ****         if(apiResult == CYBLE_ERROR_OK)
 606              		.loc 1 600 0
 607 00b6 5623     		mov	r3, #86
 608 00b8 FB18     		add	r3, r7, r3
 609 00ba 1B88     		ldrh	r3, [r3]
 610 00bc 002B     		cmp	r3, #0
 611 00be 06D1     		bne	.L20
 601:.\Generated_Source\PSoC4/BLE_1.c ****         {
 602:.\Generated_Source\PSoC4/BLE_1.c ****             cyBle_pendingFlashWrite &= (uint8)~CYBLE_PENDING_CCCD_FLASH_WRITE_BIT;
 612              		.loc 1 602 0
 613 00c0 394B     		ldr	r3, .L27
 614 00c2 1B78     		ldrb	r3, [r3]
 615 00c4 0222     		mov	r2, #2
 616 00c6 9343     		bic	r3, r2
 617 00c8 DAB2     		uxtb	r2, r3
 618 00ca 374B     		ldr	r3, .L27
 619 00cc 1A70     		strb	r2, [r3]
 620              	.L20:
 603:.\Generated_Source\PSoC4/BLE_1.c ****         }
 604:.\Generated_Source\PSoC4/BLE_1.c ****     }
 605:.\Generated_Source\PSoC4/BLE_1.c ****     /* Clear requested CCCD values */
 606:.\Generated_Source\PSoC4/BLE_1.c ****     if( ((apiResult == CYBLE_ERROR_OK) || (isForceWrite != 0u)) && 
 621              		.loc 1 606 0
 622 00ce 5623     		mov	r3, #86
 623 00d0 FB18     		add	r3, r7, r3
 624 00d2 1B88     		ldrh	r3, [r3]
 625 00d4 002B     		cmp	r3, #0
 626 00d6 03D0     		beq	.L21
 627              		.loc 1 606 0 is_stmt 0 discriminator 2
 628 00d8 FB1D     		add	r3, r7, #7
 629 00da 1B78     		ldrb	r3, [r3]
 630 00dc 002B     		cmp	r3, #0
 631 00de 5CD0     		beq	.L22
 632              	.L21:
 607:.\Generated_Source\PSoC4/BLE_1.c ****         ((cyBle_pendingFlashWrite & CYBLE_PENDING_CCCD_FLASH_CLEAR_MASK) != 0u) )
 633              		.loc 1 607 0 is_stmt 1 discriminator 3
 634 00e0 314B     		ldr	r3, .L27
 635 00e2 1B78     		ldrb	r3, [r3]
 636 00e4 1A1C     		mov	r2, r3
 637 00e6 0C23     		mov	r3, #12
 638 00e8 1340     		and	r3, r2
 606:.\Generated_Source\PSoC4/BLE_1.c ****         ((cyBle_pendingFlashWrite & CYBLE_PENDING_CCCD_FLASH_CLEAR_MASK) != 0u) )
 639              		.loc 1 606 0 discriminator 3
ARM GAS  C:\Users\Matthew\AppData\Local\Temp\cc2Cvq26.s 			page 23


 640 00ea 56D0     		beq	.L22
 608:.\Generated_Source\PSoC4/BLE_1.c ****     {
 609:.\Generated_Source\PSoC4/BLE_1.c ****         if((cyBle_pendingFlashWrite & CYBLE_PENDING_CCCD_FLASH_CLEAR_ALL_BIT) != 0u)
 641              		.loc 1 609 0
 642 00ec 2E4B     		ldr	r3, .L27
 643 00ee 1B78     		ldrb	r3, [r3]
 644 00f0 1A1C     		mov	r2, r3
 645 00f2 0823     		mov	r3, #8
 646 00f4 1340     		and	r3, r2
 647 00f6 22D0     		beq	.L23
 648              	.LBB3:
 610:.\Generated_Source\PSoC4/BLE_1.c ****         {
 611:.\Generated_Source\PSoC4/BLE_1.c ****             /* Remove cccd values for all bonded devices */
 612:.\Generated_Source\PSoC4/BLE_1.c ****             uint8 defaultValuesCCCD[CYBLE_GAP_MAX_BONDED_DEVICE + 1u][CYBLE_GATT_DB_CCCD_COUNT];
 613:.\Generated_Source\PSoC4/BLE_1.c ****             
 614:.\Generated_Source\PSoC4/BLE_1.c ****             (void)memset(defaultValuesCCCD, 0, sizeof(defaultValuesCCCD));
 649              		.loc 1 614 0
 650 00f8 0C23     		mov	r3, #12
 651 00fa FB18     		add	r3, r7, r3
 652 00fc 181C     		mov	r0, r3
 653 00fe 0021     		mov	r1, #0
 654 0100 3C22     		mov	r2, #60
 655 0102 FFF7FEFF 		bl	memset
 615:.\Generated_Source\PSoC4/BLE_1.c **** 
 616:.\Generated_Source\PSoC4/BLE_1.c ****             apiResult = CyBle_StoreAppData((uint8 *)defaultValuesCCCD, 
 656              		.loc 1 616 0
 657 0106 5623     		mov	r3, #86
 658 0108 FC18     		add	r4, r7, r3
 659 010a 0C23     		mov	r3, #12
 660 010c F918     		add	r1, r7, r3
 661 010e 2A4A     		ldr	r2, .L27+16
 662 0110 FB1D     		add	r3, r7, #7
 663 0112 1B78     		ldrb	r3, [r3]
 664 0114 081C     		mov	r0, r1
 665 0116 111C     		mov	r1, r2
 666 0118 3C22     		mov	r2, #60
 667 011a FFF7FEFF 		bl	CyBle_StoreAppData
 668 011e 031C     		mov	r3, r0
 669 0120 2380     		strh	r3, [r4]
 617:.\Generated_Source\PSoC4/BLE_1.c ****                 (const uint8 *)cyBle_flashStorage.attValuesCCCDFlashMemory, sizeof(defaultValuesCCC
 618:.\Generated_Source\PSoC4/BLE_1.c ****             if(apiResult == CYBLE_ERROR_OK)
 670              		.loc 1 618 0
 671 0122 5623     		mov	r3, #86
 672 0124 FB18     		add	r3, r7, r3
 673 0126 1B88     		ldrh	r3, [r3]
 674 0128 002B     		cmp	r3, #0
 675 012a 07D1     		bne	.L24
 619:.\Generated_Source\PSoC4/BLE_1.c ****             {
 620:.\Generated_Source\PSoC4/BLE_1.c ****                 cyBle_pendingFlashWrite &= (uint8)~CYBLE_PENDING_CCCD_FLASH_CLEAR_ALL_BIT;
 676              		.loc 1 620 0
 677 012c 1E4B     		ldr	r3, .L27
 678 012e 1B78     		ldrb	r3, [r3]
 679 0130 0822     		mov	r2, #8
 680 0132 9343     		bic	r3, r2
 681 0134 DAB2     		uxtb	r2, r3
 682 0136 1C4B     		ldr	r3, .L27
 683 0138 1A70     		strb	r2, [r3]
ARM GAS  C:\Users\Matthew\AppData\Local\Temp\cc2Cvq26.s 			page 24


 684              	.LBE3:
 685 013a 2EE0     		b	.L22
 686              	.L24:
 687 013c 2DE0     		b	.L22
 688              	.L23:
 689              	.LBB4:
 621:.\Generated_Source\PSoC4/BLE_1.c ****             }
 622:.\Generated_Source\PSoC4/BLE_1.c ****         }
 623:.\Generated_Source\PSoC4/BLE_1.c ****         else /* Remove cccd values for particular device */
 624:.\Generated_Source\PSoC4/BLE_1.c ****         {
 625:.\Generated_Source\PSoC4/BLE_1.c ****             uint8 defaultValuesCCCD[CYBLE_GATT_DB_CCCD_COUNT] = {0u};
 690              		.loc 1 625 0
 691 013e 4823     		mov	r3, #72
 692 0140 FB18     		add	r3, r7, r3
 693 0142 0022     		mov	r2, #0
 694 0144 1A60     		str	r2, [r3]
 695 0146 0022     		mov	r2, #0
 696 0148 5A60     		str	r2, [r3, #4]
 697 014a 0022     		mov	r2, #0
 698 014c 9A60     		str	r2, [r3, #8]
 626:.\Generated_Source\PSoC4/BLE_1.c ****             
 627:.\Generated_Source\PSoC4/BLE_1.c ****             apiResult = CyBle_StoreAppData(defaultValuesCCCD, cyBle_flashStorage.attValuesCCCDFlash
 699              		.loc 1 627 0
 700 014e 1B4B     		ldr	r3, .L27+20
 701 0150 1B78     		ldrb	r3, [r3]
 702 0152 1A1C     		mov	r2, r3
 703 0154 131C     		mov	r3, r2
 704 0156 5B00     		lsl	r3, r3, #1
 705 0158 9B18     		add	r3, r3, r2
 706 015a 9B00     		lsl	r3, r3, #2
 707 015c 9E22     		mov	r2, #158
 708 015e 9200     		lsl	r2, r2, #2
 709 0160 9A18     		add	r2, r3, r2
 710 0162 134B     		ldr	r3, .L27+8
 711 0164 D318     		add	r3, r2, r3
 712 0166 5A1C     		add	r2, r3, #1
 713 0168 5623     		mov	r3, #86
 714 016a FC18     		add	r4, r7, r3
 715 016c 4823     		mov	r3, #72
 716 016e F918     		add	r1, r7, r3
 717 0170 FB1D     		add	r3, r7, #7
 718 0172 1B78     		ldrb	r3, [r3]
 719 0174 081C     		mov	r0, r1
 720 0176 111C     		mov	r1, r2
 721 0178 0C22     		mov	r2, #12
 722 017a FFF7FEFF 		bl	CyBle_StoreAppData
 723 017e 031C     		mov	r3, r0
 724 0180 2380     		strh	r3, [r4]
 628:.\Generated_Source\PSoC4/BLE_1.c ****                                     cyBle_pendingFlashClearCccdHandle], CYBLE_GATT_DB_CCCD_COUNT, i
 629:.\Generated_Source\PSoC4/BLE_1.c ****             if(apiResult == CYBLE_ERROR_OK)
 725              		.loc 1 629 0
 726 0182 5623     		mov	r3, #86
 727 0184 FB18     		add	r3, r7, r3
 728 0186 1B88     		ldrh	r3, [r3]
 729 0188 002B     		cmp	r3, #0
 730 018a 06D1     		bne	.L22
 630:.\Generated_Source\PSoC4/BLE_1.c ****             {
ARM GAS  C:\Users\Matthew\AppData\Local\Temp\cc2Cvq26.s 			page 25


 631:.\Generated_Source\PSoC4/BLE_1.c ****                 cyBle_pendingFlashWrite &= (uint8)~CYBLE_PENDING_CCCD_FLASH_CLEAR_BIT;
 731              		.loc 1 631 0
 732 018c 064B     		ldr	r3, .L27
 733 018e 1B78     		ldrb	r3, [r3]
 734 0190 0422     		mov	r2, #4
 735 0192 9343     		bic	r3, r2
 736 0194 DAB2     		uxtb	r2, r3
 737 0196 044B     		ldr	r3, .L27
 738 0198 1A70     		strb	r2, [r3]
 739              	.L22:
 740              	.LBE4:
 632:.\Generated_Source\PSoC4/BLE_1.c ****             }
 633:.\Generated_Source\PSoC4/BLE_1.c ****         }
 634:.\Generated_Source\PSoC4/BLE_1.c ****     }
 635:.\Generated_Source\PSoC4/BLE_1.c **** #endif /* CYBLE_GATT_DB_CCCD_COUNT != 0u */
 636:.\Generated_Source\PSoC4/BLE_1.c ****     return(apiResult);
 741              		.loc 1 636 0
 742 019a 5623     		mov	r3, #86
 743 019c FB18     		add	r3, r7, r3
 744 019e 1B88     		ldrh	r3, [r3]
 637:.\Generated_Source\PSoC4/BLE_1.c **** }
 745              		.loc 1 637 0
 746 01a0 181C     		mov	r0, r3
 747 01a2 BD46     		mov	sp, r7
 748 01a4 17B0     		add	sp, sp, #92
 749              		@ sp needed
 750 01a6 90BD     		pop	{r4, r7, pc}
 751              	.L28:
 752              		.align	2
 753              	.L27:
 754 01a8 00000000 		.word	cyBle_pendingFlashWrite
 755 01ac 00000000 		.word	cyBle_connHandle
 756 01b0 00000000 		.word	cyBle_flashStorage
 757 01b4 00000000 		.word	cyBle_attValuesCCCD
 758 01b8 79020000 		.word	cyBle_flashStorage+633
 759 01bc 01000000 		.word	cyBle_pendingFlashClearCccdHandle
 760              		.cfi_endproc
 761              	.LFE6:
 762              		.size	CyBle_StoreBondingData, .-CyBle_StoreBondingData
 763              		.section	.text.CyBle_GapRemoveBondedDevice,"ax",%progbits
 764              		.align	2
 765              		.global	CyBle_GapRemoveBondedDevice
 766              		.code	16
 767              		.thumb_func
 768              		.type	CyBle_GapRemoveBondedDevice, %function
 769              	CyBle_GapRemoveBondedDevice:
 770              	.LFB7:
 638:.\Generated_Source\PSoC4/BLE_1.c **** 
 639:.\Generated_Source\PSoC4/BLE_1.c **** 
 640:.\Generated_Source\PSoC4/BLE_1.c **** /******************************************************************************
 641:.\Generated_Source\PSoC4/BLE_1.c **** * Function Name: CyBle_GapRemoveBondedDevice
 642:.\Generated_Source\PSoC4/BLE_1.c **** ***************************************************************************//**
 643:.\Generated_Source\PSoC4/BLE_1.c **** * 
 644:.\Generated_Source\PSoC4/BLE_1.c **** *  This function marks the device untrusted. It removes the bonding information
 645:.\Generated_Source\PSoC4/BLE_1.c **** *  of the device including CCCD values. This function removes device from the
 646:.\Generated_Source\PSoC4/BLE_1.c **** *  white list also when autopopulate white list with bonded devices option is
 647:.\Generated_Source\PSoC4/BLE_1.c **** *  enabled.
ARM GAS  C:\Users\Matthew\AppData\Local\Temp\cc2Cvq26.s 			page 26


 648:.\Generated_Source\PSoC4/BLE_1.c **** * 
 649:.\Generated_Source\PSoC4/BLE_1.c **** *  This function is available only when Bonding requirement is selected in
 650:.\Generated_Source\PSoC4/BLE_1.c **** *  Security settings.    
 651:.\Generated_Source\PSoC4/BLE_1.c **** *
 652:.\Generated_Source\PSoC4/BLE_1.c **** *  \param bdAddr: Pointer to peer device address, of type CYBLE_GAP_BD_ADDR_T.
 653:.\Generated_Source\PSoC4/BLE_1.c **** *                 If device address is set to 0, then all devices shall be
 654:.\Generated_Source\PSoC4/BLE_1.c **** *                 removed from trusted list and white list.
 655:.\Generated_Source\PSoC4/BLE_1.c **** *
 656:.\Generated_Source\PSoC4/BLE_1.c **** * \return
 657:.\Generated_Source\PSoC4/BLE_1.c **** *  CYBLE_API_RESULT_T : Return value indicates if the function succeeded or
 658:.\Generated_Source\PSoC4/BLE_1.c **** *  failed. Following are the possible error codes.
 659:.\Generated_Source\PSoC4/BLE_1.c **** *
 660:.\Generated_Source\PSoC4/BLE_1.c **** *   Errors codes                     | Description
 661:.\Generated_Source\PSoC4/BLE_1.c **** *   ---------------------------------| ------------------------------------
 662:.\Generated_Source\PSoC4/BLE_1.c **** *   CYBLE_ERROR_OK                   | On successful operation.
 663:.\Generated_Source\PSoC4/BLE_1.c **** *   CYBLE_ERROR_INVALID_PARAMETER    | On specifying NULL as input parameter for 'bdAddr'.
 664:.\Generated_Source\PSoC4/BLE_1.c **** *   CYBLE_ERROR_INVALID_OPERATION    | Whitelist is already in use or there is pending write to fla
 665:.\Generated_Source\PSoC4/BLE_1.c **** *   CYBLE_ERROR_NO_DEVICE_ENTITY     | Device does not exist in the bond list.
 666:.\Generated_Source\PSoC4/BLE_1.c **** *
 667:.\Generated_Source\PSoC4/BLE_1.c **** *  \globalvars
 668:.\Generated_Source\PSoC4/BLE_1.c **** *   The bdHandle is set in cyBle_pendingFlashWrite variable to indicate that
 669:.\Generated_Source\PSoC4/BLE_1.c **** *   data should be stored to flash by CyBle_StoreBondingData afterwards. 
 670:.\Generated_Source\PSoC4/BLE_1.c **** *     
 671:.\Generated_Source\PSoC4/BLE_1.c **** ******************************************************************************/
 672:.\Generated_Source\PSoC4/BLE_1.c **** CYBLE_API_RESULT_T CyBle_GapRemoveBondedDevice(CYBLE_GAP_BD_ADDR_T* bdAddr)
 673:.\Generated_Source\PSoC4/BLE_1.c **** {
 771              		.loc 1 673 0
 772              		.cfi_startproc
 773 0000 90B5     		push	{r4, r7, lr}
 774              		.cfi_def_cfa_offset 12
 775              		.cfi_offset 4, -12
 776              		.cfi_offset 7, -8
 777              		.cfi_offset 14, -4
 778 0002 87B0     		sub	sp, sp, #28
 779              		.cfi_def_cfa_offset 40
 780 0004 00AF     		add	r7, sp, #0
 781              		.cfi_def_cfa_register 7
 782 0006 7860     		str	r0, [r7, #4]
 674:.\Generated_Source\PSoC4/BLE_1.c ****     CYBLE_API_RESULT_T apiResult = CYBLE_ERROR_OK;
 783              		.loc 1 674 0
 784 0008 1623     		mov	r3, #22
 785 000a FB18     		add	r3, r7, r3
 786 000c 0022     		mov	r2, #0
 787 000e 1A80     		strh	r2, [r3]
 675:.\Generated_Source\PSoC4/BLE_1.c ****     
 676:.\Generated_Source\PSoC4/BLE_1.c ****     if(cyBle_pendingFlashWrite == 0u)
 788              		.loc 1 676 0
 789 0010 334B     		ldr	r3, .L36
 790 0012 1B78     		ldrb	r3, [r3]
 791 0014 002B     		cmp	r3, #0
 792 0016 58D1     		bne	.L30
 793              	.LBB5:
 677:.\Generated_Source\PSoC4/BLE_1.c ****     {
 678:.\Generated_Source\PSoC4/BLE_1.c ****         
 679:.\Generated_Source\PSoC4/BLE_1.c ****     #if(CYBLE_GATT_DB_CCCD_COUNT != 0u)
 680:.\Generated_Source\PSoC4/BLE_1.c ****         /* Request to clear CCCD values which will be done by CyBle_StoreBondingData API */
 681:.\Generated_Source\PSoC4/BLE_1.c ****         uint8 bDevHandle;
ARM GAS  C:\Users\Matthew\AppData\Local\Temp\cc2Cvq26.s 			page 27


 682:.\Generated_Source\PSoC4/BLE_1.c ****         CYBLE_GAP_BD_ADDR_T invalidBdAddr = {{0u,0u,0u,0u,0u,0u}, 0u};
 794              		.loc 1 682 0
 795 0018 0C23     		mov	r3, #12
 796 001a FB18     		add	r3, r7, r3
 797 001c 0022     		mov	r2, #0
 798 001e 1A70     		strb	r2, [r3]
 799 0020 0C23     		mov	r3, #12
 800 0022 FB18     		add	r3, r7, r3
 801 0024 0022     		mov	r2, #0
 802 0026 5A70     		strb	r2, [r3, #1]
 803 0028 0C23     		mov	r3, #12
 804 002a FB18     		add	r3, r7, r3
 805 002c 0022     		mov	r2, #0
 806 002e 9A70     		strb	r2, [r3, #2]
 807 0030 0C23     		mov	r3, #12
 808 0032 FB18     		add	r3, r7, r3
 809 0034 0022     		mov	r2, #0
 810 0036 DA70     		strb	r2, [r3, #3]
 811 0038 0C23     		mov	r3, #12
 812 003a FB18     		add	r3, r7, r3
 813 003c 0022     		mov	r2, #0
 814 003e 1A71     		strb	r2, [r3, #4]
 815 0040 0C23     		mov	r3, #12
 816 0042 FB18     		add	r3, r7, r3
 817 0044 0022     		mov	r2, #0
 818 0046 5A71     		strb	r2, [r3, #5]
 819 0048 0C23     		mov	r3, #12
 820 004a FB18     		add	r3, r7, r3
 821 004c 0022     		mov	r2, #0
 822 004e 9A71     		strb	r2, [r3, #6]
 683:.\Generated_Source\PSoC4/BLE_1.c **** 
 684:.\Generated_Source\PSoC4/BLE_1.c ****         if(memcmp(((uint8 *) &(bdAddr->bdAddr)), ((uint8 *) &(invalidBdAddr.bdAddr)), CYBLE_GAP_BD_
 823              		.loc 1 684 0
 824 0050 7A68     		ldr	r2, [r7, #4]
 825 0052 0C23     		mov	r3, #12
 826 0054 FB18     		add	r3, r7, r3
 827 0056 101C     		mov	r0, r2
 828 0058 191C     		mov	r1, r3
 829 005a 0622     		mov	r2, #6
 830 005c FFF7FEFF 		bl	memcmp
 831 0060 031E     		sub	r3, r0, #0
 832 0062 07D1     		bne	.L31
 685:.\Generated_Source\PSoC4/BLE_1.c **** 	    {
 686:.\Generated_Source\PSoC4/BLE_1.c ****             /* Request to remove all bonded devices by cyBle_StoreBondingData API */
 687:.\Generated_Source\PSoC4/BLE_1.c ****             cyBle_pendingFlashWrite |= CYBLE_PENDING_CCCD_FLASH_CLEAR_ALL_BIT;
 833              		.loc 1 687 0
 834 0064 1E4B     		ldr	r3, .L36
 835 0066 1B78     		ldrb	r3, [r3]
 836 0068 0822     		mov	r2, #8
 837 006a 1343     		orr	r3, r2
 838 006c DAB2     		uxtb	r2, r3
 839 006e 1C4B     		ldr	r3, .L36
 840 0070 1A70     		strb	r2, [r3]
 841 0072 1BE0     		b	.L32
 842              	.L31:
 688:.\Generated_Source\PSoC4/BLE_1.c ****         }
 689:.\Generated_Source\PSoC4/BLE_1.c ****         else
ARM GAS  C:\Users\Matthew\AppData\Local\Temp\cc2Cvq26.s 			page 28


 690:.\Generated_Source\PSoC4/BLE_1.c ****         {
 691:.\Generated_Source\PSoC4/BLE_1.c ****             /* Get the BD handle from Address */
 692:.\Generated_Source\PSoC4/BLE_1.c ****             apiResult = CyBle_GapGetPeerBdHandle(&bDevHandle, bdAddr);
 843              		.loc 1 692 0
 844 0074 1623     		mov	r3, #22
 845 0076 FC18     		add	r4, r7, r3
 846 0078 1523     		mov	r3, #21
 847 007a FA18     		add	r2, r7, r3
 848 007c 7B68     		ldr	r3, [r7, #4]
 849 007e 101C     		mov	r0, r2
 850 0080 191C     		mov	r1, r3
 851 0082 FFF7FEFF 		bl	CyBle_GapGetPeerBdHandle
 852 0086 031C     		mov	r3, r0
 853 0088 2380     		strh	r3, [r4]
 693:.\Generated_Source\PSoC4/BLE_1.c ****             if(apiResult == CYBLE_ERROR_OK)
 854              		.loc 1 693 0
 855 008a 1623     		mov	r3, #22
 856 008c FB18     		add	r3, r7, r3
 857 008e 1B88     		ldrh	r3, [r3]
 858 0090 002B     		cmp	r3, #0
 859 0092 0BD1     		bne	.L32
 694:.\Generated_Source\PSoC4/BLE_1.c ****             {
 695:.\Generated_Source\PSoC4/BLE_1.c ****                 /* Store BD handle to clear cccd values by CyBle_StoreBondingData API */
 696:.\Generated_Source\PSoC4/BLE_1.c ****                 cyBle_pendingFlashWrite |= CYBLE_PENDING_CCCD_FLASH_CLEAR_BIT;
 860              		.loc 1 696 0
 861 0094 124B     		ldr	r3, .L36
 862 0096 1B78     		ldrb	r3, [r3]
 863 0098 0422     		mov	r2, #4
 864 009a 1343     		orr	r3, r2
 865 009c DAB2     		uxtb	r2, r3
 866 009e 104B     		ldr	r3, .L36
 867 00a0 1A70     		strb	r2, [r3]
 697:.\Generated_Source\PSoC4/BLE_1.c ****                 cyBle_pendingFlashClearCccdHandle = bDevHandle;
 868              		.loc 1 697 0
 869 00a2 1523     		mov	r3, #21
 870 00a4 FB18     		add	r3, r7, r3
 871 00a6 1A78     		ldrb	r2, [r3]
 872 00a8 0E4B     		ldr	r3, .L36+4
 873 00aa 1A70     		strb	r2, [r3]
 874              	.L32:
 698:.\Generated_Source\PSoC4/BLE_1.c ****             }
 699:.\Generated_Source\PSoC4/BLE_1.c ****         }
 700:.\Generated_Source\PSoC4/BLE_1.c ****         if(apiResult == CYBLE_ERROR_OK)
 875              		.loc 1 700 0
 876 00ac 1623     		mov	r3, #22
 877 00ae FB18     		add	r3, r7, r3
 878 00b0 1B88     		ldrh	r3, [r3]
 879 00b2 002B     		cmp	r3, #0
 880 00b4 08D1     		bne	.L33
 701:.\Generated_Source\PSoC4/BLE_1.c ****         {
 702:.\Generated_Source\PSoC4/BLE_1.c ****             #if(CYBLE_AUTO_POPULATE_WHITELIST != 0u)
 703:.\Generated_Source\PSoC4/BLE_1.c ****                 apiResult = CyBle_GapRemoveDeviceFromWhiteList(bdAddr);
 881              		.loc 1 703 0
 882 00b6 1623     		mov	r3, #22
 883 00b8 FC18     		add	r4, r7, r3
 884 00ba 7B68     		ldr	r3, [r7, #4]
 885 00bc 181C     		mov	r0, r3
ARM GAS  C:\Users\Matthew\AppData\Local\Temp\cc2Cvq26.s 			page 29


 886 00be FFF7FEFF 		bl	CyBle_GapRemoveDeviceFromWhiteList
 887 00c2 031C     		mov	r3, r0
 888 00c4 2380     		strh	r3, [r4]
 889              	.LBE5:
 890 00c6 04E0     		b	.L34
 891              	.L33:
 892 00c8 03E0     		b	.L34
 893              	.L30:
 704:.\Generated_Source\PSoC4/BLE_1.c ****             #else
 705:.\Generated_Source\PSoC4/BLE_1.c ****                 apiResult = CyBle_GapRemDeviceFromBondList(bdAddr);
 706:.\Generated_Source\PSoC4/BLE_1.c ****             #endif
 707:.\Generated_Source\PSoC4/BLE_1.c ****         }
 708:.\Generated_Source\PSoC4/BLE_1.c ****     #endif /* CYBLE_GATT_DB_CCCD_COUNT != 0u */
 709:.\Generated_Source\PSoC4/BLE_1.c ****     }
 710:.\Generated_Source\PSoC4/BLE_1.c ****     else
 711:.\Generated_Source\PSoC4/BLE_1.c ****     {
 712:.\Generated_Source\PSoC4/BLE_1.c ****         apiResult = CYBLE_ERROR_INVALID_OPERATION;
 894              		.loc 1 712 0
 895 00ca 1623     		mov	r3, #22
 896 00cc FB18     		add	r3, r7, r3
 897 00ce 0222     		mov	r2, #2
 898 00d0 1A80     		strh	r2, [r3]
 899              	.L34:
 713:.\Generated_Source\PSoC4/BLE_1.c ****     }
 714:.\Generated_Source\PSoC4/BLE_1.c ****     
 715:.\Generated_Source\PSoC4/BLE_1.c ****     return(apiResult);
 900              		.loc 1 715 0
 901 00d2 1623     		mov	r3, #22
 902 00d4 FB18     		add	r3, r7, r3
 903 00d6 1B88     		ldrh	r3, [r3]
 716:.\Generated_Source\PSoC4/BLE_1.c **** }
 904              		.loc 1 716 0
 905 00d8 181C     		mov	r0, r3
 906 00da BD46     		mov	sp, r7
 907 00dc 07B0     		add	sp, sp, #28
 908              		@ sp needed
 909 00de 90BD     		pop	{r4, r7, pc}
 910              	.L37:
 911              		.align	2
 912              	.L36:
 913 00e0 00000000 		.word	cyBle_pendingFlashWrite
 914 00e4 01000000 		.word	cyBle_pendingFlashClearCccdHandle
 915              		.cfi_endproc
 916              	.LFE7:
 917              		.size	CyBle_GapRemoveBondedDevice, .-CyBle_GapRemoveBondedDevice
 918              		.section	.text.CyBle_GappStartAdvertisement,"ax",%progbits
 919              		.align	2
 920              		.global	CyBle_GappStartAdvertisement
 921              		.code	16
 922              		.thumb_func
 923              		.type	CyBle_GappStartAdvertisement, %function
 924              	CyBle_GappStartAdvertisement:
 925              	.LFB8:
 717:.\Generated_Source\PSoC4/BLE_1.c **** 
 718:.\Generated_Source\PSoC4/BLE_1.c **** 
 719:.\Generated_Source\PSoC4/BLE_1.c **** #endif /* (CYBLE_GAP_ROLE_PERIPHERAL || CYBLE_GAP_ROLE_CENTRAL) && (CYBLE_BONDING_REQUIREMENT == CY
 720:.\Generated_Source\PSoC4/BLE_1.c **** 
ARM GAS  C:\Users\Matthew\AppData\Local\Temp\cc2Cvq26.s 			page 30


 721:.\Generated_Source\PSoC4/BLE_1.c **** 
 722:.\Generated_Source\PSoC4/BLE_1.c **** #if(CYBLE_GAP_ROLE_PERIPHERAL || CYBLE_GAP_ROLE_BROADCASTER)
 723:.\Generated_Source\PSoC4/BLE_1.c **** 
 724:.\Generated_Source\PSoC4/BLE_1.c ****     /******************************************************************************
 725:.\Generated_Source\PSoC4/BLE_1.c ****     *  Function Name: CyBle_GappStartAdvertisement
 726:.\Generated_Source\PSoC4/BLE_1.c ****     ***************************************************************************//**
 727:.\Generated_Source\PSoC4/BLE_1.c ****     *     
 728:.\Generated_Source\PSoC4/BLE_1.c ****     *  This function is used to start the advertisement using the advertisement data 
 729:.\Generated_Source\PSoC4/BLE_1.c ****     *  set in the component customizer's GUI. After invoking this API, the device 
 730:.\Generated_Source\PSoC4/BLE_1.c ****     *  will be available for connection by the devices configured for GAP central 
 731:.\Generated_Source\PSoC4/BLE_1.c ****     *  role. It is only included if the device is configured for GAP Peripheral or 
 732:.\Generated_Source\PSoC4/BLE_1.c ****     *  GAP Peripheral + Central role.
 733:.\Generated_Source\PSoC4/BLE_1.c ****     *  
 734:.\Generated_Source\PSoC4/BLE_1.c ****     *  On start of advertisement, GAP Peripheral receives the
 735:.\Generated_Source\PSoC4/BLE_1.c ****     *  CYBLE_EVT_GAPP_ADVERTISEMENT_START_STOP event. The following events are 
 736:.\Generated_Source\PSoC4/BLE_1.c ****     *  possible on invoking this function:
 737:.\Generated_Source\PSoC4/BLE_1.c ****     *  
 738:.\Generated_Source\PSoC4/BLE_1.c ****     *  * CYBLE_EVT_GAP_DEVICE_CONNECTED - If the device connects to a GAP Central and 
 739:.\Generated_Source\PSoC4/BLE_1.c ****     *    Link Layer Privacy is disabled in component customizer.
 740:.\Generated_Source\PSoC4/BLE_1.c ****     *  * CYBLE_EVT_GAP_ENHANCE_CONN_COMPLETE - If the device connects to a GAP Central and 
 741:.\Generated_Source\PSoC4/BLE_1.c ****     *    Link Layer Privacy is enabled in component customizer.
 742:.\Generated_Source\PSoC4/BLE_1.c ****     *  * CYBLE_EVT_TIMEOUT: If no device in GAP Central mode connects to this 
 743:.\Generated_Source\PSoC4/BLE_1.c ****     *                       device within the specified timeout limit. Stack 
 744:.\Generated_Source\PSoC4/BLE_1.c ****     *                       automatically initiate stop advertising when Slow 
 745:.\Generated_Source\PSoC4/BLE_1.c ****     *                       advertising was initiated, or starts Slow advertising
 746:.\Generated_Source\PSoC4/BLE_1.c ****     *                       after Fast advertising timeout occur.
 747:.\Generated_Source\PSoC4/BLE_1.c ****     *  * CYBLE_EVT_GAPP_ADVERTISEMENT_START_STOP: If device started or stopped
 748:.\Generated_Source\PSoC4/BLE_1.c ****     *                                               advertising. Use CyBle_GetState()
 749:.\Generated_Source\PSoC4/BLE_1.c ****     *                                               to determine the state. Sequential 
 750:.\Generated_Source\PSoC4/BLE_1.c ****     *                                               advertising could be started when
 751:.\Generated_Source\PSoC4/BLE_1.c ****     *                                               CYBLE_STATE_DISCONNECTED state is
 752:.\Generated_Source\PSoC4/BLE_1.c ****     *                                               returned.
 753:.\Generated_Source\PSoC4/BLE_1.c ****     * 
 754:.\Generated_Source\PSoC4/BLE_1.c ****     *  \param advertisingIntervalType: Fast or slow advertising interval with timings
 755:.\Generated_Source\PSoC4/BLE_1.c ****     *                                 entered in Advertising settings section of the
 756:.\Generated_Source\PSoC4/BLE_1.c ****     *                                 customizer.
 757:.\Generated_Source\PSoC4/BLE_1.c ****     *  * CYBLE_ADVERTISING_FAST   0x00u
 758:.\Generated_Source\PSoC4/BLE_1.c ****     *  * CYBLE_ADVERTISING_SLOW   0x01u
 759:.\Generated_Source\PSoC4/BLE_1.c ****     *  * CYBLE_ADVERTISING_CUSTOM 0x02u
 760:.\Generated_Source\PSoC4/BLE_1.c ****     * 
 761:.\Generated_Source\PSoC4/BLE_1.c ****     * \return
 762:.\Generated_Source\PSoC4/BLE_1.c ****     *  CYBLE_API_RESULT_T : Return value indicates if the function succeeded or
 763:.\Generated_Source\PSoC4/BLE_1.c ****     *  failed. Following are the possible error codes.
 764:.\Generated_Source\PSoC4/BLE_1.c ****     * 
 765:.\Generated_Source\PSoC4/BLE_1.c ****     *   Errors codes                      |  Description
 766:.\Generated_Source\PSoC4/BLE_1.c ****     *   --------------------------------- |  --------------------------------
 767:.\Generated_Source\PSoC4/BLE_1.c ****     *   CYBLE_ERROR_OK                    |  On successful operation.
 768:.\Generated_Source\PSoC4/BLE_1.c ****     *   CYBLE_ERROR_INVALID_PARAMETER     |  On passing an invalid parameter.
 769:.\Generated_Source\PSoC4/BLE_1.c ****     *   CYBLE_ERROR_INVALID_STATE         |  On calling this API not in Disconnected state.
 770:.\Generated_Source\PSoC4/BLE_1.c ****     *
 771:.\Generated_Source\PSoC4/BLE_1.c ****     * 
 772:.\Generated_Source\PSoC4/BLE_1.c ****     *******************************************************************************/
 773:.\Generated_Source\PSoC4/BLE_1.c ****     CYBLE_API_RESULT_T CyBle_GappStartAdvertisement(uint8 advertisingIntervalType)
 774:.\Generated_Source\PSoC4/BLE_1.c ****     {
 926              		.loc 1 774 0
 927              		.cfi_startproc
 928 0000 90B5     		push	{r4, r7, lr}
ARM GAS  C:\Users\Matthew\AppData\Local\Temp\cc2Cvq26.s 			page 31


 929              		.cfi_def_cfa_offset 12
 930              		.cfi_offset 4, -12
 931              		.cfi_offset 7, -8
 932              		.cfi_offset 14, -4
 933 0002 85B0     		sub	sp, sp, #20
 934              		.cfi_def_cfa_offset 32
 935 0004 00AF     		add	r7, sp, #0
 936              		.cfi_def_cfa_register 7
 937 0006 021C     		mov	r2, r0
 938 0008 FB1D     		add	r3, r7, #7
 939 000a 1A70     		strb	r2, [r3]
 775:.\Generated_Source\PSoC4/BLE_1.c ****         CYBLE_API_RESULT_T apiResult;
 776:.\Generated_Source\PSoC4/BLE_1.c ****         
 777:.\Generated_Source\PSoC4/BLE_1.c ****         if(advertisingIntervalType > CYBLE_ADVERTISING_CUSTOM)
 940              		.loc 1 777 0
 941 000c FB1D     		add	r3, r7, #7
 942 000e 1B78     		ldrb	r3, [r3]
 943 0010 022B     		cmp	r3, #2
 944 0012 04D9     		bls	.L39
 778:.\Generated_Source\PSoC4/BLE_1.c ****         {
 779:.\Generated_Source\PSoC4/BLE_1.c ****             apiResult = CYBLE_ERROR_INVALID_PARAMETER;
 945              		.loc 1 779 0
 946 0014 0E23     		mov	r3, #14
 947 0016 FB18     		add	r3, r7, r3
 948 0018 0122     		mov	r2, #1
 949 001a 1A80     		strh	r2, [r3]
 950 001c 4BE0     		b	.L40
 951              	.L39:
 780:.\Generated_Source\PSoC4/BLE_1.c ****         }
 781:.\Generated_Source\PSoC4/BLE_1.c ****         else if((CYBLE_STATE_DISCONNECTED == CyBle_GetState()) && ((cyBle_eventHandlerFlag & CYBLE_
 952              		.loc 1 781 0
 953 001e 294B     		ldr	r3, .L46
 954 0020 1B78     		ldrb	r3, [r3]
 955 0022 042B     		cmp	r3, #4
 956 0024 42D1     		bne	.L41
 957              		.loc 1 781 0 is_stmt 0 discriminator 1
 958 0026 284B     		ldr	r3, .L46+4
 959 0028 1B78     		ldrb	r3, [r3]
 960 002a DBB2     		uxtb	r3, r3
 961 002c 1A1C     		mov	r2, r3
 962 002e 0423     		mov	r3, #4
 963 0030 1340     		and	r3, r2
 964 0032 3BD1     		bne	.L41
 782:.\Generated_Source\PSoC4/BLE_1.c ****         {   
 783:.\Generated_Source\PSoC4/BLE_1.c ****             if(advertisingIntervalType == CYBLE_ADVERTISING_FAST)
 965              		.loc 1 783 0 is_stmt 1
 966 0034 FB1D     		add	r3, r7, #7
 967 0036 1B78     		ldrb	r3, [r3]
 968 0038 002B     		cmp	r3, #0
 969 003a 0BD1     		bne	.L42
 784:.\Generated_Source\PSoC4/BLE_1.c ****             {
 785:.\Generated_Source\PSoC4/BLE_1.c ****                 cyBle_discoveryModeInfo.advTo = CYBLE_FAST_ADV_TIMEOUT;
 970              		.loc 1 785 0
 971 003c 234B     		ldr	r3, .L46+8
 972 003e 1E22     		mov	r2, #30
 973 0040 1A82     		strh	r2, [r3, #16]
 786:.\Generated_Source\PSoC4/BLE_1.c ****                 cyBle_discoveryModeInfo.advParam->advIntvMin = CYBLE_FAST_ADV_INT_MIN;
ARM GAS  C:\Users\Matthew\AppData\Local\Temp\cc2Cvq26.s 			page 32


 974              		.loc 1 786 0
 975 0042 224B     		ldr	r3, .L46+8
 976 0044 5B68     		ldr	r3, [r3, #4]
 977 0046 2022     		mov	r2, #32
 978 0048 1A80     		strh	r2, [r3]
 787:.\Generated_Source\PSoC4/BLE_1.c ****                 cyBle_discoveryModeInfo.advParam->advIntvMax = CYBLE_FAST_ADV_INT_MAX;
 979              		.loc 1 787 0
 980 004a 204B     		ldr	r3, .L46+8
 981 004c 5B68     		ldr	r3, [r3, #4]
 982 004e 3022     		mov	r2, #48
 983 0050 5A80     		strh	r2, [r3, #2]
 984 0052 10E0     		b	.L43
 985              	.L42:
 788:.\Generated_Source\PSoC4/BLE_1.c ****             }
 789:.\Generated_Source\PSoC4/BLE_1.c ****             else if(advertisingIntervalType == CYBLE_ADVERTISING_SLOW)
 986              		.loc 1 789 0
 987 0054 FB1D     		add	r3, r7, #7
 988 0056 1B78     		ldrb	r3, [r3]
 989 0058 012B     		cmp	r3, #1
 990 005a 0CD1     		bne	.L43
 790:.\Generated_Source\PSoC4/BLE_1.c ****             {
 791:.\Generated_Source\PSoC4/BLE_1.c ****                 cyBle_discoveryModeInfo.advTo = CYBLE_SLOW_ADV_TIMEOUT;
 991              		.loc 1 791 0
 992 005c 1B4B     		ldr	r3, .L46+8
 993 005e 9622     		mov	r2, #150
 994 0060 1A82     		strh	r2, [r3, #16]
 792:.\Generated_Source\PSoC4/BLE_1.c ****                 cyBle_discoveryModeInfo.advParam->advIntvMin = CYBLE_SLOW_ADV_INT_MIN;
 995              		.loc 1 792 0
 996 0062 1A4B     		ldr	r3, .L46+8
 997 0064 5B68     		ldr	r3, [r3, #4]
 998 0066 C822     		mov	r2, #200
 999 0068 D200     		lsl	r2, r2, #3
 1000 006a 1A80     		strh	r2, [r3]
 793:.\Generated_Source\PSoC4/BLE_1.c ****                 cyBle_discoveryModeInfo.advParam->advIntvMax = CYBLE_SLOW_ADV_INT_MAX;
 1001              		.loc 1 793 0
 1002 006c 174B     		ldr	r3, .L46+8
 1003 006e 5B68     		ldr	r3, [r3, #4]
 1004 0070 8022     		mov	r2, #128
 1005 0072 D201     		lsl	r2, r2, #7
 1006 0074 5A80     		strh	r2, [r3, #2]
 1007              	.L43:
 794:.\Generated_Source\PSoC4/BLE_1.c ****             }       
 795:.\Generated_Source\PSoC4/BLE_1.c ****             else /* Do not update advertising intervals */
 796:.\Generated_Source\PSoC4/BLE_1.c ****             {
 797:.\Generated_Source\PSoC4/BLE_1.c ****             }
 798:.\Generated_Source\PSoC4/BLE_1.c ****             cyBle_advertisingIntervalType = advertisingIntervalType;
 1008              		.loc 1 798 0
 1009 0076 164B     		ldr	r3, .L46+12
 1010 0078 FA1D     		add	r2, r7, #7
 1011 007a 1278     		ldrb	r2, [r2]
 1012 007c 1A70     		strb	r2, [r3]
 799:.\Generated_Source\PSoC4/BLE_1.c ****             apiResult = CyBle_GappEnterDiscoveryMode(&cyBle_discoveryModeInfo);
 1013              		.loc 1 799 0
 1014 007e 0E23     		mov	r3, #14
 1015 0080 FC18     		add	r4, r7, r3
 1016 0082 124B     		ldr	r3, .L46+8
 1017 0084 181C     		mov	r0, r3
ARM GAS  C:\Users\Matthew\AppData\Local\Temp\cc2Cvq26.s 			page 33


 1018 0086 FFF7FEFF 		bl	CyBle_GappEnterDiscoveryMode
 1019 008a 031C     		mov	r3, r0
 1020 008c 2380     		strh	r3, [r4]
 800:.\Generated_Source\PSoC4/BLE_1.c ****         
 801:.\Generated_Source\PSoC4/BLE_1.c ****             if(CYBLE_ERROR_OK == apiResult)
 1021              		.loc 1 801 0
 1022 008e 0E23     		mov	r3, #14
 1023 0090 FB18     		add	r3, r7, r3
 1024 0092 1B88     		ldrh	r3, [r3]
 1025 0094 002B     		cmp	r3, #0
 1026 0096 08D1     		bne	.L44
 802:.\Generated_Source\PSoC4/BLE_1.c ****             {
 803:.\Generated_Source\PSoC4/BLE_1.c ****                 cyBle_eventHandlerFlag |= CYBLE_START_FLAG;
 1027              		.loc 1 803 0
 1028 0098 0B4B     		ldr	r3, .L46+4
 1029 009a 1B78     		ldrb	r3, [r3]
 1030 009c DBB2     		uxtb	r3, r3
 1031 009e 0422     		mov	r2, #4
 1032 00a0 1343     		orr	r3, r2
 1033 00a2 DAB2     		uxtb	r2, r3
 1034 00a4 084B     		ldr	r3, .L46+4
 1035 00a6 1A70     		strb	r2, [r3]
 801:.\Generated_Source\PSoC4/BLE_1.c ****             {
 1036              		.loc 1 801 0
 1037 00a8 05E0     		b	.L40
 1038              	.L44:
 1039 00aa 04E0     		b	.L40
 1040              	.L41:
 804:.\Generated_Source\PSoC4/BLE_1.c ****             }
 805:.\Generated_Source\PSoC4/BLE_1.c ****         }
 806:.\Generated_Source\PSoC4/BLE_1.c ****         else
 807:.\Generated_Source\PSoC4/BLE_1.c ****         {
 808:.\Generated_Source\PSoC4/BLE_1.c ****             apiResult = CYBLE_ERROR_INVALID_STATE;
 1041              		.loc 1 808 0
 1042 00ac 0E23     		mov	r3, #14
 1043 00ae FB18     		add	r3, r7, r3
 1044 00b0 0422     		mov	r2, #4
 1045 00b2 FF32     		add	r2, r2, #255
 1046 00b4 1A80     		strh	r2, [r3]
 1047              	.L40:
 809:.\Generated_Source\PSoC4/BLE_1.c ****         }
 810:.\Generated_Source\PSoC4/BLE_1.c **** 
 811:.\Generated_Source\PSoC4/BLE_1.c ****         return (apiResult);
 1048              		.loc 1 811 0
 1049 00b6 0E23     		mov	r3, #14
 1050 00b8 FB18     		add	r3, r7, r3
 1051 00ba 1B88     		ldrh	r3, [r3]
 812:.\Generated_Source\PSoC4/BLE_1.c ****     }
 1052              		.loc 1 812 0
 1053 00bc 181C     		mov	r0, r3
 1054 00be BD46     		mov	sp, r7
 1055 00c0 05B0     		add	sp, sp, #20
 1056              		@ sp needed
 1057 00c2 90BD     		pop	{r4, r7, pc}
 1058              	.L47:
 1059              		.align	2
 1060              	.L46:
ARM GAS  C:\Users\Matthew\AppData\Local\Temp\cc2Cvq26.s 			page 34


 1061 00c4 00000000 		.word	cyBle_state
 1062 00c8 00000000 		.word	cyBle_eventHandlerFlag
 1063 00cc 00000000 		.word	cyBle_discoveryModeInfo
 1064 00d0 00000000 		.word	cyBle_advertisingIntervalType
 1065              		.cfi_endproc
 1066              	.LFE8:
 1067              		.size	CyBle_GappStartAdvertisement, .-CyBle_GappStartAdvertisement
 1068              		.section	.text.CyBle_GappStopAdvertisement,"ax",%progbits
 1069              		.align	2
 1070              		.global	CyBle_GappStopAdvertisement
 1071              		.code	16
 1072              		.thumb_func
 1073              		.type	CyBle_GappStopAdvertisement, %function
 1074              	CyBle_GappStopAdvertisement:
 1075              	.LFB9:
 813:.\Generated_Source\PSoC4/BLE_1.c **** 
 814:.\Generated_Source\PSoC4/BLE_1.c ****     
 815:.\Generated_Source\PSoC4/BLE_1.c ****     /******************************************************************************
 816:.\Generated_Source\PSoC4/BLE_1.c ****     * Function Name: CyBle_GappStopAdvertisement
 817:.\Generated_Source\PSoC4/BLE_1.c ****     ***************************************************************************//**
 818:.\Generated_Source\PSoC4/BLE_1.c ****     * 
 819:.\Generated_Source\PSoC4/BLE_1.c ****     *   This function can be used to exit from discovery mode. After the execution 
 820:.\Generated_Source\PSoC4/BLE_1.c ****     *   of this function, there will no longer be any advertisements. On stopping 
 821:.\Generated_Source\PSoC4/BLE_1.c ****     *   advertising, GAP Peripheral receives CYBLE_EVT_GAPP_ADVERTISEMENT_START_STOP
 822:.\Generated_Source\PSoC4/BLE_1.c ****     *   event. It is expected that the application layer tracks the function call 
 823:.\Generated_Source\PSoC4/BLE_1.c ****     *   performed before occurrence of this event as this event can occur on making 
 824:.\Generated_Source\PSoC4/BLE_1.c ****     *   a call to Cy_BleGappStartAdvertisement(), CyBle_GappEnterDiscoveryMode(), 
 825:.\Generated_Source\PSoC4/BLE_1.c ****     *   or CyBle_GappStartAdvertisement() functions as well.
 826:.\Generated_Source\PSoC4/BLE_1.c ****     *   
 827:.\Generated_Source\PSoC4/BLE_1.c ****     *   The following event occurs on invoking this function:
 828:.\Generated_Source\PSoC4/BLE_1.c ****     *   * CYBLE_EVT_GAPP_ADVERTISEMENT_START_STOP
 829:.\Generated_Source\PSoC4/BLE_1.c ****     * 
 830:.\Generated_Source\PSoC4/BLE_1.c ****     *  \return
 831:.\Generated_Source\PSoC4/BLE_1.c ****     *   None
 832:.\Generated_Source\PSoC4/BLE_1.c ****     * 
 833:.\Generated_Source\PSoC4/BLE_1.c ****     *******************************************************************************/
 834:.\Generated_Source\PSoC4/BLE_1.c ****     void CyBle_GappStopAdvertisement(void)
 835:.\Generated_Source\PSoC4/BLE_1.c ****     {
 1076              		.loc 1 835 0
 1077              		.cfi_startproc
 1078 0000 80B5     		push	{r7, lr}
 1079              		.cfi_def_cfa_offset 8
 1080              		.cfi_offset 7, -8
 1081              		.cfi_offset 14, -4
 1082 0002 00AF     		add	r7, sp, #0
 1083              		.cfi_def_cfa_register 7
 836:.\Generated_Source\PSoC4/BLE_1.c ****         CyBle_GappExitDiscoveryMode();
 1084              		.loc 1 836 0
 1085 0004 FFF7FEFF 		bl	CyBle_GappExitDiscoveryMode
 837:.\Generated_Source\PSoC4/BLE_1.c ****         cyBle_eventHandlerFlag |= CYBLE_STOP_FLAG;
 1086              		.loc 1 837 0
 1087 0008 044B     		ldr	r3, .L49
 1088 000a 1B78     		ldrb	r3, [r3]
 1089 000c DBB2     		uxtb	r3, r3
 1090 000e 0822     		mov	r2, #8
 1091 0010 1343     		orr	r3, r2
 1092 0012 DAB2     		uxtb	r2, r3
ARM GAS  C:\Users\Matthew\AppData\Local\Temp\cc2Cvq26.s 			page 35


 1093 0014 014B     		ldr	r3, .L49
 1094 0016 1A70     		strb	r2, [r3]
 838:.\Generated_Source\PSoC4/BLE_1.c ****     }
 1095              		.loc 1 838 0
 1096 0018 BD46     		mov	sp, r7
 1097              		@ sp needed
 1098 001a 80BD     		pop	{r7, pc}
 1099              	.L50:
 1100              		.align	2
 1101              	.L49:
 1102 001c 00000000 		.word	cyBle_eventHandlerFlag
 1103              		.cfi_endproc
 1104              	.LFE9:
 1105              		.size	CyBle_GappStopAdvertisement, .-CyBle_GappStopAdvertisement
 1106              		.section	.text.CyBle_ChangeAdDeviceAddress,"ax",%progbits
 1107              		.align	2
 1108              		.global	CyBle_ChangeAdDeviceAddress
 1109              		.code	16
 1110              		.thumb_func
 1111              		.type	CyBle_ChangeAdDeviceAddress, %function
 1112              	CyBle_ChangeAdDeviceAddress:
 1113              	.LFB10:
 839:.\Generated_Source\PSoC4/BLE_1.c ****     
 840:.\Generated_Source\PSoC4/BLE_1.c ****     
 841:.\Generated_Source\PSoC4/BLE_1.c ****     /******************************************************************************
 842:.\Generated_Source\PSoC4/BLE_1.c ****     * Function Name: CyBle_ChangeAdDeviceAddress
 843:.\Generated_Source\PSoC4/BLE_1.c ****     ***************************************************************************//**
 844:.\Generated_Source\PSoC4/BLE_1.c ****     * 
 845:.\Generated_Source\PSoC4/BLE_1.c ****     *  This API is used to set the Bluetooth device address into the advertisement 
 846:.\Generated_Source\PSoC4/BLE_1.c ****     *  or scan response data structure.
 847:.\Generated_Source\PSoC4/BLE_1.c ****     * 
 848:.\Generated_Source\PSoC4/BLE_1.c ****     *  \param bdAddr: Bluetooth Device address. The variable is of type CYBLE_GAP_BD_ADDR_T
 849:.\Generated_Source\PSoC4/BLE_1.c ****     *  \param dest: 0 - selects advertisement structure, not zero value selects scan 
 850:.\Generated_Source\PSoC4/BLE_1.c ****     *               response structure.
 851:.\Generated_Source\PSoC4/BLE_1.c ****     * 
 852:.\Generated_Source\PSoC4/BLE_1.c ****     * \return
 853:.\Generated_Source\PSoC4/BLE_1.c ****     *  None
 854:.\Generated_Source\PSoC4/BLE_1.c ****     *  
 855:.\Generated_Source\PSoC4/BLE_1.c ****     *******************************************************************************/
 856:.\Generated_Source\PSoC4/BLE_1.c ****     void CyBle_ChangeAdDeviceAddress(const CYBLE_GAP_BD_ADDR_T* bdAddr, uint8 dest)
 857:.\Generated_Source\PSoC4/BLE_1.c ****     {
 1114              		.loc 1 857 0
 1115              		.cfi_startproc
 1116 0000 80B5     		push	{r7, lr}
 1117              		.cfi_def_cfa_offset 8
 1118              		.cfi_offset 7, -8
 1119              		.cfi_offset 14, -4
 1120 0002 84B0     		sub	sp, sp, #16
 1121              		.cfi_def_cfa_offset 24
 1122 0004 00AF     		add	r7, sp, #0
 1123              		.cfi_def_cfa_register 7
 1124 0006 7860     		str	r0, [r7, #4]
 1125 0008 0A1C     		mov	r2, r1
 1126 000a FB1C     		add	r3, r7, #3
 1127 000c 1A70     		strb	r2, [r3]
 858:.\Generated_Source\PSoC4/BLE_1.c ****         uint8 i;
 859:.\Generated_Source\PSoC4/BLE_1.c ****         uint8 *destBuffer = NULL;
ARM GAS  C:\Users\Matthew\AppData\Local\Temp\cc2Cvq26.s 			page 36


 1128              		.loc 1 859 0
 1129 000e 0023     		mov	r3, #0
 1130 0010 BB60     		str	r3, [r7, #8]
 860:.\Generated_Source\PSoC4/BLE_1.c ****         
 861:.\Generated_Source\PSoC4/BLE_1.c ****         if(dest == 0u)      /* Destination - advertising structure */
 862:.\Generated_Source\PSoC4/BLE_1.c ****         {
 863:.\Generated_Source\PSoC4/BLE_1.c ****             #ifdef CYBLE_ADV_PKT_INDEX_BLUETOOTH_DEVICE_ADDRESS
 864:.\Generated_Source\PSoC4/BLE_1.c ****                 destBuffer = &cyBle_discoveryData.advData[CYBLE_ADV_PKT_INDEX_BLUETOOTH_DEVICE_ADDR
 865:.\Generated_Source\PSoC4/BLE_1.c ****             #endif /* CYBLE_ADV_PKT_INDEX_BLUETOOTH_DEVICE_ADDRESS */
 866:.\Generated_Source\PSoC4/BLE_1.c ****         }
 867:.\Generated_Source\PSoC4/BLE_1.c ****         else                /* Destination - scan response structure */
 868:.\Generated_Source\PSoC4/BLE_1.c ****         {
 869:.\Generated_Source\PSoC4/BLE_1.c ****             #ifdef CYBLE_SCN_PKT_INDEX_BLUETOOTH_DEVICE_ADDRESS
 870:.\Generated_Source\PSoC4/BLE_1.c ****                 destBuffer = &cyBle_scanRspData.scanRspData[CYBLE_SCN_PKT_INDEX_BLUETOOTH_DEVICE_AD
 871:.\Generated_Source\PSoC4/BLE_1.c ****             #endif /* CYBLE_SCN_PKT_INDEX_BLUETOOTH_DEVICE_ADDRESS */    
 872:.\Generated_Source\PSoC4/BLE_1.c ****         }
 873:.\Generated_Source\PSoC4/BLE_1.c ****         
 874:.\Generated_Source\PSoC4/BLE_1.c ****         if(destBuffer != NULL)
 1131              		.loc 1 874 0
 1132 0012 BB68     		ldr	r3, [r7, #8]
 1133 0014 002B     		cmp	r3, #0
 1134 0016 20D0     		beq	.L51
 875:.\Generated_Source\PSoC4/BLE_1.c ****         {
 876:.\Generated_Source\PSoC4/BLE_1.c ****             /* Update Device Address type */
 877:.\Generated_Source\PSoC4/BLE_1.c ****             destBuffer[0u] = bdAddr->type;
 1135              		.loc 1 877 0
 1136 0018 7B68     		ldr	r3, [r7, #4]
 1137 001a 9A79     		ldrb	r2, [r3, #6]
 1138 001c BB68     		ldr	r3, [r7, #8]
 1139 001e 1A70     		strb	r2, [r3]
 878:.\Generated_Source\PSoC4/BLE_1.c ****             
 879:.\Generated_Source\PSoC4/BLE_1.c ****             for(i = 0u; i < CYBLE_GAP_BD_ADDR_SIZE; i++)
 1140              		.loc 1 879 0
 1141 0020 0F23     		mov	r3, #15
 1142 0022 FB18     		add	r3, r7, r3
 1143 0024 0022     		mov	r2, #0
 1144 0026 1A70     		strb	r2, [r3]
 1145 0028 12E0     		b	.L53
 1146              	.L54:
 880:.\Generated_Source\PSoC4/BLE_1.c ****             {
 881:.\Generated_Source\PSoC4/BLE_1.c ****                 destBuffer[i + 1u] = bdAddr->bdAddr[i];
 1147              		.loc 1 881 0 discriminator 3
 1148 002a 0F23     		mov	r3, #15
 1149 002c FB18     		add	r3, r7, r3
 1150 002e 1B78     		ldrb	r3, [r3]
 1151 0030 0133     		add	r3, r3, #1
 1152 0032 BA68     		ldr	r2, [r7, #8]
 1153 0034 D318     		add	r3, r2, r3
 1154 0036 0F22     		mov	r2, #15
 1155 0038 BA18     		add	r2, r7, r2
 1156 003a 1278     		ldrb	r2, [r2]
 1157 003c 7968     		ldr	r1, [r7, #4]
 1158 003e 8A5C     		ldrb	r2, [r1, r2]
 1159 0040 1A70     		strb	r2, [r3]
 879:.\Generated_Source\PSoC4/BLE_1.c ****             {
 1160              		.loc 1 879 0 discriminator 3
 1161 0042 0F23     		mov	r3, #15
ARM GAS  C:\Users\Matthew\AppData\Local\Temp\cc2Cvq26.s 			page 37


 1162 0044 FB18     		add	r3, r7, r3
 1163 0046 1A78     		ldrb	r2, [r3]
 1164 0048 0F23     		mov	r3, #15
 1165 004a FB18     		add	r3, r7, r3
 1166 004c 0132     		add	r2, r2, #1
 1167 004e 1A70     		strb	r2, [r3]
 1168              	.L53:
 879:.\Generated_Source\PSoC4/BLE_1.c ****             {
 1169              		.loc 1 879 0 is_stmt 0 discriminator 1
 1170 0050 0F23     		mov	r3, #15
 1171 0052 FB18     		add	r3, r7, r3
 1172 0054 1B78     		ldrb	r3, [r3]
 1173 0056 052B     		cmp	r3, #5
 1174 0058 E7D9     		bls	.L54
 1175              	.L51:
 882:.\Generated_Source\PSoC4/BLE_1.c ****             }
 883:.\Generated_Source\PSoC4/BLE_1.c ****         }
 884:.\Generated_Source\PSoC4/BLE_1.c ****     }
 1176              		.loc 1 884 0 is_stmt 1
 1177 005a BD46     		mov	sp, r7
 1178 005c 04B0     		add	sp, sp, #16
 1179              		@ sp needed
 1180 005e 80BD     		pop	{r7, pc}
 1181              		.cfi_endproc
 1182              	.LFE10:
 1183              		.size	CyBle_ChangeAdDeviceAddress, .-CyBle_ChangeAdDeviceAddress
 1184              		.section	.text.CyBle_ChangeAdLocalName,"ax",%progbits
 1185              		.align	2
 1186              		.code	16
 1187              		.thumb_func
 1188              		.type	CyBle_ChangeAdLocalName, %function
 1189              	CyBle_ChangeAdLocalName:
 1190              	.LFB11:
 885:.\Generated_Source\PSoC4/BLE_1.c ****   
 886:.\Generated_Source\PSoC4/BLE_1.c **** #endif /* CYBLE_GAP_ROLE_PERIPHERAL || CYBLE_GAP_ROLE_BROADCASTER */
 887:.\Generated_Source\PSoC4/BLE_1.c **** 
 888:.\Generated_Source\PSoC4/BLE_1.c **** 
 889:.\Generated_Source\PSoC4/BLE_1.c **** #if(CYBLE_GAP_ROLE_CENTRAL || CYBLE_GAP_ROLE_OBSERVER)
 890:.\Generated_Source\PSoC4/BLE_1.c **** 
 891:.\Generated_Source\PSoC4/BLE_1.c ****     /******************************************************************************
 892:.\Generated_Source\PSoC4/BLE_1.c ****     * Function Name: CyBle_GapcStartScan
 893:.\Generated_Source\PSoC4/BLE_1.c ****     ***************************************************************************//**
 894:.\Generated_Source\PSoC4/BLE_1.c ****     * 
 895:.\Generated_Source\PSoC4/BLE_1.c ****     *   This function is used for discovering GAP peripheral devices that are 
 896:.\Generated_Source\PSoC4/BLE_1.c ****     *   available for connection. It performs the scanning routine using the 
 897:.\Generated_Source\PSoC4/BLE_1.c ****     *   parameters entered in the component's customizer.
 898:.\Generated_Source\PSoC4/BLE_1.c ****     *   
 899:.\Generated_Source\PSoC4/BLE_1.c ****     *   As soon as the discovery operation starts, CYBLE_EVT_GAPC_SCAN_START_STOP 
 900:.\Generated_Source\PSoC4/BLE_1.c ****     *   event is generated. The CYBLE_EVT_GAPC_SCAN_PROGRESS_RESULT event is 
 901:.\Generated_Source\PSoC4/BLE_1.c ****     *   generated when a GAP peripheral device is located. There are three discovery
 902:.\Generated_Source\PSoC4/BLE_1.c ****     *   procedures can be selected in the customizer's GUI:
 903:.\Generated_Source\PSoC4/BLE_1.c ****     *   
 904:.\Generated_Source\PSoC4/BLE_1.c ****     *   * Observation procedure: A device performing the observer role receives only
 905:.\Generated_Source\PSoC4/BLE_1.c ****     *                            advertisement data from devices irrespective of 
 906:.\Generated_Source\PSoC4/BLE_1.c ****     *                            their discoverable mode settings. Advertisement 
 907:.\Generated_Source\PSoC4/BLE_1.c ****     *                            data received is provided by the event,      
 908:.\Generated_Source\PSoC4/BLE_1.c ****     *                            CYBLE_EVT_GAPC_SCAN_PROGRESS_RESULT. This procedure
ARM GAS  C:\Users\Matthew\AppData\Local\Temp\cc2Cvq26.s 			page 38


 909:.\Generated_Source\PSoC4/BLE_1.c ****     *                            requires the scanType sub parameter to be passive
 910:.\Generated_Source\PSoC4/BLE_1.c ****     *                            scanning. 
 911:.\Generated_Source\PSoC4/BLE_1.c ****     *   
 912:.\Generated_Source\PSoC4/BLE_1.c ****     *   * Limited Discovery procedure: A device performing the limited discovery
 913:.\Generated_Source\PSoC4/BLE_1.c ****     *                                  procedure receives advertisement data and 
 914:.\Generated_Source\PSoC4/BLE_1.c ****     *                                  scan# response data from devices in the 
 915:.\Generated_Source\PSoC4/BLE_1.c ****     *                                  limited discoverable mode only. Received data
 916:.\Generated_Source\PSoC4/BLE_1.c ****     *                                  is provided by the event, 
 917:.\Generated_Source\PSoC4/BLE_1.c ****     *                                  CYBLE_EVT_GAPC_SCAN_PROGRESS_RESULT. This 
 918:.\Generated_Source\PSoC4/BLE_1.c ****     *                                  procedure requires the scanType sub-parameter 
 919:.\Generated_Source\PSoC4/BLE_1.c ****     *                                  to be active scanning.
 920:.\Generated_Source\PSoC4/BLE_1.c ****     *   
 921:.\Generated_Source\PSoC4/BLE_1.c ****     *   * General Discovery procedure: A device performing the general discovery 
 922:.\Generated_Source\PSoC4/BLE_1.c ****     *                                  procedure receives the advertisement data and
 923:.\Generated_Source\PSoC4/BLE_1.c ****     *                                  scan response data from devices in both 
 924:.\Generated_Source\PSoC4/BLE_1.c ****     *                                  limited discoverable mode and the general 
 925:.\Generated_Source\PSoC4/BLE_1.c ****     *                                  discoverable mode. Received data is provided
 926:.\Generated_Source\PSoC4/BLE_1.c ****     *                                  by the event,
 927:.\Generated_Source\PSoC4/BLE_1.c ****     *                                  CYBLE_EVT_GAPC_SCAN_PROGRESS_RESULT. This 
 928:.\Generated_Source\PSoC4/BLE_1.c ****     *                                  procedure requires the scanType sub-parameter
 929:.\Generated_Source\PSoC4/BLE_1.c ****     *                                  to be active scanning.
 930:.\Generated_Source\PSoC4/BLE_1.c ****     *   
 931:.\Generated_Source\PSoC4/BLE_1.c ****     *   Every Advertisement / Scan response packet received results in a new event, 
 932:.\Generated_Source\PSoC4/BLE_1.c ****     *   CYBLE_EVT_GAPC_SCAN_PROGRESS_RESULT.
 933:.\Generated_Source\PSoC4/BLE_1.c ****     *   If 'scanTo' sub-parameter is a non-zero value, then upon commencement of 
 934:.\Generated_Source\PSoC4/BLE_1.c ****     *   discovery procedure and elapsed time = 'scanTo', CYBLE_EVT_TIMEOUT event
 935:.\Generated_Source\PSoC4/BLE_1.c ****     *   is generated with the event parameter indicating CYBLE_GAP_SCAN_TO.
 936:.\Generated_Source\PSoC4/BLE_1.c ****     *   Possible generated events are:
 937:.\Generated_Source\PSoC4/BLE_1.c ****     *   * CYBLE_EVT_GAPC_SCAN_START_STOP: If a device started or stopped scanning. 
 938:.\Generated_Source\PSoC4/BLE_1.c ****     *                                     Use CyBle_GetState() to determine the 
 939:.\Generated_Source\PSoC4/BLE_1.c ****     *                                     state. Sequential scanning could be 
 940:.\Generated_Source\PSoC4/BLE_1.c ****     *                                     started when CYBLE_STATE_DISCONNECTED 
 941:.\Generated_Source\PSoC4/BLE_1.c ****     *                                     state is returned. 
 942:.\Generated_Source\PSoC4/BLE_1.c ****     *   * CYBLE_EVT_GAPC_SCAN_PROGRESS_RESULT 
 943:.\Generated_Source\PSoC4/BLE_1.c ****     *   * CYBLE_EVT_TIMEOUT (CYBLE_GAP_SCAN_TO)
 944:.\Generated_Source\PSoC4/BLE_1.c ****     * 
 945:.\Generated_Source\PSoC4/BLE_1.c ****     *   \param scanningIntervalType:  Fast or slow scanning interval with
 946:.\Generated_Source\PSoC4/BLE_1.c ****     *       timings entered in Scan settings section of the customizer.
 947:.\Generated_Source\PSoC4/BLE_1.c ****     * 	  * CYBLE_SCANNING_FAST   0x00u
 948:.\Generated_Source\PSoC4/BLE_1.c ****     * 	  * CYBLE_SCANNING_SLOW   0x01u
 949:.\Generated_Source\PSoC4/BLE_1.c ****     * 	  * CYBLE_SCANNING_CUSTOM 0x02u
 950:.\Generated_Source\PSoC4/BLE_1.c ****     * 
 951:.\Generated_Source\PSoC4/BLE_1.c ****     * \return
 952:.\Generated_Source\PSoC4/BLE_1.c ****     *  CYBLE_API_RESULT_T : Return value indicates if the function succeeded or
 953:.\Generated_Source\PSoC4/BLE_1.c ****     *  failed. Following are the possible error codes.
 954:.\Generated_Source\PSoC4/BLE_1.c ****     *
 955:.\Generated_Source\PSoC4/BLE_1.c ****     *   Errors codes                       | Description
 956:.\Generated_Source\PSoC4/BLE_1.c ****     *   ---------------------------------- | -----------------------------------
 957:.\Generated_Source\PSoC4/BLE_1.c ****     *   CYBLE_ERROR_OK                     | On successful operation.
 958:.\Generated_Source\PSoC4/BLE_1.c ****     *   CYBLE_ERROR_STACK_INTERNAL         | An error occurred in the BLE stack.
 959:.\Generated_Source\PSoC4/BLE_1.c ****     *   CYBLE_ERROR_INVALID_PARAMETER      | On passing an invalid parameter.
 960:.\Generated_Source\PSoC4/BLE_1.c ****     *  
 961:.\Generated_Source\PSoC4/BLE_1.c ****     *******************************************************************************/
 962:.\Generated_Source\PSoC4/BLE_1.c ****     CYBLE_API_RESULT_T CyBle_GapcStartScan(uint8 scanningIntervalType)
 963:.\Generated_Source\PSoC4/BLE_1.c ****     {
 964:.\Generated_Source\PSoC4/BLE_1.c ****         CYBLE_API_RESULT_T apiResult;
 965:.\Generated_Source\PSoC4/BLE_1.c **** 
ARM GAS  C:\Users\Matthew\AppData\Local\Temp\cc2Cvq26.s 			page 39


 966:.\Generated_Source\PSoC4/BLE_1.c ****         if(scanningIntervalType > CYBLE_SCANNING_CUSTOM)
 967:.\Generated_Source\PSoC4/BLE_1.c ****         {
 968:.\Generated_Source\PSoC4/BLE_1.c ****             apiResult = CYBLE_ERROR_INVALID_PARAMETER;
 969:.\Generated_Source\PSoC4/BLE_1.c ****         }
 970:.\Generated_Source\PSoC4/BLE_1.c ****         else
 971:.\Generated_Source\PSoC4/BLE_1.c ****         {
 972:.\Generated_Source\PSoC4/BLE_1.c ****             if(scanningIntervalType == CYBLE_SCANNING_FAST)
 973:.\Generated_Source\PSoC4/BLE_1.c ****             {
 974:.\Generated_Source\PSoC4/BLE_1.c ****                 cyBle_discoveryInfo.scanTo = CYBLE_FAST_SCAN_TIMEOUT;
 975:.\Generated_Source\PSoC4/BLE_1.c ****                 cyBle_discoveryInfo.scanIntv = CYBLE_FAST_SCAN_INTERVAL;
 976:.\Generated_Source\PSoC4/BLE_1.c ****                 cyBle_discoveryInfo.scanWindow = CYBLE_FAST_SCAN_WINDOW;
 977:.\Generated_Source\PSoC4/BLE_1.c ****             }
 978:.\Generated_Source\PSoC4/BLE_1.c ****             else if(scanningIntervalType == CYBLE_SCANNING_SLOW)
 979:.\Generated_Source\PSoC4/BLE_1.c ****             {
 980:.\Generated_Source\PSoC4/BLE_1.c ****                 cyBle_discoveryInfo.scanTo = CYBLE_SLOW_SCAN_TIMEOUT;
 981:.\Generated_Source\PSoC4/BLE_1.c ****                 cyBle_discoveryInfo.scanIntv = CYBLE_SLOW_SCAN_INTERVAL;
 982:.\Generated_Source\PSoC4/BLE_1.c ****                 cyBle_discoveryInfo.scanWindow = CYBLE_SLOW_SCAN_WINDOW;
 983:.\Generated_Source\PSoC4/BLE_1.c ****             }       
 984:.\Generated_Source\PSoC4/BLE_1.c ****             else /* Do not update scanning intervals */
 985:.\Generated_Source\PSoC4/BLE_1.c ****             {
 986:.\Generated_Source\PSoC4/BLE_1.c ****             }
 987:.\Generated_Source\PSoC4/BLE_1.c ****             
 988:.\Generated_Source\PSoC4/BLE_1.c ****             cyBle_scanningIntervalType = scanningIntervalType;
 989:.\Generated_Source\PSoC4/BLE_1.c ****             apiResult = CyBle_GapcStartDiscovery(&cyBle_discoveryInfo);
 990:.\Generated_Source\PSoC4/BLE_1.c ****         
 991:.\Generated_Source\PSoC4/BLE_1.c ****             if(CYBLE_ERROR_OK == apiResult)
 992:.\Generated_Source\PSoC4/BLE_1.c ****             {
 993:.\Generated_Source\PSoC4/BLE_1.c ****                 cyBle_eventHandlerFlag |= CYBLE_START_FLAG;
 994:.\Generated_Source\PSoC4/BLE_1.c ****             }
 995:.\Generated_Source\PSoC4/BLE_1.c ****         }
 996:.\Generated_Source\PSoC4/BLE_1.c ****        
 997:.\Generated_Source\PSoC4/BLE_1.c ****         return (apiResult);
 998:.\Generated_Source\PSoC4/BLE_1.c ****     }
 999:.\Generated_Source\PSoC4/BLE_1.c ****     
1000:.\Generated_Source\PSoC4/BLE_1.c ****     
1001:.\Generated_Source\PSoC4/BLE_1.c ****     /******************************************************************************
1002:.\Generated_Source\PSoC4/BLE_1.c ****     * Function Name: CyBle_GapcStopScan
1003:.\Generated_Source\PSoC4/BLE_1.c ****     ***************************************************************************//**
1004:.\Generated_Source\PSoC4/BLE_1.c ****     * 
1005:.\Generated_Source\PSoC4/BLE_1.c ****     *   This function used to stop the discovery of devices. On stopping discovery
1006:.\Generated_Source\PSoC4/BLE_1.c ****     *   operation, CYBLE_EVT_GAPC_SCAN_START_STOP event is generated. Application
1007:.\Generated_Source\PSoC4/BLE_1.c ****     *   layer needs to keep track of the function call made before receiving this
1008:.\Generated_Source\PSoC4/BLE_1.c ****     *   event to associate this event with either the start or stop discovery
1009:.\Generated_Source\PSoC4/BLE_1.c ****     *   function.
1010:.\Generated_Source\PSoC4/BLE_1.c ****     * 
1011:.\Generated_Source\PSoC4/BLE_1.c ****     *   Possible events generated are:
1012:.\Generated_Source\PSoC4/BLE_1.c ****     *    * CYBLE_EVT_GAPC_SCAN_START_STOP
1013:.\Generated_Source\PSoC4/BLE_1.c ****     * 
1014:.\Generated_Source\PSoC4/BLE_1.c ****     *  \return
1015:.\Generated_Source\PSoC4/BLE_1.c ****     *   None
1016:.\Generated_Source\PSoC4/BLE_1.c ****     * 
1017:.\Generated_Source\PSoC4/BLE_1.c ****     *******************************************************************************/
1018:.\Generated_Source\PSoC4/BLE_1.c ****     void CyBle_GapcStopScan(void)
1019:.\Generated_Source\PSoC4/BLE_1.c ****     {
1020:.\Generated_Source\PSoC4/BLE_1.c ****         CyBle_GapcStopDiscovery();
1021:.\Generated_Source\PSoC4/BLE_1.c ****         
1022:.\Generated_Source\PSoC4/BLE_1.c ****         cyBle_eventHandlerFlag |= CYBLE_STOP_FLAG;
ARM GAS  C:\Users\Matthew\AppData\Local\Temp\cc2Cvq26.s 			page 40


1023:.\Generated_Source\PSoC4/BLE_1.c ****     }
1024:.\Generated_Source\PSoC4/BLE_1.c **** 
1025:.\Generated_Source\PSoC4/BLE_1.c ****     
1026:.\Generated_Source\PSoC4/BLE_1.c **** #endif /* CYBLE_GAP_ROLE_CENTRAL || CYBLE_GAP_ROLE_OBSERVER */
1027:.\Generated_Source\PSoC4/BLE_1.c **** 
1028:.\Generated_Source\PSoC4/BLE_1.c **** 
1029:.\Generated_Source\PSoC4/BLE_1.c **** #if(CYBLE_GAP_ROLE_CENTRAL)
1030:.\Generated_Source\PSoC4/BLE_1.c **** 
1031:.\Generated_Source\PSoC4/BLE_1.c ****     /******************************************************************************
1032:.\Generated_Source\PSoC4/BLE_1.c ****     * Function Name: CyBle_GapcConnectDevice
1033:.\Generated_Source\PSoC4/BLE_1.c ****     ***************************************************************************//**
1034:.\Generated_Source\PSoC4/BLE_1.c ****     * 
1035:.\Generated_Source\PSoC4/BLE_1.c ****     *  This function is used to send a connection request to the remote device with
1036:.\Generated_Source\PSoC4/BLE_1.c ****     *  the connection parameters set in the component customizer. This function needs
1037:.\Generated_Source\PSoC4/BLE_1.c ****     *  to be called only once after the target device is discovered by 
1038:.\Generated_Source\PSoC4/BLE_1.c ****     *  CyBle_GapcStartScan() and further scanning has stopped. Scanning is 
1039:.\Generated_Source\PSoC4/BLE_1.c ****     *  successfully stopped on invoking CyBle_GapcStopScan() and then receiving the
1040:.\Generated_Source\PSoC4/BLE_1.c ****     *  event CYBLE_EVT_GAPC_SCAN_START_STOP with sub-parameter 'success' = 0x01u.
1041:.\Generated_Source\PSoC4/BLE_1.c ****     *  
1042:.\Generated_Source\PSoC4/BLE_1.c ****     *  On successful connection, the following events are generated at the GAP 
1043:.\Generated_Source\PSoC4/BLE_1.c ****     *  Central device (as well as the GAP Peripheral device), in the following order.
1044:.\Generated_Source\PSoC4/BLE_1.c ****     *  * CYBLE_EVT_GATT_CONNECT_IND
1045:.\Generated_Source\PSoC4/BLE_1.c ****     *  * CYBLE_EVT_GAP_DEVICE_CONNECTED - If the device connects to a GAP Central and 
1046:.\Generated_Source\PSoC4/BLE_1.c ****     *    Link Layer Privacy is disabled in component customizer.
1047:.\Generated_Source\PSoC4/BLE_1.c ****     *  * CYBLE_EVT_GAP_ENHANCE_CONN_COMPLETE - If the device connects to a GAP Central and 
1048:.\Generated_Source\PSoC4/BLE_1.c ****     *    Link Layer Privacy is enabled in component customizer.
1049:.\Generated_Source\PSoC4/BLE_1.c ****     *  * CYBLE_EVT_GAP_DEVICE_CONNECTED
1050:.\Generated_Source\PSoC4/BLE_1.c ****     *  
1051:.\Generated_Source\PSoC4/BLE_1.c ****     *  A procedure is considered to have timed out if a connection response packet is 
1052:.\Generated_Source\PSoC4/BLE_1.c ****     *  not received within time set by cyBle_connectingTimeout global variable
1053:.\Generated_Source\PSoC4/BLE_1.c ****     *  (30 seconds by default). CYBLE_EVT_TIMEOUT event with CYBLE_GENERIC_TO parameter
1054:.\Generated_Source\PSoC4/BLE_1.c ****     *  will indicate about connection procedure timeout. Connection will automatically
1055:.\Generated_Source\PSoC4/BLE_1.c ****     *  be canceled and state will be changed to CYBLE_STATE_DISCONNECTED.
1056:.\Generated_Source\PSoC4/BLE_1.c ****     * 
1057:.\Generated_Source\PSoC4/BLE_1.c ****     *  \param address: The device address of the remote device to connect to. 
1058:.\Generated_Source\PSoC4/BLE_1.c ****     *  
1059:.\Generated_Source\PSoC4/BLE_1.c ****     * \return
1060:.\Generated_Source\PSoC4/BLE_1.c ****     *  CYBLE_API_RESULT_T : Return value indicates if the function succeeded or 
1061:.\Generated_Source\PSoC4/BLE_1.c ****     *  failed. Following are the possible error codes.
1062:.\Generated_Source\PSoC4/BLE_1.c ****     *
1063:.\Generated_Source\PSoC4/BLE_1.c ****     *   Errors codes                       | Description
1064:.\Generated_Source\PSoC4/BLE_1.c ****     *   ------------                       | -----------
1065:.\Generated_Source\PSoC4/BLE_1.c ****     *   CYBLE_ERROR_OK                     | On successful operation.
1066:.\Generated_Source\PSoC4/BLE_1.c ****     *   CYBLE_ERROR_STACK_INTERNAL         | On error occurred in the BLE stack.
1067:.\Generated_Source\PSoC4/BLE_1.c ****     *   CYBLE_ERROR_INVALID_PARAMETER      | On passing an invalid parameter.
1068:.\Generated_Source\PSoC4/BLE_1.c ****     *   CYBLE_ERROR_INVALID_STATE          | On calling this API not in Disconnected state.
1069:.\Generated_Source\PSoC4/BLE_1.c ****     *  
1070:.\Generated_Source\PSoC4/BLE_1.c ****     ******************************************************************************/
1071:.\Generated_Source\PSoC4/BLE_1.c ****     CYBLE_API_RESULT_T CyBle_GapcConnectDevice(const CYBLE_GAP_BD_ADDR_T * address)
1072:.\Generated_Source\PSoC4/BLE_1.c ****     {
1073:.\Generated_Source\PSoC4/BLE_1.c ****         CYBLE_API_RESULT_T apiResult;
1074:.\Generated_Source\PSoC4/BLE_1.c ****         uint8 i;
1075:.\Generated_Source\PSoC4/BLE_1.c **** 
1076:.\Generated_Source\PSoC4/BLE_1.c ****         if(CyBle_GetState() != CYBLE_STATE_DISCONNECTED)
1077:.\Generated_Source\PSoC4/BLE_1.c ****         {
1078:.\Generated_Source\PSoC4/BLE_1.c ****             apiResult = CYBLE_ERROR_INVALID_STATE;
1079:.\Generated_Source\PSoC4/BLE_1.c ****         }
ARM GAS  C:\Users\Matthew\AppData\Local\Temp\cc2Cvq26.s 			page 41


1080:.\Generated_Source\PSoC4/BLE_1.c ****         else if(address == NULL)
1081:.\Generated_Source\PSoC4/BLE_1.c ****         {
1082:.\Generated_Source\PSoC4/BLE_1.c ****             apiResult = CYBLE_ERROR_INVALID_PARAMETER;
1083:.\Generated_Source\PSoC4/BLE_1.c ****         }
1084:.\Generated_Source\PSoC4/BLE_1.c ****         else
1085:.\Generated_Source\PSoC4/BLE_1.c ****         {
1086:.\Generated_Source\PSoC4/BLE_1.c ****             for(i = 0u; i < CYBLE_GAP_BD_ADDR_SIZE; i++)
1087:.\Generated_Source\PSoC4/BLE_1.c ****             {
1088:.\Generated_Source\PSoC4/BLE_1.c ****                 cyBle_connectionParameters.peerBdAddr[i] = address->bdAddr[i];
1089:.\Generated_Source\PSoC4/BLE_1.c ****             }
1090:.\Generated_Source\PSoC4/BLE_1.c ****             cyBle_connectionParameters.peerAddrType = address -> type;
1091:.\Generated_Source\PSoC4/BLE_1.c ****             apiResult = CyBle_GapcInitConnection(&cyBle_connectionParameters);
1092:.\Generated_Source\PSoC4/BLE_1.c ****             
1093:.\Generated_Source\PSoC4/BLE_1.c ****             if(apiResult == CYBLE_ERROR_OK)
1094:.\Generated_Source\PSoC4/BLE_1.c ****             {
1095:.\Generated_Source\PSoC4/BLE_1.c ****                 CyBle_SetState(CYBLE_STATE_CONNECTING);
1096:.\Generated_Source\PSoC4/BLE_1.c ****                 if(cyBle_connectingTimeout != 0u)
1097:.\Generated_Source\PSoC4/BLE_1.c ****                 {
1098:.\Generated_Source\PSoC4/BLE_1.c ****                     (void)CyBle_StartTimer(cyBle_connectingTimeout);
1099:.\Generated_Source\PSoC4/BLE_1.c ****                 }
1100:.\Generated_Source\PSoC4/BLE_1.c ****             }
1101:.\Generated_Source\PSoC4/BLE_1.c ****         }
1102:.\Generated_Source\PSoC4/BLE_1.c ****         return (apiResult);
1103:.\Generated_Source\PSoC4/BLE_1.c ****     }
1104:.\Generated_Source\PSoC4/BLE_1.c ****     
1105:.\Generated_Source\PSoC4/BLE_1.c **** 
1106:.\Generated_Source\PSoC4/BLE_1.c ****     /******************************************************************************
1107:.\Generated_Source\PSoC4/BLE_1.c ****     * Function Name: CyBle_GapcCancelDeviceConnection
1108:.\Generated_Source\PSoC4/BLE_1.c ****     ***************************************************************************//**
1109:.\Generated_Source\PSoC4/BLE_1.c ****     * 
1110:.\Generated_Source\PSoC4/BLE_1.c ****     *  This function cancels a previously initiated connection with the remote 
1111:.\Generated_Source\PSoC4/BLE_1.c ****     *  device. It is a blocking function. No event is generated on calling this 
1112:.\Generated_Source\PSoC4/BLE_1.c ****     *  function. If the devices are already connected then this function should not
1113:.\Generated_Source\PSoC4/BLE_1.c ****     *  be used. If you intend to disconnect from an existing connection, the function
1114:.\Generated_Source\PSoC4/BLE_1.c ****     *  CyBle_GapDisconnect() should be used.
1115:.\Generated_Source\PSoC4/BLE_1.c ****     * 
1116:.\Generated_Source\PSoC4/BLE_1.c ****     * \return
1117:.\Generated_Source\PSoC4/BLE_1.c ****     *  CYBLE_API_RESULT_T : Return value indicates if the function succeeded or 
1118:.\Generated_Source\PSoC4/BLE_1.c ****     *  failed. Following are the possible error codes.
1119:.\Generated_Source\PSoC4/BLE_1.c ****     *
1120:.\Generated_Source\PSoC4/BLE_1.c ****     *   Errors codes                       | Description
1121:.\Generated_Source\PSoC4/BLE_1.c ****     *   ---------------------------------- | --------------------------------------
1122:.\Generated_Source\PSoC4/BLE_1.c ****     *   CYBLE_ERROR_OK                     | On successful operation.
1123:.\Generated_Source\PSoC4/BLE_1.c ****     *   CYBLE_ERROR_STACK_INTERNAL         | An error occurred in the BLE stack.
1124:.\Generated_Source\PSoC4/BLE_1.c ****     *   CYBLE_ERROR_INVALID_STATE          | On calling this API not in Connecting state.
1125:.\Generated_Source\PSoC4/BLE_1.c ****     *  
1126:.\Generated_Source\PSoC4/BLE_1.c ****     *******************************************************************************/
1127:.\Generated_Source\PSoC4/BLE_1.c ****     CYBLE_API_RESULT_T CyBle_GapcCancelDeviceConnection(void)
1128:.\Generated_Source\PSoC4/BLE_1.c ****     {
1129:.\Generated_Source\PSoC4/BLE_1.c ****         CYBLE_API_RESULT_T apiResult;
1130:.\Generated_Source\PSoC4/BLE_1.c ****         
1131:.\Generated_Source\PSoC4/BLE_1.c ****         if(CyBle_GetState() != CYBLE_STATE_CONNECTING)
1132:.\Generated_Source\PSoC4/BLE_1.c ****         {
1133:.\Generated_Source\PSoC4/BLE_1.c ****             apiResult = CYBLE_ERROR_INVALID_STATE;
1134:.\Generated_Source\PSoC4/BLE_1.c ****         }
1135:.\Generated_Source\PSoC4/BLE_1.c ****         else 
1136:.\Generated_Source\PSoC4/BLE_1.c ****         {
ARM GAS  C:\Users\Matthew\AppData\Local\Temp\cc2Cvq26.s 			page 42


1137:.\Generated_Source\PSoC4/BLE_1.c ****             apiResult = CyBle_GapcCancelConnection();
1138:.\Generated_Source\PSoC4/BLE_1.c ****             
1139:.\Generated_Source\PSoC4/BLE_1.c ****             if(cyBle_connectingTimeout != 0u)
1140:.\Generated_Source\PSoC4/BLE_1.c ****             {
1141:.\Generated_Source\PSoC4/BLE_1.c ****                 (void)CyBle_StopTimer();
1142:.\Generated_Source\PSoC4/BLE_1.c ****             }
1143:.\Generated_Source\PSoC4/BLE_1.c **** 
1144:.\Generated_Source\PSoC4/BLE_1.c ****             if(apiResult == CYBLE_ERROR_OK)
1145:.\Generated_Source\PSoC4/BLE_1.c ****             {
1146:.\Generated_Source\PSoC4/BLE_1.c ****                 CyBle_SetState(CYBLE_STATE_DISCONNECTED);
1147:.\Generated_Source\PSoC4/BLE_1.c ****             }
1148:.\Generated_Source\PSoC4/BLE_1.c ****         }
1149:.\Generated_Source\PSoC4/BLE_1.c ****         return (apiResult);
1150:.\Generated_Source\PSoC4/BLE_1.c ****     }    
1151:.\Generated_Source\PSoC4/BLE_1.c **** 
1152:.\Generated_Source\PSoC4/BLE_1.c ****     
1153:.\Generated_Source\PSoC4/BLE_1.c **** #endif /* CYBLE_GAP_ROLE_CENTRAL */
1154:.\Generated_Source\PSoC4/BLE_1.c **** 
1155:.\Generated_Source\PSoC4/BLE_1.c **** 
1156:.\Generated_Source\PSoC4/BLE_1.c **** #if(CYBLE_GATT_ROLE_SERVER)
1157:.\Generated_Source\PSoC4/BLE_1.c **** 
1158:.\Generated_Source\PSoC4/BLE_1.c **** #if(CYBLE_GAP_ROLE_PERIPHERAL)
1159:.\Generated_Source\PSoC4/BLE_1.c **** 
1160:.\Generated_Source\PSoC4/BLE_1.c ****         /******************************************************************************
1161:.\Generated_Source\PSoC4/BLE_1.c ****         * Function Name: CyBle_ChangeAdLocalName
1162:.\Generated_Source\PSoC4/BLE_1.c ****         ***************************************************************************//**
1163:.\Generated_Source\PSoC4/BLE_1.c ****         *  This API is used to set the local device name in the advertisement or scan 
1164:.\Generated_Source\PSoC4/BLE_1.c ****         *  response data structure.
1165:.\Generated_Source\PSoC4/BLE_1.c ****         * 
1166:.\Generated_Source\PSoC4/BLE_1.c ****         *  \param name: The local device name string to be set in advertisement data 
1167:.\Generated_Source\PSoC4/BLE_1.c ****         *            structure.
1168:.\Generated_Source\PSoC4/BLE_1.c ****         *  \param dest: 0 - advertisement structure, not zero value selects scan response
1169:.\Generated_Source\PSoC4/BLE_1.c ****         *              structure.
1170:.\Generated_Source\PSoC4/BLE_1.c ****         * 
1171:.\Generated_Source\PSoC4/BLE_1.c ****         * \return
1172:.\Generated_Source\PSoC4/BLE_1.c ****         *  None
1173:.\Generated_Source\PSoC4/BLE_1.c ****         *  
1174:.\Generated_Source\PSoC4/BLE_1.c ****         *******************************************************************************/
1175:.\Generated_Source\PSoC4/BLE_1.c ****         static void CyBle_ChangeAdLocalName(const char8 name[], uint8 dest)
1176:.\Generated_Source\PSoC4/BLE_1.c ****         {
 1191              		.loc 1 1176 0
 1192              		.cfi_startproc
 1193 0000 80B5     		push	{r7, lr}
 1194              		.cfi_def_cfa_offset 8
 1195              		.cfi_offset 7, -8
 1196              		.cfi_offset 14, -4
 1197 0002 86B0     		sub	sp, sp, #24
 1198              		.cfi_def_cfa_offset 32
 1199 0004 00AF     		add	r7, sp, #0
 1200              		.cfi_def_cfa_register 7
 1201 0006 7860     		str	r0, [r7, #4]
 1202 0008 0A1C     		mov	r2, r1
 1203 000a FB1C     		add	r3, r7, #3
 1204 000c 1A70     		strb	r2, [r3]
1177:.\Generated_Source\PSoC4/BLE_1.c ****             uint8 i;
1178:.\Generated_Source\PSoC4/BLE_1.c ****             uint8 flag = 0u;
 1205              		.loc 1 1178 0
ARM GAS  C:\Users\Matthew\AppData\Local\Temp\cc2Cvq26.s 			page 43


 1206 000e 1623     		mov	r3, #22
 1207 0010 FB18     		add	r3, r7, r3
 1208 0012 0022     		mov	r2, #0
 1209 0014 1A70     		strb	r2, [r3]
1179:.\Generated_Source\PSoC4/BLE_1.c ****             uint8 adLength = 0u;
 1210              		.loc 1 1179 0
 1211 0016 1523     		mov	r3, #21
 1212 0018 FB18     		add	r3, r7, r3
 1213 001a 0022     		mov	r2, #0
 1214 001c 1A70     		strb	r2, [r3]
1180:.\Generated_Source\PSoC4/BLE_1.c ****             uint8 byteCounter = 0u;
 1215              		.loc 1 1180 0
 1216 001e 1423     		mov	r3, #20
 1217 0020 FB18     		add	r3, r7, r3
 1218 0022 0022     		mov	r2, #0
 1219 0024 1A70     		strb	r2, [r3]
1181:.\Generated_Source\PSoC4/BLE_1.c ****             uint8 *destBuffer;
1182:.\Generated_Source\PSoC4/BLE_1.c ****             uint8 maxLength;
1183:.\Generated_Source\PSoC4/BLE_1.c ****             
1184:.\Generated_Source\PSoC4/BLE_1.c ****             if(dest == 0u)      /* Destination - advertising structure */
 1220              		.loc 1 1184 0
 1221 0026 FB1C     		add	r3, r7, #3
 1222 0028 1B78     		ldrb	r3, [r3]
 1223 002a 002B     		cmp	r3, #0
 1224 002c 07D1     		bne	.L56
1185:.\Generated_Source\PSoC4/BLE_1.c ****             {
1186:.\Generated_Source\PSoC4/BLE_1.c ****                 destBuffer = cyBle_discoveryData.advData;
 1225              		.loc 1 1186 0
 1226 002e 5B4B     		ldr	r3, .L71
 1227 0030 3B61     		str	r3, [r7, #16]
1187:.\Generated_Source\PSoC4/BLE_1.c ****                 maxLength = cyBle_discoveryData.advDataLen;
 1228              		.loc 1 1187 0
 1229 0032 0F23     		mov	r3, #15
 1230 0034 FB18     		add	r3, r7, r3
 1231 0036 594A     		ldr	r2, .L71
 1232 0038 D27F     		ldrb	r2, [r2, #31]
 1233 003a 1A70     		strb	r2, [r3]
 1234 003c 06E0     		b	.L57
 1235              	.L56:
1188:.\Generated_Source\PSoC4/BLE_1.c ****             }
1189:.\Generated_Source\PSoC4/BLE_1.c ****             else                /* Destination - scan response structure */
1190:.\Generated_Source\PSoC4/BLE_1.c ****             {
1191:.\Generated_Source\PSoC4/BLE_1.c ****                 destBuffer = cyBle_scanRspData.scanRspData;
 1236              		.loc 1 1191 0
 1237 003e 584B     		ldr	r3, .L71+4
 1238 0040 3B61     		str	r3, [r7, #16]
1192:.\Generated_Source\PSoC4/BLE_1.c ****                 maxLength = cyBle_scanRspData.scanRspDataLen;
 1239              		.loc 1 1192 0
 1240 0042 0F23     		mov	r3, #15
 1241 0044 FB18     		add	r3, r7, r3
 1242 0046 564A     		ldr	r2, .L71+4
 1243 0048 D27F     		ldrb	r2, [r2, #31]
 1244 004a 1A70     		strb	r2, [r3]
 1245              	.L57:
1193:.\Generated_Source\PSoC4/BLE_1.c ****             }
1194:.\Generated_Source\PSoC4/BLE_1.c ****             
1195:.\Generated_Source\PSoC4/BLE_1.c ****             while((byteCounter < maxLength) && (0u == flag))
ARM GAS  C:\Users\Matthew\AppData\Local\Temp\cc2Cvq26.s 			page 44


 1246              		.loc 1 1195 0
 1247 004c 35E0     		b	.L58
 1248              	.L64:
1196:.\Generated_Source\PSoC4/BLE_1.c ****             {
1197:.\Generated_Source\PSoC4/BLE_1.c ****                 adLength = destBuffer[byteCounter];
 1249              		.loc 1 1197 0
 1250 004e 1423     		mov	r3, #20
 1251 0050 FB18     		add	r3, r7, r3
 1252 0052 1B78     		ldrb	r3, [r3]
 1253 0054 3A69     		ldr	r2, [r7, #16]
 1254 0056 D218     		add	r2, r2, r3
 1255 0058 1523     		mov	r3, #21
 1256 005a FB18     		add	r3, r7, r3
 1257 005c 1278     		ldrb	r2, [r2]
 1258 005e 1A70     		strb	r2, [r3]
1198:.\Generated_Source\PSoC4/BLE_1.c ****                 
1199:.\Generated_Source\PSoC4/BLE_1.c ****                 if(0u != adLength)
 1259              		.loc 1 1199 0
 1260 0060 1523     		mov	r3, #21
 1261 0062 FB18     		add	r3, r7, r3
 1262 0064 1B78     		ldrb	r3, [r3]
 1263 0066 002B     		cmp	r3, #0
 1264 0068 26D0     		beq	.L59
1200:.\Generated_Source\PSoC4/BLE_1.c ****                 {
1201:.\Generated_Source\PSoC4/BLE_1.c ****                     /* Increment byte counter so it can point to AD type */
1202:.\Generated_Source\PSoC4/BLE_1.c ****                     byteCounter++;
 1265              		.loc 1 1202 0
 1266 006a 1423     		mov	r3, #20
 1267 006c FB18     		add	r3, r7, r3
 1268 006e 1A78     		ldrb	r2, [r3]
 1269 0070 1423     		mov	r3, #20
 1270 0072 FB18     		add	r3, r7, r3
 1271 0074 0132     		add	r2, r2, #1
 1272 0076 1A70     		strb	r2, [r3]
1203:.\Generated_Source\PSoC4/BLE_1.c ****                     
1204:.\Generated_Source\PSoC4/BLE_1.c ****                     if((CYBLE_SHORT_LOCAL_NAME == destBuffer[byteCounter]) || 
 1273              		.loc 1 1204 0
 1274 0078 1423     		mov	r3, #20
 1275 007a FB18     		add	r3, r7, r3
 1276 007c 1B78     		ldrb	r3, [r3]
 1277 007e 3A69     		ldr	r2, [r7, #16]
 1278 0080 D318     		add	r3, r2, r3
 1279 0082 1B78     		ldrb	r3, [r3]
 1280 0084 082B     		cmp	r3, #8
 1281 0086 07D0     		beq	.L60
1205:.\Generated_Source\PSoC4/BLE_1.c ****                        (CYBLE_COMPLETE_LOCAL_NAME == destBuffer[byteCounter]))
 1282              		.loc 1 1205 0 discriminator 1
 1283 0088 1423     		mov	r3, #20
 1284 008a FB18     		add	r3, r7, r3
 1285 008c 1B78     		ldrb	r3, [r3]
 1286 008e 3A69     		ldr	r2, [r7, #16]
 1287 0090 D318     		add	r3, r2, r3
 1288 0092 1B78     		ldrb	r3, [r3]
1204:.\Generated_Source\PSoC4/BLE_1.c ****                        (CYBLE_COMPLETE_LOCAL_NAME == destBuffer[byteCounter]))
 1289              		.loc 1 1204 0 discriminator 1
 1290 0094 092B     		cmp	r3, #9
 1291 0096 04D1     		bne	.L61
ARM GAS  C:\Users\Matthew\AppData\Local\Temp\cc2Cvq26.s 			page 45


 1292              	.L60:
1206:.\Generated_Source\PSoC4/BLE_1.c ****                     {
1207:.\Generated_Source\PSoC4/BLE_1.c ****                         /* Start of the Local Name AD type was fount. Set flag and exit the loop. *
1208:.\Generated_Source\PSoC4/BLE_1.c ****                         flag = 1u;
 1293              		.loc 1 1208 0
 1294 0098 1623     		mov	r3, #22
 1295 009a FB18     		add	r3, r7, r3
 1296 009c 0122     		mov	r2, #1
 1297 009e 1A70     		strb	r2, [r3]
 1298 00a0 09E0     		b	.L62
 1299              	.L61:
1209:.\Generated_Source\PSoC4/BLE_1.c ****                     }
1210:.\Generated_Source\PSoC4/BLE_1.c ****                     else
1211:.\Generated_Source\PSoC4/BLE_1.c ****                     {
1212:.\Generated_Source\PSoC4/BLE_1.c ****                         byteCounter += adLength;
 1300              		.loc 1 1212 0
 1301 00a2 1423     		mov	r3, #20
 1302 00a4 FB18     		add	r3, r7, r3
 1303 00a6 1422     		mov	r2, #20
 1304 00a8 B918     		add	r1, r7, r2
 1305 00aa 1522     		mov	r2, #21
 1306 00ac BA18     		add	r2, r7, r2
 1307 00ae 0978     		ldrb	r1, [r1]
 1308 00b0 1278     		ldrb	r2, [r2]
 1309 00b2 8A18     		add	r2, r1, r2
 1310 00b4 1A70     		strb	r2, [r3]
 1311              	.L62:
 1312 00b6 00E0     		b	.L58
 1313              	.L59:
1213:.\Generated_Source\PSoC4/BLE_1.c ****                     }
1214:.\Generated_Source\PSoC4/BLE_1.c ****                 }
1215:.\Generated_Source\PSoC4/BLE_1.c ****                 else
1216:.\Generated_Source\PSoC4/BLE_1.c ****                 {
1217:.\Generated_Source\PSoC4/BLE_1.c ****                     /* The end of advertisement data structure was encountered though exit the loop
1218:.\Generated_Source\PSoC4/BLE_1.c ****                     break;
 1314              		.loc 1 1218 0
 1315 00b8 0CE0     		b	.L63
 1316              	.L58:
1195:.\Generated_Source\PSoC4/BLE_1.c ****             {
 1317              		.loc 1 1195 0
 1318 00ba 1423     		mov	r3, #20
 1319 00bc FA18     		add	r2, r7, r3
 1320 00be 0F23     		mov	r3, #15
 1321 00c0 FB18     		add	r3, r7, r3
 1322 00c2 1278     		ldrb	r2, [r2]
 1323 00c4 1B78     		ldrb	r3, [r3]
 1324 00c6 9A42     		cmp	r2, r3
 1325 00c8 04D2     		bcs	.L63
1195:.\Generated_Source\PSoC4/BLE_1.c ****             {
 1326              		.loc 1 1195 0 is_stmt 0 discriminator 1
 1327 00ca 1623     		mov	r3, #22
 1328 00cc FB18     		add	r3, r7, r3
 1329 00ce 1B78     		ldrb	r3, [r3]
 1330 00d0 002B     		cmp	r3, #0
 1331 00d2 BCD0     		beq	.L64
 1332              	.L63:
1219:.\Generated_Source\PSoC4/BLE_1.c ****                 }
ARM GAS  C:\Users\Matthew\AppData\Local\Temp\cc2Cvq26.s 			page 46


1220:.\Generated_Source\PSoC4/BLE_1.c ****             }
1221:.\Generated_Source\PSoC4/BLE_1.c ****             
1222:.\Generated_Source\PSoC4/BLE_1.c ****             if(0u != flag)
 1333              		.loc 1 1222 0 is_stmt 1
 1334 00d4 1623     		mov	r3, #22
 1335 00d6 FB18     		add	r3, r7, r3
 1336 00d8 1B78     		ldrb	r3, [r3]
 1337 00da 002B     		cmp	r3, #0
 1338 00dc 5BD0     		beq	.L55
1223:.\Generated_Source\PSoC4/BLE_1.c ****             {
1224:.\Generated_Source\PSoC4/BLE_1.c ****                 /* Reuse "adLength" to hold location of the last character of local name in 
1225:.\Generated_Source\PSoC4/BLE_1.c ****                    AD structure. */
1226:.\Generated_Source\PSoC4/BLE_1.c ****                 adLength += byteCounter;
 1339              		.loc 1 1226 0
 1340 00de 1523     		mov	r3, #21
 1341 00e0 FB18     		add	r3, r7, r3
 1342 00e2 1522     		mov	r2, #21
 1343 00e4 B918     		add	r1, r7, r2
 1344 00e6 1422     		mov	r2, #20
 1345 00e8 BA18     		add	r2, r7, r2
 1346 00ea 0978     		ldrb	r1, [r1]
 1347 00ec 1278     		ldrb	r2, [r2]
 1348 00ee 8A18     		add	r2, r1, r2
 1349 00f0 1A70     		strb	r2, [r3]
1227:.\Generated_Source\PSoC4/BLE_1.c ****                 
1228:.\Generated_Source\PSoC4/BLE_1.c ****                 /* Increment byte counter to point to start of the local Name string */
1229:.\Generated_Source\PSoC4/BLE_1.c ****                 byteCounter++;
 1350              		.loc 1 1229 0
 1351 00f2 1423     		mov	r3, #20
 1352 00f4 FB18     		add	r3, r7, r3
 1353 00f6 1A78     		ldrb	r2, [r3]
 1354 00f8 1423     		mov	r3, #20
 1355 00fa FB18     		add	r3, r7, r3
 1356 00fc 0132     		add	r2, r2, #1
 1357 00fe 1A70     		strb	r2, [r3]
1230:.\Generated_Source\PSoC4/BLE_1.c ****                 
1231:.\Generated_Source\PSoC4/BLE_1.c ****                 for(i = byteCounter; ((i < (adLength)) && (CYBLE_NULL_CHARCTER != name[i - byteCoun
 1358              		.loc 1 1231 0
 1359 0100 1723     		mov	r3, #23
 1360 0102 FB18     		add	r3, r7, r3
 1361 0104 1422     		mov	r2, #20
 1362 0106 BA18     		add	r2, r7, r2
 1363 0108 1278     		ldrb	r2, [r2]
 1364 010a 1A70     		strb	r2, [r3]
 1365 010c 17E0     		b	.L66
 1366              	.L68:
1232:.\Generated_Source\PSoC4/BLE_1.c ****                 {
1233:.\Generated_Source\PSoC4/BLE_1.c ****                     destBuffer[i] = (uint8)name[i - byteCounter];
 1367              		.loc 1 1233 0 discriminator 4
 1368 010e 1723     		mov	r3, #23
 1369 0110 FB18     		add	r3, r7, r3
 1370 0112 1B78     		ldrb	r3, [r3]
 1371 0114 3A69     		ldr	r2, [r7, #16]
 1372 0116 D318     		add	r3, r2, r3
 1373 0118 1722     		mov	r2, #23
 1374 011a BA18     		add	r2, r7, r2
 1375 011c 1178     		ldrb	r1, [r2]
ARM GAS  C:\Users\Matthew\AppData\Local\Temp\cc2Cvq26.s 			page 47


 1376 011e 1422     		mov	r2, #20
 1377 0120 BA18     		add	r2, r7, r2
 1378 0122 1278     		ldrb	r2, [r2]
 1379 0124 8A1A     		sub	r2, r1, r2
 1380 0126 111C     		mov	r1, r2
 1381 0128 7A68     		ldr	r2, [r7, #4]
 1382 012a 5218     		add	r2, r2, r1
 1383 012c 1278     		ldrb	r2, [r2]
 1384 012e 1A70     		strb	r2, [r3]
1231:.\Generated_Source\PSoC4/BLE_1.c ****                 {
 1385              		.loc 1 1231 0 discriminator 4
 1386 0130 1723     		mov	r3, #23
 1387 0132 FB18     		add	r3, r7, r3
 1388 0134 1A78     		ldrb	r2, [r3]
 1389 0136 1723     		mov	r3, #23
 1390 0138 FB18     		add	r3, r7, r3
 1391 013a 0132     		add	r2, r2, #1
 1392 013c 1A70     		strb	r2, [r3]
 1393              	.L66:
1231:.\Generated_Source\PSoC4/BLE_1.c ****                 {
 1394              		.loc 1 1231 0 is_stmt 0 discriminator 1
 1395 013e 1723     		mov	r3, #23
 1396 0140 FA18     		add	r2, r7, r3
 1397 0142 1523     		mov	r3, #21
 1398 0144 FB18     		add	r3, r7, r3
 1399 0146 1278     		ldrb	r2, [r2]
 1400 0148 1B78     		ldrb	r3, [r3]
 1401 014a 9A42     		cmp	r2, r3
 1402 014c 0CD2     		bcs	.L67
1231:.\Generated_Source\PSoC4/BLE_1.c ****                 {
 1403              		.loc 1 1231 0 discriminator 3
 1404 014e 1723     		mov	r3, #23
 1405 0150 FB18     		add	r3, r7, r3
 1406 0152 1A78     		ldrb	r2, [r3]
 1407 0154 1423     		mov	r3, #20
 1408 0156 FB18     		add	r3, r7, r3
 1409 0158 1B78     		ldrb	r3, [r3]
 1410 015a D31A     		sub	r3, r2, r3
 1411 015c 1A1C     		mov	r2, r3
 1412 015e 7B68     		ldr	r3, [r7, #4]
 1413 0160 9B18     		add	r3, r3, r2
 1414 0162 1B78     		ldrb	r3, [r3]
 1415 0164 002B     		cmp	r3, #0
 1416 0166 D2D1     		bne	.L68
 1417              	.L67:
1234:.\Generated_Source\PSoC4/BLE_1.c ****                 }
1235:.\Generated_Source\PSoC4/BLE_1.c ****                 
1236:.\Generated_Source\PSoC4/BLE_1.c ****                 /* This loop handles the case when new local name is shorted than old one.
1237:.\Generated_Source\PSoC4/BLE_1.c ****                    In this case all remaining characters should be null characters. */
1238:.\Generated_Source\PSoC4/BLE_1.c ****                 while(adLength > i)
 1418              		.loc 1 1238 0 is_stmt 1
 1419 0168 0DE0     		b	.L69
 1420              	.L70:
1239:.\Generated_Source\PSoC4/BLE_1.c ****                 {
1240:.\Generated_Source\PSoC4/BLE_1.c ****                     /* Terminate string */
1241:.\Generated_Source\PSoC4/BLE_1.c ****                     destBuffer[i] = (uint8)CYBLE_NULL_CHARCTER;
 1421              		.loc 1 1241 0
ARM GAS  C:\Users\Matthew\AppData\Local\Temp\cc2Cvq26.s 			page 48


 1422 016a 1723     		mov	r3, #23
 1423 016c FB18     		add	r3, r7, r3
 1424 016e 1B78     		ldrb	r3, [r3]
 1425 0170 3A69     		ldr	r2, [r7, #16]
 1426 0172 D318     		add	r3, r2, r3
 1427 0174 0022     		mov	r2, #0
 1428 0176 1A70     		strb	r2, [r3]
1242:.\Generated_Source\PSoC4/BLE_1.c ****                     i++;
 1429              		.loc 1 1242 0
 1430 0178 1723     		mov	r3, #23
 1431 017a FB18     		add	r3, r7, r3
 1432 017c 1A78     		ldrb	r2, [r3]
 1433 017e 1723     		mov	r3, #23
 1434 0180 FB18     		add	r3, r7, r3
 1435 0182 0132     		add	r2, r2, #1
 1436 0184 1A70     		strb	r2, [r3]
 1437              	.L69:
1238:.\Generated_Source\PSoC4/BLE_1.c ****                 {
 1438              		.loc 1 1238 0
 1439 0186 1523     		mov	r3, #21
 1440 0188 FA18     		add	r2, r7, r3
 1441 018a 1723     		mov	r3, #23
 1442 018c FB18     		add	r3, r7, r3
 1443 018e 1278     		ldrb	r2, [r2]
 1444 0190 1B78     		ldrb	r3, [r3]
 1445 0192 9A42     		cmp	r2, r3
 1446 0194 E9D8     		bhi	.L70
 1447              	.L55:
1243:.\Generated_Source\PSoC4/BLE_1.c ****                 }
1244:.\Generated_Source\PSoC4/BLE_1.c ****             }
1245:.\Generated_Source\PSoC4/BLE_1.c ****         }
 1448              		.loc 1 1245 0
 1449 0196 BD46     		mov	sp, r7
 1450 0198 06B0     		add	sp, sp, #24
 1451              		@ sp needed
 1452 019a 80BD     		pop	{r7, pc}
 1453              	.L72:
 1454              		.align	2
 1455              	.L71:
 1456 019c 00000000 		.word	cyBle_discoveryData
 1457 01a0 00000000 		.word	cyBle_scanRspData
 1458              		.cfi_endproc
 1459              	.LFE11:
 1460              		.size	CyBle_ChangeAdLocalName, .-CyBle_ChangeAdLocalName
 1461              		.section	.text.CyBle_GapSetLocalName,"ax",%progbits
 1462              		.align	2
 1463              		.global	CyBle_GapSetLocalName
 1464              		.code	16
 1465              		.thumb_func
 1466              		.type	CyBle_GapSetLocalName, %function
 1467              	CyBle_GapSetLocalName:
 1468              	.LFB12:
1246:.\Generated_Source\PSoC4/BLE_1.c ****         
1247:.\Generated_Source\PSoC4/BLE_1.c **** #endif /* (CYBLE_GAP_ROLE_PERIPHERAL) */  
1248:.\Generated_Source\PSoC4/BLE_1.c ****     
1249:.\Generated_Source\PSoC4/BLE_1.c ****     
1250:.\Generated_Source\PSoC4/BLE_1.c ****     /******************************************************************************
ARM GAS  C:\Users\Matthew\AppData\Local\Temp\cc2Cvq26.s 			page 49


1251:.\Generated_Source\PSoC4/BLE_1.c ****     * Function Name: CyBle_GapSetLocalName
1252:.\Generated_Source\PSoC4/BLE_1.c ****     ***************************************************************************//**
1253:.\Generated_Source\PSoC4/BLE_1.c ****     *  This API is used to set the local device name - a Characteristic of the 
1254:.\Generated_Source\PSoC4/BLE_1.c ****     *  GAP Service. If the characteristic length entered in the component customizer
1255:.\Generated_Source\PSoC4/BLE_1.c ****     *  is shorter than the string specified by the "name" parameter, the local device
1256:.\Generated_Source\PSoC4/BLE_1.c ****     *  name will be cut to the length specified in the customizer.
1257:.\Generated_Source\PSoC4/BLE_1.c ****     * 
1258:.\Generated_Source\PSoC4/BLE_1.c ****     *  \param name: The local device name string. The name string to be written as
1259:.\Generated_Source\PSoC4/BLE_1.c ****     *              the local device name. It represents a UTF-8 encoded User
1260:.\Generated_Source\PSoC4/BLE_1.c ****     *              Friendly Descriptive Name for the device. The length of the local
1261:.\Generated_Source\PSoC4/BLE_1.c ****     *              device string is entered into the component customizer and it can
1262:.\Generated_Source\PSoC4/BLE_1.c ****     *              be set to a value from 0 to 248 bytes. If the name contained in
1263:.\Generated_Source\PSoC4/BLE_1.c ****     *              the parameter is shorter than the length from the customizer, the
1264:.\Generated_Source\PSoC4/BLE_1.c ****     *              end of the name is indicated by a NULL octet (0x00).
1265:.\Generated_Source\PSoC4/BLE_1.c ****     * 
1266:.\Generated_Source\PSoC4/BLE_1.c ****     * \return
1267:.\Generated_Source\PSoC4/BLE_1.c ****     *  CYBLE_API_RESULT_T : Return value indicates if the function succeeded or 
1268:.\Generated_Source\PSoC4/BLE_1.c ****     *  failed. Following are the possible error codes.
1269:.\Generated_Source\PSoC4/BLE_1.c ****     *
1270:.\Generated_Source\PSoC4/BLE_1.c ****     *   Errors codes                       | Description
1271:.\Generated_Source\PSoC4/BLE_1.c ****     *   ------------                       | -----------
1272:.\Generated_Source\PSoC4/BLE_1.c ****     *   CYBLE_ERROR_OK                     | Function completed successfully.
1273:.\Generated_Source\PSoC4/BLE_1.c ****     *   CYBLE_ERROR_INVALID_PARAMETER      | On specifying NULL as input parameter
1274:.\Generated_Source\PSoC4/BLE_1.c ****     *  
1275:.\Generated_Source\PSoC4/BLE_1.c ****     *******************************************************************************/
1276:.\Generated_Source\PSoC4/BLE_1.c ****     CYBLE_API_RESULT_T CyBle_GapSetLocalName(const char8 name[])
1277:.\Generated_Source\PSoC4/BLE_1.c ****     {
 1469              		.loc 1 1277 0
 1470              		.cfi_startproc
 1471 0000 80B5     		push	{r7, lr}
 1472              		.cfi_def_cfa_offset 8
 1473              		.cfi_offset 7, -8
 1474              		.cfi_offset 14, -4
 1475 0002 86B0     		sub	sp, sp, #24
 1476              		.cfi_def_cfa_offset 32
 1477 0004 00AF     		add	r7, sp, #0
 1478              		.cfi_def_cfa_register 7
 1479 0006 7860     		str	r0, [r7, #4]
1278:.\Generated_Source\PSoC4/BLE_1.c ****         CYBLE_API_RESULT_T apiResult = CYBLE_ERROR_OK;
 1480              		.loc 1 1278 0
 1481 0008 1623     		mov	r3, #22
 1482 000a FB18     		add	r3, r7, r3
 1483 000c 0022     		mov	r2, #0
 1484 000e 1A80     		strh	r2, [r3]
1279:.\Generated_Source\PSoC4/BLE_1.c ****         uint8 i;
1280:.\Generated_Source\PSoC4/BLE_1.c ****         char8 *ptr;
1281:.\Generated_Source\PSoC4/BLE_1.c ****         uint8 charLen;
1282:.\Generated_Source\PSoC4/BLE_1.c **** 
1283:.\Generated_Source\PSoC4/BLE_1.c ****         if(NULL != name)
 1485              		.loc 1 1283 0
 1486 0010 7B68     		ldr	r3, [r7, #4]
 1487 0012 002B     		cmp	r3, #0
 1488 0014 4AD0     		beq	.L74
1284:.\Generated_Source\PSoC4/BLE_1.c ****         {
1285:.\Generated_Source\PSoC4/BLE_1.c ****             /* Get the pointer to the Device Name characteristic  */
1286:.\Generated_Source\PSoC4/BLE_1.c ****             ptr = (char8 *) CYBLE_GATT_DB_ATTR_GET_ATTR_GEN_PTR(CYBLE_GAP_DEVICE_NAME_INDEX + 1u);
 1489              		.loc 1 1286 0
ARM GAS  C:\Users\Matthew\AppData\Local\Temp\cc2Cvq26.s 			page 50


 1490 0016 2B4B     		ldr	r3, .L81
 1491 0018 9B6B     		ldr	r3, [r3, #56]
 1492 001a 5B68     		ldr	r3, [r3, #4]
 1493 001c 3B61     		str	r3, [r7, #16]
1287:.\Generated_Source\PSoC4/BLE_1.c **** 
1288:.\Generated_Source\PSoC4/BLE_1.c ****             /* First need to get the maximum length of the characteristic data in the GATT
1289:.\Generated_Source\PSoC4/BLE_1.c ****                 database to make sure there is enough place for the data. The length
1290:.\Generated_Source\PSoC4/BLE_1.c ****                 can't be longer than 248, so only the LSB of 16 bit of length is to
1291:.\Generated_Source\PSoC4/BLE_1.c ****                 be used. */
1292:.\Generated_Source\PSoC4/BLE_1.c ****             charLen = (uint8)CYBLE_GATT_DB_ATTR_GET_ATTR_GEN_MAX_LEN(CYBLE_GAP_DEVICE_NAME_INDEX + 
 1494              		.loc 1 1292 0
 1495 001e 294B     		ldr	r3, .L81
 1496 0020 9A8E     		ldrh	r2, [r3, #52]
 1497 0022 0F23     		mov	r3, #15
 1498 0024 FB18     		add	r3, r7, r3
 1499 0026 1A70     		strb	r2, [r3]
1293:.\Generated_Source\PSoC4/BLE_1.c **** 
1294:.\Generated_Source\PSoC4/BLE_1.c ****             /* Copy name into characteristic */
1295:.\Generated_Source\PSoC4/BLE_1.c ****             for(i = 0u; ((i < charLen) && (CYBLE_NULL_CHARCTER != name[i])); i++)
 1500              		.loc 1 1295 0
 1501 0028 1523     		mov	r3, #21
 1502 002a FB18     		add	r3, r7, r3
 1503 002c 0022     		mov	r2, #0
 1504 002e 1A70     		strb	r2, [r3]
 1505 0030 12E0     		b	.L75
 1506              	.L77:
1296:.\Generated_Source\PSoC4/BLE_1.c ****             {
1297:.\Generated_Source\PSoC4/BLE_1.c ****                 ptr[i] = name[i];
 1507              		.loc 1 1297 0 discriminator 4
 1508 0032 1523     		mov	r3, #21
 1509 0034 FB18     		add	r3, r7, r3
 1510 0036 1B78     		ldrb	r3, [r3]
 1511 0038 3A69     		ldr	r2, [r7, #16]
 1512 003a D318     		add	r3, r2, r3
 1513 003c 1522     		mov	r2, #21
 1514 003e BA18     		add	r2, r7, r2
 1515 0040 1278     		ldrb	r2, [r2]
 1516 0042 7968     		ldr	r1, [r7, #4]
 1517 0044 8A18     		add	r2, r1, r2
 1518 0046 1278     		ldrb	r2, [r2]
 1519 0048 1A70     		strb	r2, [r3]
1295:.\Generated_Source\PSoC4/BLE_1.c ****             {
 1520              		.loc 1 1295 0 discriminator 4
 1521 004a 1523     		mov	r3, #21
 1522 004c FB18     		add	r3, r7, r3
 1523 004e 1A78     		ldrb	r2, [r3]
 1524 0050 1523     		mov	r3, #21
 1525 0052 FB18     		add	r3, r7, r3
 1526 0054 0132     		add	r2, r2, #1
 1527 0056 1A70     		strb	r2, [r3]
 1528              	.L75:
1295:.\Generated_Source\PSoC4/BLE_1.c ****             {
 1529              		.loc 1 1295 0 is_stmt 0 discriminator 1
 1530 0058 1523     		mov	r3, #21
 1531 005a FA18     		add	r2, r7, r3
 1532 005c 0F23     		mov	r3, #15
 1533 005e FB18     		add	r3, r7, r3
ARM GAS  C:\Users\Matthew\AppData\Local\Temp\cc2Cvq26.s 			page 51


 1534 0060 1278     		ldrb	r2, [r2]
 1535 0062 1B78     		ldrb	r3, [r3]
 1536 0064 9A42     		cmp	r2, r3
 1537 0066 07D2     		bcs	.L76
1295:.\Generated_Source\PSoC4/BLE_1.c ****             {
 1538              		.loc 1 1295 0 discriminator 3
 1539 0068 1523     		mov	r3, #21
 1540 006a FB18     		add	r3, r7, r3
 1541 006c 1B78     		ldrb	r3, [r3]
 1542 006e 7A68     		ldr	r2, [r7, #4]
 1543 0070 D318     		add	r3, r2, r3
 1544 0072 1B78     		ldrb	r3, [r3]
 1545 0074 002B     		cmp	r3, #0
 1546 0076 DCD1     		bne	.L77
 1547              	.L76:
1298:.\Generated_Source\PSoC4/BLE_1.c ****             }
1299:.\Generated_Source\PSoC4/BLE_1.c **** 
1300:.\Generated_Source\PSoC4/BLE_1.c ****             if(i < charLen)
 1548              		.loc 1 1300 0 is_stmt 1
 1549 0078 1523     		mov	r3, #21
 1550 007a FA18     		add	r2, r7, r3
 1551 007c 0F23     		mov	r3, #15
 1552 007e FB18     		add	r3, r7, r3
 1553 0080 1278     		ldrb	r2, [r2]
 1554 0082 1B78     		ldrb	r3, [r3]
 1555 0084 9A42     		cmp	r2, r3
 1556 0086 06D2     		bcs	.L78
1301:.\Generated_Source\PSoC4/BLE_1.c ****             {
1302:.\Generated_Source\PSoC4/BLE_1.c ****                 /* Terminate string */
1303:.\Generated_Source\PSoC4/BLE_1.c ****                 ptr[i] = CYBLE_NULL_CHARCTER;
 1557              		.loc 1 1303 0
 1558 0088 1523     		mov	r3, #21
 1559 008a FB18     		add	r3, r7, r3
 1560 008c 1B78     		ldrb	r3, [r3]
 1561 008e 3A69     		ldr	r2, [r7, #16]
 1562 0090 D318     		add	r3, r2, r3
 1563 0092 0022     		mov	r2, #0
 1564 0094 1A70     		strb	r2, [r3]
 1565              	.L78:
1304:.\Generated_Source\PSoC4/BLE_1.c ****             }
1305:.\Generated_Source\PSoC4/BLE_1.c ****             
1306:.\Generated_Source\PSoC4/BLE_1.c ****             /* Set new actual length */
1307:.\Generated_Source\PSoC4/BLE_1.c ****             
1308:.\Generated_Source\PSoC4/BLE_1.c ****             /* Update device name in advertising and scan response structure */
1309:.\Generated_Source\PSoC4/BLE_1.c ****             #if(CYBLE_GAP_ROLE_PERIPHERAL)
1310:.\Generated_Source\PSoC4/BLE_1.c ****                 CyBle_ChangeAdLocalName(name, 0u);
 1566              		.loc 1 1310 0
 1567 0096 7B68     		ldr	r3, [r7, #4]
 1568 0098 181C     		mov	r0, r3
 1569 009a 0021     		mov	r1, #0
 1570 009c FFF7FEFF 		bl	CyBle_ChangeAdLocalName
1311:.\Generated_Source\PSoC4/BLE_1.c ****                 CyBle_ChangeAdLocalName(name, 1u);
 1571              		.loc 1 1311 0
 1572 00a0 7B68     		ldr	r3, [r7, #4]
 1573 00a2 181C     		mov	r0, r3
 1574 00a4 0121     		mov	r1, #1
 1575 00a6 FFF7FEFF 		bl	CyBle_ChangeAdLocalName
ARM GAS  C:\Users\Matthew\AppData\Local\Temp\cc2Cvq26.s 			page 52


 1576 00aa 03E0     		b	.L79
 1577              	.L74:
1312:.\Generated_Source\PSoC4/BLE_1.c ****             #endif /* (CYBLE_GAP_ROLE_PERIPHERAL) */
1313:.\Generated_Source\PSoC4/BLE_1.c ****         }
1314:.\Generated_Source\PSoC4/BLE_1.c ****         else
1315:.\Generated_Source\PSoC4/BLE_1.c ****         {
1316:.\Generated_Source\PSoC4/BLE_1.c ****             apiResult = CYBLE_ERROR_INVALID_PARAMETER;
 1578              		.loc 1 1316 0
 1579 00ac 1623     		mov	r3, #22
 1580 00ae FB18     		add	r3, r7, r3
 1581 00b0 0122     		mov	r2, #1
 1582 00b2 1A80     		strh	r2, [r3]
 1583              	.L79:
1317:.\Generated_Source\PSoC4/BLE_1.c ****         }
1318:.\Generated_Source\PSoC4/BLE_1.c ****         
1319:.\Generated_Source\PSoC4/BLE_1.c ****         return(apiResult);
 1584              		.loc 1 1319 0
 1585 00b4 1623     		mov	r3, #22
 1586 00b6 FB18     		add	r3, r7, r3
 1587 00b8 1B88     		ldrh	r3, [r3]
1320:.\Generated_Source\PSoC4/BLE_1.c ****     }
 1588              		.loc 1 1320 0
 1589 00ba 181C     		mov	r0, r3
 1590 00bc BD46     		mov	sp, r7
 1591 00be 06B0     		add	sp, sp, #24
 1592              		@ sp needed
 1593 00c0 80BD     		pop	{r7, pc}
 1594              	.L82:
 1595 00c2 C046     		.align	2
 1596              	.L81:
 1597 00c4 00000000 		.word	cyBle_gattDB
 1598              		.cfi_endproc
 1599              	.LFE12:
 1600              		.size	CyBle_GapSetLocalName, .-CyBle_GapSetLocalName
 1601              		.section	.text.CyBle_GapGetLocalName,"ax",%progbits
 1602              		.align	2
 1603              		.global	CyBle_GapGetLocalName
 1604              		.code	16
 1605              		.thumb_func
 1606              		.type	CyBle_GapGetLocalName, %function
 1607              	CyBle_GapGetLocalName:
 1608              	.LFB13:
1321:.\Generated_Source\PSoC4/BLE_1.c **** 
1322:.\Generated_Source\PSoC4/BLE_1.c **** 
1323:.\Generated_Source\PSoC4/BLE_1.c ****     /******************************************************************************
1324:.\Generated_Source\PSoC4/BLE_1.c ****     * Function Name: CyBle_GapGetLocalName
1325:.\Generated_Source\PSoC4/BLE_1.c ****     ***************************************************************************//**
1326:.\Generated_Source\PSoC4/BLE_1.c ****     *  
1327:.\Generated_Source\PSoC4/BLE_1.c ****     *  This API is used to read the local device name - a Characteristic of the 
1328:.\Generated_Source\PSoC4/BLE_1.c ****     *  GAP Service.
1329:.\Generated_Source\PSoC4/BLE_1.c ****     * 
1330:.\Generated_Source\PSoC4/BLE_1.c ****     * \param name: The local device name string. Used to read the local name to the
1331:.\Generated_Source\PSoC4/BLE_1.c ****     *             given string array. It represents a UTF-8 encoded User Friendly 
1332:.\Generated_Source\PSoC4/BLE_1.c ****     *             Descriptive Name for the device. The length of the local device
1333:.\Generated_Source\PSoC4/BLE_1.c ****     *             string is entered into the component customizer and it can be set
1334:.\Generated_Source\PSoC4/BLE_1.c ****     *             to a value from 0 to 248 bytes. If the name contained in the
1335:.\Generated_Source\PSoC4/BLE_1.c ****     *             parameter is shorter than the length from the customizer, the end
ARM GAS  C:\Users\Matthew\AppData\Local\Temp\cc2Cvq26.s 			page 53


1336:.\Generated_Source\PSoC4/BLE_1.c ****     *             of the name is indicated by a NULL octet (0x00).
1337:.\Generated_Source\PSoC4/BLE_1.c ****     * 
1338:.\Generated_Source\PSoC4/BLE_1.c ****     * \return
1339:.\Generated_Source\PSoC4/BLE_1.c ****     *  CYBLE_API_RESULT_T : Return value indicates if the function succeeded or 
1340:.\Generated_Source\PSoC4/BLE_1.c ****     *  failed. Following are the possible error codes.
1341:.\Generated_Source\PSoC4/BLE_1.c ****     *
1342:.\Generated_Source\PSoC4/BLE_1.c ****     *   Errors codes                       | Description
1343:.\Generated_Source\PSoC4/BLE_1.c ****     *   ------------                       | -----------
1344:.\Generated_Source\PSoC4/BLE_1.c ****     *   CYBLE_ERROR_OK                     | Function completed successfully.
1345:.\Generated_Source\PSoC4/BLE_1.c ****     *   CYBLE_ERROR_INVALID_PARAMETER      | On specifying NULL as input parameter
1346:.\Generated_Source\PSoC4/BLE_1.c ****     *
1347:.\Generated_Source\PSoC4/BLE_1.c ****     *******************************************************************************/
1348:.\Generated_Source\PSoC4/BLE_1.c ****     CYBLE_API_RESULT_T CyBle_GapGetLocalName(char8 name[])
1349:.\Generated_Source\PSoC4/BLE_1.c ****     {
 1609              		.loc 1 1349 0
 1610              		.cfi_startproc
 1611 0000 80B5     		push	{r7, lr}
 1612              		.cfi_def_cfa_offset 8
 1613              		.cfi_offset 7, -8
 1614              		.cfi_offset 14, -4
 1615 0002 86B0     		sub	sp, sp, #24
 1616              		.cfi_def_cfa_offset 32
 1617 0004 00AF     		add	r7, sp, #0
 1618              		.cfi_def_cfa_register 7
 1619 0006 7860     		str	r0, [r7, #4]
1350:.\Generated_Source\PSoC4/BLE_1.c ****         CYBLE_API_RESULT_T apiResult = CYBLE_ERROR_OK;
 1620              		.loc 1 1350 0
 1621 0008 1623     		mov	r3, #22
 1622 000a FB18     		add	r3, r7, r3
 1623 000c 0022     		mov	r2, #0
 1624 000e 1A80     		strh	r2, [r3]
1351:.\Generated_Source\PSoC4/BLE_1.c ****         uint8 charLen;
1352:.\Generated_Source\PSoC4/BLE_1.c ****         uint8 i;
1353:.\Generated_Source\PSoC4/BLE_1.c ****         char8 *ptr;
1354:.\Generated_Source\PSoC4/BLE_1.c **** 
1355:.\Generated_Source\PSoC4/BLE_1.c ****         if(NULL != name)
 1625              		.loc 1 1355 0
 1626 0010 7B68     		ldr	r3, [r7, #4]
 1627 0012 002B     		cmp	r3, #0
 1628 0014 39D0     		beq	.L84
1356:.\Generated_Source\PSoC4/BLE_1.c ****         {
1357:.\Generated_Source\PSoC4/BLE_1.c ****             /* Get the pointer to the Device Name characteristic  */
1358:.\Generated_Source\PSoC4/BLE_1.c ****             ptr = (char8 *) CYBLE_GATT_DB_ATTR_GET_ATTR_GEN_PTR(CYBLE_GAP_DEVICE_NAME_INDEX + 1u);
 1629              		.loc 1 1358 0
 1630 0016 224B     		ldr	r3, .L90
 1631 0018 9B6B     		ldr	r3, [r3, #56]
 1632 001a 5B68     		ldr	r3, [r3, #4]
 1633 001c 3B61     		str	r3, [r7, #16]
1359:.\Generated_Source\PSoC4/BLE_1.c **** 
1360:.\Generated_Source\PSoC4/BLE_1.c ****             /* First need to get the length of the characteristic data in the GATT
1361:.\Generated_Source\PSoC4/BLE_1.c ****                 database to make sure there is enough place for the data. The length
1362:.\Generated_Source\PSoC4/BLE_1.c ****                 can't be longer than 248, so only the LSB of 16 bit of length is to
1363:.\Generated_Source\PSoC4/BLE_1.c ****                 be used. */
1364:.\Generated_Source\PSoC4/BLE_1.c ****             charLen = (uint8)CYBLE_GATT_DB_ATTR_GET_ATTR_GEN_LEN(CYBLE_GAP_DEVICE_NAME_INDEX + 1u);
 1634              		.loc 1 1364 0
 1635 001e 204B     		ldr	r3, .L90
 1636 0020 9B6B     		ldr	r3, [r3, #56]
ARM GAS  C:\Users\Matthew\AppData\Local\Temp\cc2Cvq26.s 			page 54


 1637 0022 1A88     		ldrh	r2, [r3]
 1638 0024 0F23     		mov	r3, #15
 1639 0026 FB18     		add	r3, r7, r3
 1640 0028 1A70     		strb	r2, [r3]
1365:.\Generated_Source\PSoC4/BLE_1.c **** 
1366:.\Generated_Source\PSoC4/BLE_1.c ****             /* Copy name from characteristic */
1367:.\Generated_Source\PSoC4/BLE_1.c ****             for(i = 0u; ((i < charLen) && (CYBLE_NULL_CHARCTER != ptr[i])); i++)
 1641              		.loc 1 1367 0
 1642 002a 1523     		mov	r3, #21
 1643 002c FB18     		add	r3, r7, r3
 1644 002e 0022     		mov	r2, #0
 1645 0030 1A70     		strb	r2, [r3]
 1646 0032 12E0     		b	.L85
 1647              	.L87:
1368:.\Generated_Source\PSoC4/BLE_1.c ****             {
1369:.\Generated_Source\PSoC4/BLE_1.c ****                 name[i] = ptr[i];
 1648              		.loc 1 1369 0 discriminator 4
 1649 0034 1523     		mov	r3, #21
 1650 0036 FB18     		add	r3, r7, r3
 1651 0038 1B78     		ldrb	r3, [r3]
 1652 003a 7A68     		ldr	r2, [r7, #4]
 1653 003c D318     		add	r3, r2, r3
 1654 003e 1522     		mov	r2, #21
 1655 0040 BA18     		add	r2, r7, r2
 1656 0042 1278     		ldrb	r2, [r2]
 1657 0044 3969     		ldr	r1, [r7, #16]
 1658 0046 8A18     		add	r2, r1, r2
 1659 0048 1278     		ldrb	r2, [r2]
 1660 004a 1A70     		strb	r2, [r3]
1367:.\Generated_Source\PSoC4/BLE_1.c ****             {
 1661              		.loc 1 1367 0 discriminator 4
 1662 004c 1523     		mov	r3, #21
 1663 004e FB18     		add	r3, r7, r3
 1664 0050 1A78     		ldrb	r2, [r3]
 1665 0052 1523     		mov	r3, #21
 1666 0054 FB18     		add	r3, r7, r3
 1667 0056 0132     		add	r2, r2, #1
 1668 0058 1A70     		strb	r2, [r3]
 1669              	.L85:
1367:.\Generated_Source\PSoC4/BLE_1.c ****             {
 1670              		.loc 1 1367 0 is_stmt 0 discriminator 1
 1671 005a 1523     		mov	r3, #21
 1672 005c FA18     		add	r2, r7, r3
 1673 005e 0F23     		mov	r3, #15
 1674 0060 FB18     		add	r3, r7, r3
 1675 0062 1278     		ldrb	r2, [r2]
 1676 0064 1B78     		ldrb	r3, [r3]
 1677 0066 9A42     		cmp	r2, r3
 1678 0068 07D2     		bcs	.L86
1367:.\Generated_Source\PSoC4/BLE_1.c ****             {
 1679              		.loc 1 1367 0 discriminator 3
 1680 006a 1523     		mov	r3, #21
 1681 006c FB18     		add	r3, r7, r3
 1682 006e 1B78     		ldrb	r3, [r3]
 1683 0070 3A69     		ldr	r2, [r7, #16]
 1684 0072 D318     		add	r3, r2, r3
 1685 0074 1B78     		ldrb	r3, [r3]
ARM GAS  C:\Users\Matthew\AppData\Local\Temp\cc2Cvq26.s 			page 55


 1686 0076 002B     		cmp	r3, #0
 1687 0078 DCD1     		bne	.L87
 1688              	.L86:
1370:.\Generated_Source\PSoC4/BLE_1.c ****             }
1371:.\Generated_Source\PSoC4/BLE_1.c **** 
1372:.\Generated_Source\PSoC4/BLE_1.c ****             /* Terminate string */
1373:.\Generated_Source\PSoC4/BLE_1.c ****             name[i] = CYBLE_NULL_CHARCTER;
 1689              		.loc 1 1373 0 is_stmt 1
 1690 007a 1523     		mov	r3, #21
 1691 007c FB18     		add	r3, r7, r3
 1692 007e 1B78     		ldrb	r3, [r3]
 1693 0080 7A68     		ldr	r2, [r7, #4]
 1694 0082 D318     		add	r3, r2, r3
 1695 0084 0022     		mov	r2, #0
 1696 0086 1A70     		strb	r2, [r3]
 1697 0088 03E0     		b	.L88
 1698              	.L84:
1374:.\Generated_Source\PSoC4/BLE_1.c ****         }
1375:.\Generated_Source\PSoC4/BLE_1.c ****         else
1376:.\Generated_Source\PSoC4/BLE_1.c ****         {
1377:.\Generated_Source\PSoC4/BLE_1.c ****             apiResult = CYBLE_ERROR_INVALID_PARAMETER;
 1699              		.loc 1 1377 0
 1700 008a 1623     		mov	r3, #22
 1701 008c FB18     		add	r3, r7, r3
 1702 008e 0122     		mov	r2, #1
 1703 0090 1A80     		strh	r2, [r3]
 1704              	.L88:
1378:.\Generated_Source\PSoC4/BLE_1.c ****         }
1379:.\Generated_Source\PSoC4/BLE_1.c ****         
1380:.\Generated_Source\PSoC4/BLE_1.c ****         return(apiResult);
 1705              		.loc 1 1380 0
 1706 0092 1623     		mov	r3, #22
 1707 0094 FB18     		add	r3, r7, r3
 1708 0096 1B88     		ldrh	r3, [r3]
1381:.\Generated_Source\PSoC4/BLE_1.c ****     }
 1709              		.loc 1 1381 0
 1710 0098 181C     		mov	r0, r3
 1711 009a BD46     		mov	sp, r7
 1712 009c 06B0     		add	sp, sp, #24
 1713              		@ sp needed
 1714 009e 80BD     		pop	{r7, pc}
 1715              	.L91:
 1716              		.align	2
 1717              	.L90:
 1718 00a0 00000000 		.word	cyBle_gattDB
 1719              		.cfi_endproc
 1720              	.LFE13:
 1721              		.size	CyBle_GapGetLocalName, .-CyBle_GapGetLocalName
 1722              		.section	.text.CyBle_Get16ByPtr,"ax",%progbits
 1723              		.align	2
 1724              		.global	CyBle_Get16ByPtr
 1725              		.code	16
 1726              		.thumb_func
 1727              		.type	CyBle_Get16ByPtr, %function
 1728              	CyBle_Get16ByPtr:
 1729              	.LFB14:
1382:.\Generated_Source\PSoC4/BLE_1.c **** 
ARM GAS  C:\Users\Matthew\AppData\Local\Temp\cc2Cvq26.s 			page 56


1383:.\Generated_Source\PSoC4/BLE_1.c **** #endif /* (CYBLE_GATT_ROLE_SERVER) */
1384:.\Generated_Source\PSoC4/BLE_1.c **** 
1385:.\Generated_Source\PSoC4/BLE_1.c **** 
1386:.\Generated_Source\PSoC4/BLE_1.c **** /******************************************************************************
1387:.\Generated_Source\PSoC4/BLE_1.c **** * Function Name: CyBle_Get16ByPtr
1388:.\Generated_Source\PSoC4/BLE_1.c **** ***************************************************************************//**
1389:.\Generated_Source\PSoC4/BLE_1.c **** * 
1390:.\Generated_Source\PSoC4/BLE_1.c **** *  Returns the two-bytes value by using a pointer to the LSB.
1391:.\Generated_Source\PSoC4/BLE_1.c **** * 
1392:.\Generated_Source\PSoC4/BLE_1.c **** *  \param ptr: Pointer to the LSB of two-bytes data (little endian).
1393:.\Generated_Source\PSoC4/BLE_1.c **** * 
1394:.\Generated_Source\PSoC4/BLE_1.c **** *  \return
1395:.\Generated_Source\PSoC4/BLE_1.c **** *  uint16: Two-bytes data.
1396:.\Generated_Source\PSoC4/BLE_1.c **** * 
1397:.\Generated_Source\PSoC4/BLE_1.c **** ******************************************************************************/
1398:.\Generated_Source\PSoC4/BLE_1.c **** uint16 CyBle_Get16ByPtr(const uint8 ptr[])
1399:.\Generated_Source\PSoC4/BLE_1.c **** {
 1730              		.loc 1 1399 0
 1731              		.cfi_startproc
 1732 0000 80B5     		push	{r7, lr}
 1733              		.cfi_def_cfa_offset 8
 1734              		.cfi_offset 7, -8
 1735              		.cfi_offset 14, -4
 1736 0002 82B0     		sub	sp, sp, #8
 1737              		.cfi_def_cfa_offset 16
 1738 0004 00AF     		add	r7, sp, #0
 1739              		.cfi_def_cfa_register 7
 1740 0006 7860     		str	r0, [r7, #4]
1400:.\Generated_Source\PSoC4/BLE_1.c ****     return ((uint16) ptr[0u] | ((uint16) (((uint16) ptr[1u]) << 8u)));
 1741              		.loc 1 1400 0
 1742 0008 7B68     		ldr	r3, [r7, #4]
 1743 000a 1B78     		ldrb	r3, [r3]
 1744 000c 9AB2     		uxth	r2, r3
 1745 000e 7B68     		ldr	r3, [r7, #4]
 1746 0010 0133     		add	r3, r3, #1
 1747 0012 1B78     		ldrb	r3, [r3]
 1748 0014 9BB2     		uxth	r3, r3
 1749 0016 1B02     		lsl	r3, r3, #8
 1750 0018 9BB2     		uxth	r3, r3
 1751 001a 1343     		orr	r3, r2
 1752 001c 9BB2     		uxth	r3, r3
1401:.\Generated_Source\PSoC4/BLE_1.c **** }
 1753              		.loc 1 1401 0
 1754 001e 181C     		mov	r0, r3
 1755 0020 BD46     		mov	sp, r7
 1756 0022 02B0     		add	sp, sp, #8
 1757              		@ sp needed
 1758 0024 80BD     		pop	{r7, pc}
 1759              		.cfi_endproc
 1760              	.LFE14:
 1761              		.size	CyBle_Get16ByPtr, .-CyBle_Get16ByPtr
 1762 0026 C046     		.section	.text.CyBle_Set16ByPtr,"ax",%progbits
 1763              		.align	2
 1764              		.global	CyBle_Set16ByPtr
 1765              		.code	16
 1766              		.thumb_func
 1767              		.type	CyBle_Set16ByPtr, %function
ARM GAS  C:\Users\Matthew\AppData\Local\Temp\cc2Cvq26.s 			page 57


 1768              	CyBle_Set16ByPtr:
 1769              	.LFB15:
1402:.\Generated_Source\PSoC4/BLE_1.c **** 
1403:.\Generated_Source\PSoC4/BLE_1.c **** 
1404:.\Generated_Source\PSoC4/BLE_1.c **** /******************************************************************************
1405:.\Generated_Source\PSoC4/BLE_1.c **** * Function Name: CyBle_Set16ByPtr
1406:.\Generated_Source\PSoC4/BLE_1.c **** ***************************************************************************//**
1407:.\Generated_Source\PSoC4/BLE_1.c **** * 
1408:.\Generated_Source\PSoC4/BLE_1.c **** *  Sets the two-bytes value by using a pointer to the LSB.
1409:.\Generated_Source\PSoC4/BLE_1.c **** * 
1410:.\Generated_Source\PSoC4/BLE_1.c **** *  \param ptr:    Pointer to the LSB of two-bytes data (little endian).
1411:.\Generated_Source\PSoC4/BLE_1.c **** *  \param value:  Two-bytes data to be written.
1412:.\Generated_Source\PSoC4/BLE_1.c **** * 
1413:.\Generated_Source\PSoC4/BLE_1.c **** *  \return
1414:.\Generated_Source\PSoC4/BLE_1.c **** *  None
1415:.\Generated_Source\PSoC4/BLE_1.c **** * 
1416:.\Generated_Source\PSoC4/BLE_1.c **** ******************************************************************************/
1417:.\Generated_Source\PSoC4/BLE_1.c **** void CyBle_Set16ByPtr(uint8 ptr[], uint16 value)
1418:.\Generated_Source\PSoC4/BLE_1.c **** {
 1770              		.loc 1 1418 0
 1771              		.cfi_startproc
 1772 0000 80B5     		push	{r7, lr}
 1773              		.cfi_def_cfa_offset 8
 1774              		.cfi_offset 7, -8
 1775              		.cfi_offset 14, -4
 1776 0002 82B0     		sub	sp, sp, #8
 1777              		.cfi_def_cfa_offset 16
 1778 0004 00AF     		add	r7, sp, #0
 1779              		.cfi_def_cfa_register 7
 1780 0006 7860     		str	r0, [r7, #4]
 1781 0008 0A1C     		mov	r2, r1
 1782 000a BB1C     		add	r3, r7, #2
 1783 000c 1A80     		strh	r2, [r3]
1419:.\Generated_Source\PSoC4/BLE_1.c ****     ptr[0u] = (uint8) value;
 1784              		.loc 1 1419 0
 1785 000e BB1C     		add	r3, r7, #2
 1786 0010 1B88     		ldrh	r3, [r3]
 1787 0012 DAB2     		uxtb	r2, r3
 1788 0014 7B68     		ldr	r3, [r7, #4]
 1789 0016 1A70     		strb	r2, [r3]
1420:.\Generated_Source\PSoC4/BLE_1.c ****     ptr[1u] = (uint8) (value >> 8u);
 1790              		.loc 1 1420 0
 1791 0018 7B68     		ldr	r3, [r7, #4]
 1792 001a 0133     		add	r3, r3, #1
 1793 001c BA1C     		add	r2, r7, #2
 1794 001e 1288     		ldrh	r2, [r2]
 1795 0020 120A     		lsr	r2, r2, #8
 1796 0022 92B2     		uxth	r2, r2
 1797 0024 D2B2     		uxtb	r2, r2
 1798 0026 1A70     		strb	r2, [r3]
1421:.\Generated_Source\PSoC4/BLE_1.c **** }
 1799              		.loc 1 1421 0
 1800 0028 BD46     		mov	sp, r7
 1801 002a 02B0     		add	sp, sp, #8
 1802              		@ sp needed
 1803 002c 80BD     		pop	{r7, pc}
 1804              		.cfi_endproc
ARM GAS  C:\Users\Matthew\AppData\Local\Temp\cc2Cvq26.s 			page 58


 1805              	.LFE15:
 1806              		.size	CyBle_Set16ByPtr, .-CyBle_Set16ByPtr
 1807 002e C046     		.text
 1808              	.Letext0:
 1809              		.file 2 ".\\Generated_Source\\PSoC4\\cytypes.h"
 1810              		.file 3 ".\\Generated_Source\\PSoC4\\BLE_1_Stack.h"
 1811              		.file 4 ".\\Generated_Source\\PSoC4\\BLE_1_StackGap.h"
 1812              		.file 5 ".\\Generated_Source\\PSoC4\\BLE_1_StackGatt.h"
 1813              		.file 6 ".\\Generated_Source\\PSoC4\\BLE_1_StackGattDb.h"
 1814              		.file 7 ".\\Generated_Source\\PSoC4\\BLE_1.h"
 1815              		.file 8 ".\\Generated_Source\\PSoC4\\BLE_1_gatt.h"
 1816              		.file 9 ".\\Generated_Source\\PSoC4\\BLE_1_eventHandler.h"
 1817              		.section	.debug_info,"",%progbits
 1818              	.Ldebug_info0:
 1819 0000 530D0000 		.4byte	0xd53
 1820 0004 0400     		.2byte	0x4
 1821 0006 00000000 		.4byte	.Ldebug_abbrev0
 1822 000a 04       		.byte	0x4
 1823 000b 01       		.uleb128 0x1
 1824 000c 90140000 		.4byte	.LASF241
 1825 0010 01       		.byte	0x1
 1826 0011 E0100000 		.4byte	.LASF242
 1827 0015 06080000 		.4byte	.LASF243
 1828 0019 00000000 		.4byte	.Ldebug_ranges0+0
 1829 001d 00000000 		.4byte	0
 1830 0021 00000000 		.4byte	.Ldebug_line0
 1831 0025 02       		.uleb128 0x2
 1832 0026 01       		.byte	0x1
 1833 0027 06       		.byte	0x6
 1834 0028 B5040000 		.4byte	.LASF0
 1835 002c 02       		.uleb128 0x2
 1836 002d 01       		.byte	0x1
 1837 002e 08       		.byte	0x8
 1838 002f D60E0000 		.4byte	.LASF1
 1839 0033 02       		.uleb128 0x2
 1840 0034 02       		.byte	0x2
 1841 0035 05       		.byte	0x5
 1842 0036 440F0000 		.4byte	.LASF2
 1843 003a 02       		.uleb128 0x2
 1844 003b 02       		.byte	0x2
 1845 003c 07       		.byte	0x7
 1846 003d 80120000 		.4byte	.LASF3
 1847 0041 02       		.uleb128 0x2
 1848 0042 04       		.byte	0x4
 1849 0043 05       		.byte	0x5
 1850 0044 91020000 		.4byte	.LASF4
 1851 0048 02       		.uleb128 0x2
 1852 0049 04       		.byte	0x4
 1853 004a 07       		.byte	0x7
 1854 004b 22090000 		.4byte	.LASF5
 1855 004f 02       		.uleb128 0x2
 1856 0050 08       		.byte	0x8
 1857 0051 05       		.byte	0x5
 1858 0052 63060000 		.4byte	.LASF6
 1859 0056 02       		.uleb128 0x2
 1860 0057 08       		.byte	0x8
 1861 0058 07       		.byte	0x7
ARM GAS  C:\Users\Matthew\AppData\Local\Temp\cc2Cvq26.s 			page 59


 1862 0059 E9070000 		.4byte	.LASF7
 1863 005d 03       		.uleb128 0x3
 1864 005e 04       		.byte	0x4
 1865 005f 05       		.byte	0x5
 1866 0060 696E7400 		.ascii	"int\000"
 1867 0064 02       		.uleb128 0x2
 1868 0065 04       		.byte	0x4
 1869 0066 07       		.byte	0x7
 1870 0067 69110000 		.4byte	.LASF8
 1871 006b 04       		.uleb128 0x4
 1872 006c 51060000 		.4byte	.LASF9
 1873 0070 02       		.byte	0x2
 1874 0071 9801     		.2byte	0x198
 1875 0073 2C000000 		.4byte	0x2c
 1876 0077 04       		.uleb128 0x4
 1877 0078 E40E0000 		.4byte	.LASF10
 1878 007c 02       		.byte	0x2
 1879 007d 9901     		.2byte	0x199
 1880 007f 3A000000 		.4byte	0x3a
 1881 0083 04       		.uleb128 0x4
 1882 0084 35070000 		.4byte	.LASF11
 1883 0088 02       		.byte	0x2
 1884 0089 9A01     		.2byte	0x19a
 1885 008b 48000000 		.4byte	0x48
 1886 008f 02       		.uleb128 0x2
 1887 0090 04       		.byte	0x4
 1888 0091 04       		.byte	0x4
 1889 0092 0D0E0000 		.4byte	.LASF12
 1890 0096 02       		.uleb128 0x2
 1891 0097 08       		.byte	0x8
 1892 0098 04       		.byte	0x4
 1893 0099 B6060000 		.4byte	.LASF13
 1894 009d 04       		.uleb128 0x4
 1895 009e CF110000 		.4byte	.LASF14
 1896 00a2 02       		.byte	0x2
 1897 00a3 A901     		.2byte	0x1a9
 1898 00a5 A9000000 		.4byte	0xa9
 1899 00a9 02       		.uleb128 0x2
 1900 00aa 01       		.byte	0x1
 1901 00ab 08       		.byte	0x8
 1902 00ac 01110000 		.4byte	.LASF15
 1903 00b0 05       		.uleb128 0x5
 1904 00b1 6B000000 		.4byte	0x6b
 1905 00b5 02       		.uleb128 0x2
 1906 00b6 04       		.byte	0x4
 1907 00b7 07       		.byte	0x7
 1908 00b8 520C0000 		.4byte	.LASF16
 1909 00bc 06       		.uleb128 0x6
 1910 00bd 04       		.byte	0x4
 1911 00be 07       		.uleb128 0x7
 1912 00bf 01       		.byte	0x1
 1913 00c0 03       		.byte	0x3
 1914 00c1 4201     		.2byte	0x142
 1915 00c3 7B020000 		.4byte	0x27b
 1916 00c7 08       		.uleb128 0x8
 1917 00c8 0C0A0000 		.4byte	.LASF17
 1918 00cc 00       		.sleb128 0
ARM GAS  C:\Users\Matthew\AppData\Local\Temp\cc2Cvq26.s 			page 60


 1919 00cd 08       		.uleb128 0x8
 1920 00ce C1040000 		.4byte	.LASF18
 1921 00d2 01       		.sleb128 1
 1922 00d3 08       		.uleb128 0x8
 1923 00d4 7F020000 		.4byte	.LASF19
 1924 00d8 02       		.sleb128 2
 1925 00d9 08       		.uleb128 0x8
 1926 00da 67120000 		.4byte	.LASF20
 1927 00de 03       		.sleb128 3
 1928 00df 08       		.uleb128 0x8
 1929 00e0 50030000 		.4byte	.LASF21
 1930 00e4 04       		.sleb128 4
 1931 00e5 08       		.uleb128 0x8
 1932 00e6 23000000 		.4byte	.LASF22
 1933 00ea 05       		.sleb128 5
 1934 00eb 08       		.uleb128 0x8
 1935 00ec 410A0000 		.4byte	.LASF23
 1936 00f0 06       		.sleb128 6
 1937 00f1 08       		.uleb128 0x8
 1938 00f2 B60B0000 		.4byte	.LASF24
 1939 00f6 20       		.sleb128 32
 1940 00f7 08       		.uleb128 0x8
 1941 00f8 34050000 		.4byte	.LASF25
 1942 00fc 21       		.sleb128 33
 1943 00fd 08       		.uleb128 0x8
 1944 00fe 680A0000 		.4byte	.LASF26
 1945 0102 22       		.sleb128 34
 1946 0103 08       		.uleb128 0x8
 1947 0104 310B0000 		.4byte	.LASF27
 1948 0108 23       		.sleb128 35
 1949 0109 08       		.uleb128 0x8
 1950 010a 170D0000 		.4byte	.LASF28
 1951 010e 24       		.sleb128 36
 1952 010f 08       		.uleb128 0x8
 1953 0110 800C0000 		.4byte	.LASF29
 1954 0114 25       		.sleb128 37
 1955 0115 08       		.uleb128 0x8
 1956 0116 E8050000 		.4byte	.LASF30
 1957 011a 26       		.sleb128 38
 1958 011b 08       		.uleb128 0x8
 1959 011c 8C0A0000 		.4byte	.LASF31
 1960 0120 27       		.sleb128 39
 1961 0121 08       		.uleb128 0x8
 1962 0122 2F110000 		.4byte	.LASF32
 1963 0126 28       		.sleb128 40
 1964 0127 08       		.uleb128 0x8
 1965 0128 12040000 		.4byte	.LASF33
 1966 012c 29       		.sleb128 41
 1967 012d 08       		.uleb128 0x8
 1968 012e 17010000 		.4byte	.LASF34
 1969 0132 2A       		.sleb128 42
 1970 0133 08       		.uleb128 0x8
 1971 0134 6D030000 		.4byte	.LASF35
 1972 0138 2B       		.sleb128 43
 1973 0139 08       		.uleb128 0x8
 1974 013a 64150000 		.4byte	.LASF36
 1975 013e 2C       		.sleb128 44
ARM GAS  C:\Users\Matthew\AppData\Local\Temp\cc2Cvq26.s 			page 61


 1976 013f 08       		.uleb128 0x8
 1977 0140 2F040000 		.4byte	.LASF37
 1978 0144 2D       		.sleb128 45
 1979 0145 08       		.uleb128 0x8
 1980 0146 EB0E0000 		.4byte	.LASF38
 1981 014a 2E       		.sleb128 46
 1982 014b 08       		.uleb128 0x8
 1983 014c CE010000 		.4byte	.LASF39
 1984 0150 2F       		.sleb128 47
 1985 0151 08       		.uleb128 0x8
 1986 0152 E60C0000 		.4byte	.LASF40
 1987 0156 30       		.sleb128 48
 1988 0157 08       		.uleb128 0x8
 1989 0158 F1150000 		.4byte	.LASF41
 1990 015c 31       		.sleb128 49
 1991 015d 08       		.uleb128 0x8
 1992 015e C50C0000 		.4byte	.LASF42
 1993 0162 32       		.sleb128 50
 1994 0163 08       		.uleb128 0x8
 1995 0164 D4000000 		.4byte	.LASF43
 1996 0168 33       		.sleb128 51
 1997 0169 08       		.uleb128 0x8
 1998 016a 72070000 		.4byte	.LASF44
 1999 016e C000     		.sleb128 64
 2000 0170 08       		.uleb128 0x8
 2001 0171 570B0000 		.4byte	.LASF45
 2002 0175 C100     		.sleb128 65
 2003 0177 08       		.uleb128 0x8
 2004 0178 1B160000 		.4byte	.LASF46
 2005 017c C200     		.sleb128 66
 2006 017e 08       		.uleb128 0x8
 2007 017f 33060000 		.4byte	.LASF47
 2008 0183 C300     		.sleb128 67
 2009 0185 08       		.uleb128 0x8
 2010 0186 4E090000 		.4byte	.LASF48
 2011 018a C400     		.sleb128 68
 2012 018c 08       		.uleb128 0x8
 2013 018d E60D0000 		.4byte	.LASF49
 2014 0191 C500     		.sleb128 69
 2015 0193 08       		.uleb128 0x8
 2016 0194 190C0000 		.4byte	.LASF50
 2017 0198 C600     		.sleb128 70
 2018 019a 08       		.uleb128 0x8
 2019 019b 230A0000 		.4byte	.LASF51
 2020 019f C700     		.sleb128 71
 2021 01a1 08       		.uleb128 0x8
 2022 01a2 1E150000 		.4byte	.LASF52
 2023 01a6 C800     		.sleb128 72
 2024 01a8 08       		.uleb128 0x8
 2025 01a9 56050000 		.4byte	.LASF53
 2026 01ad C900     		.sleb128 73
 2027 01af 08       		.uleb128 0x8
 2028 01b0 A5130000 		.4byte	.LASF54
 2029 01b4 CA00     		.sleb128 74
 2030 01b6 08       		.uleb128 0x8
 2031 01b7 F7010000 		.4byte	.LASF55
 2032 01bb CB00     		.sleb128 75
ARM GAS  C:\Users\Matthew\AppData\Local\Temp\cc2Cvq26.s 			page 62


 2033 01bd 08       		.uleb128 0x8
 2034 01be 34090000 		.4byte	.LASF56
 2035 01c2 CC00     		.sleb128 76
 2036 01c4 08       		.uleb128 0x8
 2037 01c5 AB0C0000 		.4byte	.LASF57
 2038 01c9 CD00     		.sleb128 77
 2039 01cb 08       		.uleb128 0x8
 2040 01cc 99050000 		.4byte	.LASF58
 2041 01d0 CE00     		.sleb128 78
 2042 01d2 08       		.uleb128 0x8
 2043 01d3 D80F0000 		.4byte	.LASF59
 2044 01d7 CF00     		.sleb128 79
 2045 01d9 08       		.uleb128 0x8
 2046 01da 16020000 		.4byte	.LASF60
 2047 01de D000     		.sleb128 80
 2048 01e0 08       		.uleb128 0x8
 2049 01e1 78060000 		.4byte	.LASF61
 2050 01e5 D100     		.sleb128 81
 2051 01e7 08       		.uleb128 0x8
 2052 01e8 5B0D0000 		.4byte	.LASF62
 2053 01ec D200     		.sleb128 82
 2054 01ee 08       		.uleb128 0x8
 2055 01ef 4E0F0000 		.4byte	.LASF63
 2056 01f3 D300     		.sleb128 83
 2057 01f5 08       		.uleb128 0x8
 2058 01f6 5A100000 		.4byte	.LASF64
 2059 01fa D400     		.sleb128 84
 2060 01fc 08       		.uleb128 0x8
 2061 01fd 6C090000 		.4byte	.LASF65
 2062 0201 D500     		.sleb128 85
 2063 0203 08       		.uleb128 0x8
 2064 0204 6C080000 		.4byte	.LASF66
 2065 0208 D600     		.sleb128 86
 2066 020a 08       		.uleb128 0x8
 2067 020b 83110000 		.4byte	.LASF67
 2068 020f D700     		.sleb128 87
 2069 0211 08       		.uleb128 0x8
 2070 0212 49080000 		.4byte	.LASF68
 2071 0216 D800     		.sleb128 88
 2072 0218 08       		.uleb128 0x8
 2073 0219 8C070000 		.4byte	.LASF69
 2074 021d F000     		.sleb128 112
 2075 021f 08       		.uleb128 0x8
 2076 0220 CB150000 		.4byte	.LASF70
 2077 0224 F100     		.sleb128 113
 2078 0226 08       		.uleb128 0x8
 2079 0227 9A0B0000 		.4byte	.LASF71
 2080 022b F200     		.sleb128 114
 2081 022d 08       		.uleb128 0x8
 2082 022e 750E0000 		.4byte	.LASF72
 2083 0232 F300     		.sleb128 115
 2084 0234 08       		.uleb128 0x8
 2085 0235 B50D0000 		.4byte	.LASF73
 2086 0239 F400     		.sleb128 116
 2087 023b 08       		.uleb128 0x8
 2088 023c BD060000 		.4byte	.LASF74
 2089 0240 F500     		.sleb128 117
ARM GAS  C:\Users\Matthew\AppData\Local\Temp\cc2Cvq26.s 			page 63


 2090 0242 08       		.uleb128 0x8
 2091 0243 4E010000 		.4byte	.LASF75
 2092 0247 F600     		.sleb128 118
 2093 0249 08       		.uleb128 0x8
 2094 024a 53000000 		.4byte	.LASF76
 2095 024e F700     		.sleb128 119
 2096 0250 08       		.uleb128 0x8
 2097 0251 00000000 		.4byte	.LASF77
 2098 0255 F800     		.sleb128 120
 2099 0257 08       		.uleb128 0x8
 2100 0258 58040000 		.4byte	.LASF78
 2101 025c F900     		.sleb128 121
 2102 025e 08       		.uleb128 0x8
 2103 025f B2070000 		.4byte	.LASF79
 2104 0263 FA00     		.sleb128 122
 2105 0265 08       		.uleb128 0x8
 2106 0266 A2150000 		.4byte	.LASF80
 2107 026a FA01     		.sleb128 250
 2108 026c 08       		.uleb128 0x8
 2109 026d 8B0F0000 		.4byte	.LASF81
 2110 0271 FB01     		.sleb128 251
 2111 0273 08       		.uleb128 0x8
 2112 0274 55070000 		.4byte	.LASF82
 2113 0278 FF01     		.sleb128 255
 2114 027a 00       		.byte	0
 2115 027b 07       		.uleb128 0x7
 2116 027c 02       		.byte	0x2
 2117 027d 03       		.byte	0x3
 2118 027e FF02     		.2byte	0x2ff
 2119 0280 4B030000 		.4byte	0x34b
 2120 0284 08       		.uleb128 0x8
 2121 0285 63070000 		.4byte	.LASF83
 2122 0289 00       		.sleb128 0
 2123 028a 08       		.uleb128 0x8
 2124 028b E7060000 		.4byte	.LASF84
 2125 028f 01       		.sleb128 1
 2126 0290 08       		.uleb128 0x8
 2127 0291 A4120000 		.4byte	.LASF85
 2128 0295 02       		.sleb128 2
 2129 0296 08       		.uleb128 0x8
 2130 0297 98000000 		.4byte	.LASF86
 2131 029b 03       		.sleb128 3
 2132 029c 08       		.uleb128 0x8
 2133 029d 2D030000 		.4byte	.LASF87
 2134 02a1 04       		.sleb128 4
 2135 02a2 08       		.uleb128 0x8
 2136 02a3 A4080000 		.4byte	.LASF88
 2137 02a7 05       		.sleb128 5
 2138 02a8 08       		.uleb128 0x8
 2139 02a9 AF0F0000 		.4byte	.LASF89
 2140 02ad 06       		.sleb128 6
 2141 02ae 08       		.uleb128 0x8
 2142 02af F6040000 		.4byte	.LASF90
 2143 02b3 07       		.sleb128 7
 2144 02b4 08       		.uleb128 0x8
 2145 02b5 7B100000 		.4byte	.LASF91
 2146 02b9 08       		.sleb128 8
ARM GAS  C:\Users\Matthew\AppData\Local\Temp\cc2Cvq26.s 			page 64


 2147 02ba 08       		.uleb128 0x8
 2148 02bb 45150000 		.4byte	.LASF92
 2149 02bf 09       		.sleb128 9
 2150 02c0 08       		.uleb128 0x8
 2151 02c1 A60E0000 		.4byte	.LASF93
 2152 02c5 0A       		.sleb128 10
 2153 02c6 08       		.uleb128 0x8
 2154 02c7 06110000 		.4byte	.LASF94
 2155 02cb 0B       		.sleb128 11
 2156 02cc 08       		.uleb128 0x8
 2157 02cd D7030000 		.4byte	.LASF95
 2158 02d1 0C       		.sleb128 12
 2159 02d2 08       		.uleb128 0x8
 2160 02d3 08030000 		.4byte	.LASF96
 2161 02d7 0D       		.sleb128 13
 2162 02d8 08       		.uleb128 0x8
 2163 02d9 E9080000 		.4byte	.LASF97
 2164 02dd 0E       		.sleb128 14
 2165 02de 08       		.uleb128 0x8
 2166 02df 3B140000 		.4byte	.LASF98
 2167 02e3 0F       		.sleb128 15
 2168 02e4 08       		.uleb128 0x8
 2169 02e5 FA110000 		.4byte	.LASF99
 2170 02e9 10       		.sleb128 16
 2171 02ea 08       		.uleb128 0x8
 2172 02eb EE030000 		.4byte	.LASF100
 2173 02ef 11       		.sleb128 17
 2174 02f0 08       		.uleb128 0x8
 2175 02f1 10060000 		.4byte	.LASF101
 2176 02f5 12       		.sleb128 18
 2177 02f6 08       		.uleb128 0x8
 2178 02f7 39160000 		.4byte	.LASF102
 2179 02fb 13       		.sleb128 19
 2180 02fc 08       		.uleb128 0x8
 2181 02fd D4040000 		.4byte	.LASF103
 2182 0301 27       		.sleb128 39
 2183 0302 08       		.uleb128 0x8
 2184 0303 D5110000 		.4byte	.LASF104
 2185 0307 28       		.sleb128 40
 2186 0308 08       		.uleb128 0x8
 2187 0309 06140000 		.4byte	.LASF105
 2188 030d 29       		.sleb128 41
 2189 030e 08       		.uleb128 0x8
 2190 030f 9A020000 		.4byte	.LASF106
 2191 0313 2A       		.sleb128 42
 2192 0314 08       		.uleb128 0x8
 2193 0315 6F010000 		.4byte	.LASF107
 2194 0319 2B       		.sleb128 43
 2195 031a 08       		.uleb128 0x8
 2196 031b 010C0000 		.4byte	.LASF108
 2197 031f 2C       		.sleb128 44
 2198 0320 08       		.uleb128 0x8
 2199 0321 FB000000 		.4byte	.LASF109
 2200 0325 FE01     		.sleb128 254
 2201 0327 08       		.uleb128 0x8
 2202 0328 F10B0000 		.4byte	.LASF110
 2203 032c FF01     		.sleb128 255
ARM GAS  C:\Users\Matthew\AppData\Local\Temp\cc2Cvq26.s 			page 65


 2204 032e 08       		.uleb128 0x8
 2205 032f F3090000 		.4byte	.LASF111
 2206 0333 8002     		.sleb128 256
 2207 0335 08       		.uleb128 0x8
 2208 0336 7C0D0000 		.4byte	.LASF112
 2209 033a 8102     		.sleb128 257
 2210 033c 08       		.uleb128 0x8
 2211 033d 210F0000 		.4byte	.LASF113
 2212 0341 8202     		.sleb128 258
 2213 0343 08       		.uleb128 0x8
 2214 0344 6F050000 		.4byte	.LASF114
 2215 0348 8302     		.sleb128 259
 2216 034a 00       		.byte	0
 2217 034b 04       		.uleb128 0x4
 2218 034c 3D0D0000 		.4byte	.LASF115
 2219 0350 03       		.byte	0x3
 2220 0351 6B03     		.2byte	0x36b
 2221 0353 7B020000 		.4byte	0x27b
 2222 0357 09       		.uleb128 0x9
 2223 0358 07       		.byte	0x7
 2224 0359 03       		.byte	0x3
 2225 035a 2804     		.2byte	0x428
 2226 035c 7B030000 		.4byte	0x37b
 2227 0360 0A       		.uleb128 0xa
 2228 0361 71060000 		.4byte	.LASF116
 2229 0365 03       		.byte	0x3
 2230 0366 2B04     		.2byte	0x42b
 2231 0368 7B030000 		.4byte	0x37b
 2232 036c 00       		.byte	0
 2233 036d 0A       		.uleb128 0xa
 2234 036e 70020000 		.4byte	.LASF117
 2235 0372 03       		.byte	0x3
 2236 0373 2D04     		.2byte	0x42d
 2237 0375 6B000000 		.4byte	0x6b
 2238 0379 06       		.byte	0x6
 2239 037a 00       		.byte	0
 2240 037b 0B       		.uleb128 0xb
 2241 037c 6B000000 		.4byte	0x6b
 2242 0380 8B030000 		.4byte	0x38b
 2243 0384 0C       		.uleb128 0xc
 2244 0385 B5000000 		.4byte	0xb5
 2245 0389 05       		.byte	0x5
 2246 038a 00       		.byte	0
 2247 038b 04       		.uleb128 0x4
 2248 038c C3030000 		.4byte	.LASF118
 2249 0390 03       		.byte	0x3
 2250 0391 2E04     		.2byte	0x42e
 2251 0393 57030000 		.4byte	0x357
 2252 0397 09       		.uleb128 0x9
 2253 0398 04       		.byte	0x4
 2254 0399 03       		.byte	0x3
 2255 039a 3804     		.2byte	0x438
 2256 039c BB030000 		.4byte	0x3bb
 2257 03a0 0A       		.uleb128 0xa
 2258 03a1 AC110000 		.4byte	.LASF119
 2259 03a5 03       		.byte	0x3
 2260 03a6 3B04     		.2byte	0x43b
ARM GAS  C:\Users\Matthew\AppData\Local\Temp\cc2Cvq26.s 			page 66


 2261 03a8 77000000 		.4byte	0x77
 2262 03ac 00       		.byte	0
 2263 03ad 0A       		.uleb128 0xa
 2264 03ae E7090000 		.4byte	.LASF120
 2265 03b2 03       		.byte	0x3
 2266 03b3 3D04     		.2byte	0x43d
 2267 03b5 6B000000 		.4byte	0x6b
 2268 03b9 02       		.byte	0x2
 2269 03ba 00       		.byte	0
 2270 03bb 04       		.uleb128 0x4
 2271 03bc 720B0000 		.4byte	.LASF121
 2272 03c0 03       		.byte	0x3
 2273 03c1 3E04     		.2byte	0x43e
 2274 03c3 97030000 		.4byte	0x397
 2275 03c7 09       		.uleb128 0x9
 2276 03c8 06       		.byte	0x6
 2277 03c9 03       		.byte	0x3
 2278 03ca 4204     		.2byte	0x442
 2279 03cc F8030000 		.4byte	0x3f8
 2280 03d0 0A       		.uleb128 0xa
 2281 03d1 5D020000 		.4byte	.LASF122
 2282 03d5 03       		.byte	0x3
 2283 03d6 4504     		.2byte	0x445
 2284 03d8 77000000 		.4byte	0x77
 2285 03dc 00       		.byte	0
 2286 03dd 0A       		.uleb128 0xa
 2287 03de 930E0000 		.4byte	.LASF123
 2288 03e2 03       		.byte	0x3
 2289 03e3 4804     		.2byte	0x448
 2290 03e5 77000000 		.4byte	0x77
 2291 03e9 02       		.byte	0x2
 2292 03ea 0A       		.uleb128 0xa
 2293 03eb CA0A0000 		.4byte	.LASF124
 2294 03ef 03       		.byte	0x3
 2295 03f0 4B04     		.2byte	0x44b
 2296 03f2 6B000000 		.4byte	0x6b
 2297 03f6 04       		.byte	0x4
 2298 03f7 00       		.byte	0
 2299 03f8 04       		.uleb128 0x4
 2300 03f9 22140000 		.4byte	.LASF125
 2301 03fd 03       		.byte	0x3
 2302 03fe 4C04     		.2byte	0x44c
 2303 0400 C7030000 		.4byte	0x3c7
 2304 0404 09       		.uleb128 0x9
 2305 0405 01       		.byte	0x1
 2306 0406 03       		.byte	0x3
 2307 0407 4F04     		.2byte	0x44f
 2308 0409 1B040000 		.4byte	0x41b
 2309 040d 0A       		.uleb128 0xa
 2310 040e 61160000 		.4byte	.LASF126
 2311 0412 03       		.byte	0x3
 2312 0413 5204     		.2byte	0x452
 2313 0415 6B000000 		.4byte	0x6b
 2314 0419 00       		.byte	0
 2315 041a 00       		.byte	0
 2316 041b 04       		.uleb128 0x4
 2317 041c B7020000 		.4byte	.LASF127
ARM GAS  C:\Users\Matthew\AppData\Local\Temp\cc2Cvq26.s 			page 67


 2318 0420 03       		.byte	0x3
 2319 0421 5304     		.2byte	0x453
 2320 0423 04040000 		.4byte	0x404
 2321 0427 09       		.uleb128 0x9
 2322 0428 0C       		.byte	0xc
 2323 0429 03       		.byte	0x3
 2324 042a 5904     		.2byte	0x459
 2325 042c 58040000 		.4byte	0x458
 2326 0430 0A       		.uleb128 0xa
 2327 0431 5A150000 		.4byte	.LASF128
 2328 0435 03       		.byte	0x3
 2329 0436 5C04     		.2byte	0x45c
 2330 0438 58040000 		.4byte	0x458
 2331 043c 00       		.byte	0
 2332 043d 0A       		.uleb128 0xa
 2333 043e C2120000 		.4byte	.LASF129
 2334 0442 03       		.byte	0x3
 2335 0443 5F04     		.2byte	0x45f
 2336 0445 5E040000 		.4byte	0x45e
 2337 0449 04       		.byte	0x4
 2338 044a 0A       		.uleb128 0xa
 2339 044b 35100000 		.4byte	.LASF130
 2340 044f 03       		.byte	0x3
 2341 0450 6504     		.2byte	0x465
 2342 0452 77000000 		.4byte	0x77
 2343 0456 08       		.byte	0x8
 2344 0457 00       		.byte	0
 2345 0458 0D       		.uleb128 0xd
 2346 0459 04       		.byte	0x4
 2347 045a F8030000 		.4byte	0x3f8
 2348 045e 0D       		.uleb128 0xd
 2349 045f 04       		.byte	0x4
 2350 0460 1B040000 		.4byte	0x41b
 2351 0464 04       		.uleb128 0x4
 2352 0465 28120000 		.4byte	.LASF131
 2353 0469 03       		.byte	0x3
 2354 046a 6604     		.2byte	0x466
 2355 046c 27040000 		.4byte	0x427
 2356 0470 0E       		.uleb128 0xe
 2357 0471 01       		.byte	0x1
 2358 0472 04       		.byte	0x4
 2359 0473 D0       		.byte	0xd0
 2360 0474 97040000 		.4byte	0x497
 2361 0478 08       		.uleb128 0x8
 2362 0479 9D030000 		.4byte	.LASF132
 2363 047d 00       		.sleb128 0
 2364 047e 08       		.uleb128 0x8
 2365 047f A2010000 		.4byte	.LASF133
 2366 0483 01       		.sleb128 1
 2367 0484 08       		.uleb128 0x8
 2368 0485 43120000 		.4byte	.LASF134
 2369 0489 02       		.sleb128 2
 2370 048a 08       		.uleb128 0x8
 2371 048b 7B130000 		.4byte	.LASF135
 2372 048f 03       		.sleb128 3
 2373 0490 08       		.uleb128 0x8
 2374 0491 02100000 		.4byte	.LASF136
ARM GAS  C:\Users\Matthew\AppData\Local\Temp\cc2Cvq26.s 			page 68


 2375 0495 04       		.sleb128 4
 2376 0496 00       		.byte	0
 2377 0497 0F       		.uleb128 0xf
 2378 0498 47130000 		.4byte	.LASF137
 2379 049c 04       		.byte	0x4
 2380 049d E0       		.byte	0xe0
 2381 049e 70040000 		.4byte	0x470
 2382 04a2 09       		.uleb128 0x9
 2383 04a3 10       		.byte	0x10
 2384 04a4 04       		.byte	0x4
 2385 04a5 0902     		.2byte	0x209
 2386 04a7 14050000 		.4byte	0x514
 2387 04ab 0A       		.uleb128 0xa
 2388 04ac F70F0000 		.4byte	.LASF138
 2389 04b0 04       		.byte	0x4
 2390 04b1 0F02     		.2byte	0x20f
 2391 04b3 77000000 		.4byte	0x77
 2392 04b7 00       		.byte	0
 2393 04b8 0A       		.uleb128 0xa
 2394 04b9 C4050000 		.4byte	.LASF139
 2395 04bd 04       		.byte	0x4
 2396 04be 1502     		.2byte	0x215
 2397 04c0 77000000 		.4byte	0x77
 2398 04c4 02       		.byte	0x2
 2399 04c5 0A       		.uleb128 0xa
 2400 04c6 65030000 		.4byte	.LASF140
 2401 04ca 04       		.byte	0x4
 2402 04cb 1E02     		.2byte	0x21e
 2403 04cd 97040000 		.4byte	0x497
 2404 04d1 04       		.byte	0x4
 2405 04d2 0A       		.uleb128 0xa
 2406 04d3 740C0000 		.4byte	.LASF141
 2407 04d7 04       		.byte	0x4
 2408 04d8 2602     		.2byte	0x226
 2409 04da 6B000000 		.4byte	0x6b
 2410 04de 05       		.byte	0x5
 2411 04df 0A       		.uleb128 0xa
 2412 04e0 660E0000 		.4byte	.LASF142
 2413 04e4 04       		.byte	0x4
 2414 04e5 2D02     		.2byte	0x22d
 2415 04e7 6B000000 		.4byte	0x6b
 2416 04eb 06       		.byte	0x6
 2417 04ec 0A       		.uleb128 0xa
 2418 04ed 13050000 		.4byte	.LASF143
 2419 04f1 04       		.byte	0x4
 2420 04f2 3302     		.2byte	0x233
 2421 04f4 7B030000 		.4byte	0x37b
 2422 04f8 07       		.byte	0x7
 2423 04f9 0A       		.uleb128 0xa
 2424 04fa 40010000 		.4byte	.LASF144
 2425 04fe 04       		.byte	0x4
 2426 04ff 3B02     		.2byte	0x23b
 2427 0501 6B000000 		.4byte	0x6b
 2428 0505 0D       		.byte	0xd
 2429 0506 0A       		.uleb128 0xa
 2430 0507 89050000 		.4byte	.LASF145
 2431 050b 04       		.byte	0x4
ARM GAS  C:\Users\Matthew\AppData\Local\Temp\cc2Cvq26.s 			page 69


 2432 050c 4702     		.2byte	0x247
 2433 050e 6B000000 		.4byte	0x6b
 2434 0512 0E       		.byte	0xe
 2435 0513 00       		.byte	0
 2436 0514 04       		.uleb128 0x4
 2437 0515 B7110000 		.4byte	.LASF146
 2438 0519 04       		.byte	0x4
 2439 051a 4902     		.2byte	0x249
 2440 051c A2040000 		.4byte	0x4a2
 2441 0520 09       		.uleb128 0x9
 2442 0521 20       		.byte	0x20
 2443 0522 04       		.byte	0x4
 2444 0523 4C02     		.2byte	0x24c
 2445 0525 44050000 		.4byte	0x544
 2446 0529 0A       		.uleb128 0xa
 2447 052a 2D100000 		.4byte	.LASF147
 2448 052e 04       		.byte	0x4
 2449 052f 4F02     		.2byte	0x24f
 2450 0531 44050000 		.4byte	0x544
 2451 0535 00       		.byte	0
 2452 0536 0A       		.uleb128 0xa
 2453 0537 DE070000 		.4byte	.LASF148
 2454 053b 04       		.byte	0x4
 2455 053c 5202     		.2byte	0x252
 2456 053e 6B000000 		.4byte	0x6b
 2457 0542 1F       		.byte	0x1f
 2458 0543 00       		.byte	0
 2459 0544 0B       		.uleb128 0xb
 2460 0545 6B000000 		.4byte	0x6b
 2461 0549 54050000 		.4byte	0x554
 2462 054d 0C       		.uleb128 0xc
 2463 054e B5000000 		.4byte	0xb5
 2464 0552 1E       		.byte	0x1e
 2465 0553 00       		.byte	0
 2466 0554 04       		.uleb128 0x4
 2467 0555 BD000000 		.4byte	.LASF149
 2468 0559 04       		.byte	0x4
 2469 055a 5402     		.2byte	0x254
 2470 055c 20050000 		.4byte	0x520
 2471 0560 09       		.uleb128 0x9
 2472 0561 20       		.byte	0x20
 2473 0562 04       		.byte	0x4
 2474 0563 5702     		.2byte	0x257
 2475 0565 84050000 		.4byte	0x584
 2476 0569 0A       		.uleb128 0xa
 2477 056a 57060000 		.4byte	.LASF150
 2478 056e 04       		.byte	0x4
 2479 056f 5B02     		.2byte	0x25b
 2480 0571 44050000 		.4byte	0x544
 2481 0575 00       		.byte	0
 2482 0576 0A       		.uleb128 0xa
 2483 0577 D90A0000 		.4byte	.LASF151
 2484 057b 04       		.byte	0x4
 2485 057c 5E02     		.2byte	0x25e
 2486 057e 6B000000 		.4byte	0x6b
 2487 0582 1F       		.byte	0x1f
 2488 0583 00       		.byte	0
ARM GAS  C:\Users\Matthew\AppData\Local\Temp\cc2Cvq26.s 			page 70


 2489 0584 04       		.uleb128 0x4
 2490 0585 B8090000 		.4byte	.LASF152
 2491 0589 04       		.byte	0x4
 2492 058a 6002     		.2byte	0x260
 2493 058c 60050000 		.4byte	0x560
 2494 0590 09       		.uleb128 0x9
 2495 0591 14       		.byte	0x14
 2496 0592 04       		.byte	0x4
 2497 0593 6302     		.2byte	0x263
 2498 0595 DB050000 		.4byte	0x5db
 2499 0599 0A       		.uleb128 0xa
 2500 059a DE060000 		.4byte	.LASF153
 2501 059e 04       		.byte	0x4
 2502 059f 6B02     		.2byte	0x26b
 2503 05a1 6B000000 		.4byte	0x6b
 2504 05a5 00       		.byte	0
 2505 05a6 0A       		.uleb128 0xa
 2506 05a7 3E130000 		.4byte	.LASF154
 2507 05ab 04       		.byte	0x4
 2508 05ac 6E02     		.2byte	0x26e
 2509 05ae DB050000 		.4byte	0x5db
 2510 05b2 04       		.byte	0x4
 2511 05b3 0A       		.uleb128 0xa
 2512 05b4 2D100000 		.4byte	.LASF147
 2513 05b8 04       		.byte	0x4
 2514 05b9 7002     		.2byte	0x270
 2515 05bb E1050000 		.4byte	0x5e1
 2516 05bf 08       		.byte	0x8
 2517 05c0 0A       		.uleb128 0xa
 2518 05c1 57060000 		.4byte	.LASF150
 2519 05c5 04       		.byte	0x4
 2520 05c6 7202     		.2byte	0x272
 2521 05c8 E7050000 		.4byte	0x5e7
 2522 05cc 0C       		.byte	0xc
 2523 05cd 0A       		.uleb128 0xa
 2524 05ce 15160000 		.4byte	.LASF155
 2525 05d2 04       		.byte	0x4
 2526 05d3 7C02     		.2byte	0x27c
 2527 05d5 77000000 		.4byte	0x77
 2528 05d9 10       		.byte	0x10
 2529 05da 00       		.byte	0
 2530 05db 0D       		.uleb128 0xd
 2531 05dc 04       		.byte	0x4
 2532 05dd 14050000 		.4byte	0x514
 2533 05e1 0D       		.uleb128 0xd
 2534 05e2 04       		.byte	0x4
 2535 05e3 54050000 		.4byte	0x554
 2536 05e7 0D       		.uleb128 0xd
 2537 05e8 04       		.byte	0x4
 2538 05e9 84050000 		.4byte	0x584
 2539 05ed 04       		.uleb128 0x4
 2540 05ee 22130000 		.4byte	.LASF156
 2541 05f2 04       		.byte	0x4
 2542 05f3 7E02     		.2byte	0x27e
 2543 05f5 90050000 		.4byte	0x590
 2544 05f9 0D       		.uleb128 0xd
 2545 05fa 04       		.byte	0x4
ARM GAS  C:\Users\Matthew\AppData\Local\Temp\cc2Cvq26.s 			page 71


 2546 05fb 6B000000 		.4byte	0x6b
 2547 05ff 09       		.uleb128 0x9
 2548 0600 02       		.byte	0x2
 2549 0601 05       		.byte	0x5
 2550 0602 9C01     		.2byte	0x19c
 2551 0604 23060000 		.4byte	0x623
 2552 0608 0A       		.uleb128 0xa
 2553 0609 99150000 		.4byte	.LASF157
 2554 060d 05       		.byte	0x5
 2555 060e A301     		.2byte	0x1a3
 2556 0610 6B000000 		.4byte	0x6b
 2557 0614 00       		.byte	0
 2558 0615 0A       		.uleb128 0xa
 2559 0616 8C0B0000 		.4byte	.LASF158
 2560 061a 05       		.byte	0x5
 2561 061b A901     		.2byte	0x1a9
 2562 061d 6B000000 		.4byte	0x6b
 2563 0621 01       		.byte	0x1
 2564 0622 00       		.byte	0
 2565 0623 04       		.uleb128 0x4
 2566 0624 72000000 		.4byte	.LASF159
 2567 0628 05       		.byte	0x5
 2568 0629 AB01     		.2byte	0x1ab
 2569 062b FF050000 		.4byte	0x5ff
 2570 062f 10       		.uleb128 0x10
 2571 0630 08       		.byte	0x8
 2572 0631 06       		.byte	0x6
 2573 0632 C3       		.byte	0xc3
 2574 0633 50060000 		.4byte	0x650
 2575 0637 11       		.uleb128 0x11
 2576 0638 180B0000 		.4byte	.LASF160
 2577 063c 06       		.byte	0x6
 2578 063d C6       		.byte	0xc6
 2579 063e 77000000 		.4byte	0x77
 2580 0642 00       		.byte	0
 2581 0643 11       		.uleb128 0x11
 2582 0644 A70D0000 		.4byte	.LASF161
 2583 0648 06       		.byte	0x6
 2584 0649 CB       		.byte	0xcb
 2585 064a BC000000 		.4byte	0xbc
 2586 064e 04       		.byte	0x4
 2587 064f 00       		.byte	0
 2588 0650 0F       		.uleb128 0xf
 2589 0651 F8120000 		.4byte	.LASF162
 2590 0655 06       		.byte	0x6
 2591 0656 CD       		.byte	0xcd
 2592 0657 2F060000 		.4byte	0x62f
 2593 065b 10       		.uleb128 0x10
 2594 065c 08       		.byte	0x8
 2595 065d 06       		.byte	0x6
 2596 065e D0       		.byte	0xd0
 2597 065f 7C060000 		.4byte	0x67c
 2598 0663 11       		.uleb128 0x11
 2599 0664 AB0A0000 		.4byte	.LASF163
 2600 0668 06       		.byte	0x6
 2601 0669 D3       		.byte	0xd3
 2602 066a 77000000 		.4byte	0x77
ARM GAS  C:\Users\Matthew\AppData\Local\Temp\cc2Cvq26.s 			page 72


 2603 066e 00       		.byte	0
 2604 066f 11       		.uleb128 0x11
 2605 0670 C3130000 		.4byte	.LASF164
 2606 0674 06       		.byte	0x6
 2607 0675 D8       		.byte	0xd8
 2608 0676 7C060000 		.4byte	0x67c
 2609 067a 04       		.byte	0x4
 2610 067b 00       		.byte	0
 2611 067c 0D       		.uleb128 0xd
 2612 067d 04       		.byte	0x4
 2613 067e 50060000 		.4byte	0x650
 2614 0682 0F       		.uleb128 0xf
 2615 0683 97060000 		.4byte	.LASF165
 2616 0687 06       		.byte	0x6
 2617 0688 DA       		.byte	0xda
 2618 0689 5B060000 		.4byte	0x65b
 2619 068d 12       		.uleb128 0x12
 2620 068e 08       		.byte	0x8
 2621 068f 06       		.byte	0x6
 2622 0690 DD       		.byte	0xdd
 2623 0691 AC060000 		.4byte	0x6ac
 2624 0695 13       		.uleb128 0x13
 2625 0696 A9090000 		.4byte	.LASF166
 2626 069a 06       		.byte	0x6
 2627 069b E4       		.byte	0xe4
 2628 069c 82060000 		.4byte	0x682
 2629 06a0 13       		.uleb128 0x13
 2630 06a1 9A0D0000 		.4byte	.LASF167
 2631 06a5 06       		.byte	0x6
 2632 06a6 E7       		.byte	0xe7
 2633 06a7 77000000 		.4byte	0x77
 2634 06ab 00       		.byte	0
 2635 06ac 0F       		.uleb128 0xf
 2636 06ad 13070000 		.4byte	.LASF168
 2637 06b1 06       		.byte	0x6
 2638 06b2 E9       		.byte	0xe9
 2639 06b3 8D060000 		.4byte	0x68d
 2640 06b7 10       		.uleb128 0x10
 2641 06b8 14       		.byte	0x14
 2642 06b9 06       		.byte	0x6
 2643 06ba EC       		.byte	0xec
 2644 06bb FE060000 		.4byte	0x6fe
 2645 06bf 11       		.uleb128 0x11
 2646 06c0 2B070000 		.4byte	.LASF169
 2647 06c4 06       		.byte	0x6
 2648 06c5 EF       		.byte	0xef
 2649 06c6 77000000 		.4byte	0x77
 2650 06ca 00       		.byte	0
 2651 06cb 11       		.uleb128 0x11
 2652 06cc D6070000 		.4byte	.LASF170
 2653 06d0 06       		.byte	0x6
 2654 06d1 F5       		.byte	0xf5
 2655 06d2 77000000 		.4byte	0x77
 2656 06d6 02       		.byte	0x2
 2657 06d7 11       		.uleb128 0x11
 2658 06d8 4B050000 		.4byte	.LASF171
 2659 06dc 06       		.byte	0x6
ARM GAS  C:\Users\Matthew\AppData\Local\Temp\cc2Cvq26.s 			page 73


 2660 06dd FF       		.byte	0xff
 2661 06de 83000000 		.4byte	0x83
 2662 06e2 04       		.byte	0x4
 2663 06e3 0A       		.uleb128 0xa
 2664 06e4 76110000 		.4byte	.LASF172
 2665 06e8 06       		.byte	0x6
 2666 06e9 0201     		.2byte	0x102
 2667 06eb 77000000 		.4byte	0x77
 2668 06ef 08       		.byte	0x8
 2669 06f0 0A       		.uleb128 0xa
 2670 06f1 CD0E0000 		.4byte	.LASF173
 2671 06f5 06       		.byte	0x6
 2672 06f6 0B01     		.2byte	0x10b
 2673 06f8 AC060000 		.4byte	0x6ac
 2674 06fc 0C       		.byte	0xc
 2675 06fd 00       		.byte	0
 2676 06fe 04       		.uleb128 0x4
 2677 06ff 93120000 		.4byte	.LASF174
 2678 0703 06       		.byte	0x6
 2679 0704 0C01     		.2byte	0x10c
 2680 0706 B7060000 		.4byte	0x6b7
 2681 070a 04       		.uleb128 0x4
 2682 070b E7120000 		.4byte	.LASF175
 2683 070f 07       		.byte	0x7
 2684 0710 E801     		.2byte	0x1e8
 2685 0712 16070000 		.4byte	0x716
 2686 0716 0D       		.uleb128 0xd
 2687 0717 04       		.byte	0x4
 2688 0718 1C070000 		.4byte	0x71c
 2689 071c 14       		.uleb128 0x14
 2690 071d 2C070000 		.4byte	0x72c
 2691 0721 15       		.uleb128 0x15
 2692 0722 83000000 		.4byte	0x83
 2693 0726 15       		.uleb128 0x15
 2694 0727 BC000000 		.4byte	0xbc
 2695 072b 00       		.byte	0
 2696 072c 16       		.uleb128 0x16
 2697 072d B702     		.2byte	0x2b7
 2698 072f 08       		.byte	0x8
 2699 0730 9C       		.byte	0x9c
 2700 0731 69070000 		.4byte	0x769
 2701 0735 11       		.uleb128 0x11
 2702 0736 05070000 		.4byte	.LASF176
 2703 073a 08       		.byte	0x8
 2704 073b 9F       		.byte	0x9f
 2705 073c 69070000 		.4byte	0x769
 2706 0740 00       		.byte	0
 2707 0741 17       		.uleb128 0x17
 2708 0742 FF0A0000 		.4byte	.LASF177
 2709 0746 08       		.byte	0x8
 2710 0747 A2       		.byte	0xa2
 2711 0748 7A070000 		.4byte	0x77a
 2712 074c 7902     		.2byte	0x279
 2713 074e 17       		.uleb128 0x17
 2714 074f 75020000 		.4byte	.LASF178
 2715 0753 08       		.byte	0x8
 2716 0754 A5       		.byte	0xa5
ARM GAS  C:\Users\Matthew\AppData\Local\Temp\cc2Cvq26.s 			page 74


 2717 0755 6B000000 		.4byte	0x6b
 2718 0759 B502     		.2byte	0x2b5
 2719 075b 17       		.uleb128 0x17
 2720 075c 070D0000 		.4byte	.LASF179
 2721 0760 08       		.byte	0x8
 2722 0761 A8       		.byte	0xa8
 2723 0762 6B000000 		.4byte	0x6b
 2724 0766 B602     		.2byte	0x2b6
 2725 0768 00       		.byte	0
 2726 0769 0B       		.uleb128 0xb
 2727 076a 6B000000 		.4byte	0x6b
 2728 076e 7A070000 		.4byte	0x77a
 2729 0772 18       		.uleb128 0x18
 2730 0773 B5000000 		.4byte	0xb5
 2731 0777 7802     		.2byte	0x278
 2732 0779 00       		.byte	0
 2733 077a 0B       		.uleb128 0xb
 2734 077b 6B000000 		.4byte	0x6b
 2735 077f 90070000 		.4byte	0x790
 2736 0783 0C       		.uleb128 0xc
 2737 0784 B5000000 		.4byte	0xb5
 2738 0788 04       		.byte	0x4
 2739 0789 0C       		.uleb128 0xc
 2740 078a B5000000 		.4byte	0xb5
 2741 078e 0B       		.byte	0xb
 2742 078f 00       		.byte	0
 2743 0790 0F       		.uleb128 0xf
 2744 0791 58130000 		.4byte	.LASF180
 2745 0795 08       		.byte	0x8
 2746 0796 A9       		.byte	0xa9
 2747 0797 2C070000 		.4byte	0x72c
 2748 079b 07       		.uleb128 0x7
 2749 079c 01       		.byte	0x1
 2750 079d 09       		.byte	0x9
 2751 079e BF07     		.2byte	0x7bf
 2752 07a0 C3070000 		.4byte	0x7c3
 2753 07a4 08       		.uleb128 0x8
 2754 07a5 3F000000 		.4byte	.LASF181
 2755 07a9 00       		.sleb128 0
 2756 07aa 08       		.uleb128 0x8
 2757 07ab 5B0C0000 		.4byte	.LASF182
 2758 07af 01       		.sleb128 1
 2759 07b0 08       		.uleb128 0x8
 2760 07b1 7A140000 		.4byte	.LASF183
 2761 07b5 02       		.sleb128 2
 2762 07b6 08       		.uleb128 0x8
 2763 07b7 7B040000 		.4byte	.LASF184
 2764 07bb 03       		.sleb128 3
 2765 07bc 08       		.uleb128 0x8
 2766 07bd CF050000 		.4byte	.LASF185
 2767 07c1 04       		.sleb128 4
 2768 07c2 00       		.byte	0
 2769 07c3 04       		.uleb128 0x4
 2770 07c4 6D130000 		.4byte	.LASF186
 2771 07c8 09       		.byte	0x9
 2772 07c9 CD07     		.2byte	0x7cd
 2773 07cb 9B070000 		.4byte	0x79b
ARM GAS  C:\Users\Matthew\AppData\Local\Temp\cc2Cvq26.s 			page 75


 2774 07cf 19       		.uleb128 0x19
 2775 07d0 C0150000 		.4byte	.LASF187
 2776 07d4 01       		.byte	0x1
 2777 07d5 98       		.byte	0x98
 2778 07d6 00000000 		.4byte	.LFB2
 2779 07da 40000000 		.4byte	.LFE2-.LFB2
 2780 07de 01       		.uleb128 0x1
 2781 07df 9C       		.byte	0x9c
 2782 07e0 19       		.uleb128 0x19
 2783 07e1 D7080000 		.4byte	.LASF188
 2784 07e5 01       		.byte	0x1
 2785 07e6 C9       		.byte	0xc9
 2786 07e7 00000000 		.4byte	.LFB3
 2787 07eb 0C000000 		.4byte	.LFE3-.LFB3
 2788 07ef 01       		.uleb128 0x1
 2789 07f0 9C       		.byte	0x9c
 2790 07f1 1A       		.uleb128 0x1a
 2791 07f2 E80A0000 		.4byte	.LASF196
 2792 07f6 01       		.byte	0x1
 2793 07f7 8F01     		.2byte	0x18f
 2794 07f9 4B030000 		.4byte	0x34b
 2795 07fd 00000000 		.4byte	.LFB4
 2796 0801 34010000 		.4byte	.LFE4-.LFB4
 2797 0805 01       		.uleb128 0x1
 2798 0806 9C       		.byte	0x9c
 2799 0807 81080000 		.4byte	0x881
 2800 080b 1B       		.uleb128 0x1b
 2801 080c C00E0000 		.4byte	.LASF198
 2802 0810 01       		.byte	0x1
 2803 0811 8F01     		.2byte	0x18f
 2804 0813 0A070000 		.4byte	0x70a
 2805 0817 03       		.uleb128 0x3
 2806 0818 91       		.byte	0x91
 2807 0819 B47F     		.sleb128 -76
 2808 081b 1C       		.uleb128 0x1c
 2809 081c 330D0000 		.4byte	.LASF189
 2810 0820 01       		.byte	0x1
 2811 0821 9101     		.2byte	0x191
 2812 0823 4B030000 		.4byte	0x34b
 2813 0827 02       		.uleb128 0x2
 2814 0828 91       		.byte	0x91
 2815 0829 6E       		.sleb128 -18
 2816 082a 1C       		.uleb128 0x1c
 2817 082b B5100000 		.4byte	.LASF190
 2818 082f 01       		.byte	0x1
 2819 0830 9501     		.2byte	0x195
 2820 0832 81080000 		.4byte	0x881
 2821 0836 02       		.uleb128 0x2
 2822 0837 91       		.byte	0x91
 2823 0838 58       		.sleb128 -40
 2824 0839 1D       		.uleb128 0x1d
 2825 083a 4E000000 		.4byte	.LBB2
 2826 083e 54000000 		.4byte	.LBE2-.LBB2
 2827 0842 1C       		.uleb128 0x1c
 2828 0843 12090000 		.4byte	.LASF191
 2829 0847 01       		.byte	0x1
 2830 0848 B701     		.2byte	0x1b7
ARM GAS  C:\Users\Matthew\AppData\Local\Temp\cc2Cvq26.s 			page 76


 2831 084a F8030000 		.4byte	0x3f8
 2832 084e 02       		.uleb128 0x2
 2833 084f 91       		.byte	0x91
 2834 0850 50       		.sleb128 -48
 2835 0851 1C       		.uleb128 0x1c
 2836 0852 95090000 		.4byte	.LASF192
 2837 0856 01       		.byte	0x1
 2838 0857 B801     		.2byte	0x1b8
 2839 0859 1B040000 		.4byte	0x41b
 2840 085d 02       		.uleb128 0x2
 2841 085e 91       		.byte	0x91
 2842 085f 4C       		.sleb128 -52
 2843 0860 1C       		.uleb128 0x1c
 2844 0861 D4130000 		.4byte	.LASF193
 2845 0865 01       		.byte	0x1
 2846 0866 B901     		.2byte	0x1b9
 2847 0868 64040000 		.4byte	0x464
 2848 086c 02       		.uleb128 0x2
 2849 086d 91       		.byte	0x91
 2850 086e 40       		.sleb128 -64
 2851 086f 1C       		.uleb128 0x1c
 2852 0870 C90F0000 		.4byte	.LASF194
 2853 0874 01       		.byte	0x1
 2854 0875 BA01     		.2byte	0x1ba
 2855 0877 77000000 		.4byte	0x77
 2856 087b 03       		.uleb128 0x3
 2857 087c 91       		.byte	0x91
 2858 087d BE7F     		.sleb128 -66
 2859 087f 00       		.byte	0
 2860 0880 00       		.byte	0
 2861 0881 0B       		.uleb128 0xb
 2862 0882 BB030000 		.4byte	0x3bb
 2863 0886 91080000 		.4byte	0x891
 2864 088a 0C       		.uleb128 0xc
 2865 088b B5000000 		.4byte	0xb5
 2866 088f 04       		.byte	0x4
 2867 0890 00       		.byte	0
 2868 0891 1E       		.uleb128 0x1e
 2869 0892 500D0000 		.4byte	.LASF195
 2870 0896 01       		.byte	0x1
 2871 0897 0902     		.2byte	0x209
 2872 0899 00000000 		.4byte	.LFB5
 2873 089d 18000000 		.4byte	.LFE5-.LFB5
 2874 08a1 01       		.uleb128 0x1
 2875 08a2 9C       		.byte	0x9c
 2876 08a3 1A       		.uleb128 0x1a
 2877 08a4 D0120000 		.4byte	.LASF197
 2878 08a8 01       		.byte	0x1
 2879 08a9 3E02     		.2byte	0x23e
 2880 08ab 4B030000 		.4byte	0x34b
 2881 08af 00000000 		.4byte	.LFB6
 2882 08b3 C0010000 		.4byte	.LFE6-.LFB6
 2883 08b7 01       		.uleb128 0x1
 2884 08b8 9C       		.byte	0x9c
 2885 08b9 14090000 		.4byte	0x914
 2886 08bd 1B       		.uleb128 0x1b
 2887 08be B7050000 		.4byte	.LASF199
ARM GAS  C:\Users\Matthew\AppData\Local\Temp\cc2Cvq26.s 			page 77


 2888 08c2 01       		.byte	0x1
 2889 08c3 3E02     		.2byte	0x23e
 2890 08c5 6B000000 		.4byte	0x6b
 2891 08c9 03       		.uleb128 0x3
 2892 08ca 91       		.byte	0x91
 2893 08cb 9F7F     		.sleb128 -97
 2894 08cd 1C       		.uleb128 0x1c
 2895 08ce 330D0000 		.4byte	.LASF189
 2896 08d2 01       		.byte	0x1
 2897 08d3 4002     		.2byte	0x240
 2898 08d5 4B030000 		.4byte	0x34b
 2899 08d9 02       		.uleb128 0x2
 2900 08da 91       		.byte	0x91
 2901 08db 6E       		.sleb128 -18
 2902 08dc 1F       		.uleb128 0x1f
 2903 08dd F8000000 		.4byte	.LBB3
 2904 08e1 42000000 		.4byte	.LBE3-.LBB3
 2905 08e5 FA080000 		.4byte	0x8fa
 2906 08e9 1C       		.uleb128 0x1c
 2907 08ea 86000000 		.4byte	.LASF200
 2908 08ee 01       		.byte	0x1
 2909 08ef 6402     		.2byte	0x264
 2910 08f1 7A070000 		.4byte	0x77a
 2911 08f5 03       		.uleb128 0x3
 2912 08f6 91       		.byte	0x91
 2913 08f7 A47F     		.sleb128 -92
 2914 08f9 00       		.byte	0
 2915 08fa 1D       		.uleb128 0x1d
 2916 08fb 3E010000 		.4byte	.LBB4
 2917 08ff 5C000000 		.4byte	.LBE4-.LBB4
 2918 0903 1C       		.uleb128 0x1c
 2919 0904 86000000 		.4byte	.LASF200
 2920 0908 01       		.byte	0x1
 2921 0909 7102     		.2byte	0x271
 2922 090b 14090000 		.4byte	0x914
 2923 090f 02       		.uleb128 0x2
 2924 0910 91       		.byte	0x91
 2925 0911 60       		.sleb128 -32
 2926 0912 00       		.byte	0
 2927 0913 00       		.byte	0
 2928 0914 0B       		.uleb128 0xb
 2929 0915 6B000000 		.4byte	0x6b
 2930 0919 24090000 		.4byte	0x924
 2931 091d 0C       		.uleb128 0xc
 2932 091e B5000000 		.4byte	0xb5
 2933 0922 0B       		.byte	0xb
 2934 0923 00       		.byte	0
 2935 0924 1A       		.uleb128 0x1a
 2936 0925 99100000 		.4byte	.LASF201
 2937 0929 01       		.byte	0x1
 2938 092a A002     		.2byte	0x2a0
 2939 092c 4B030000 		.4byte	0x34b
 2940 0930 00000000 		.4byte	.LFB7
 2941 0934 E8000000 		.4byte	.LFE7-.LFB7
 2942 0938 01       		.uleb128 0x1
 2943 0939 9C       		.byte	0x9c
 2944 093a 85090000 		.4byte	0x985
ARM GAS  C:\Users\Matthew\AppData\Local\Temp\cc2Cvq26.s 			page 78


 2945 093e 1B       		.uleb128 0x1b
 2946 093f 71060000 		.4byte	.LASF116
 2947 0943 01       		.byte	0x1
 2948 0944 A002     		.2byte	0x2a0
 2949 0946 85090000 		.4byte	0x985
 2950 094a 02       		.uleb128 0x2
 2951 094b 91       		.byte	0x91
 2952 094c 5C       		.sleb128 -36
 2953 094d 1C       		.uleb128 0x1c
 2954 094e 330D0000 		.4byte	.LASF189
 2955 0952 01       		.byte	0x1
 2956 0953 A202     		.2byte	0x2a2
 2957 0955 4B030000 		.4byte	0x34b
 2958 0959 02       		.uleb128 0x2
 2959 095a 91       		.byte	0x91
 2960 095b 6E       		.sleb128 -18
 2961 095c 1D       		.uleb128 0x1d
 2962 095d 18000000 		.4byte	.LBB5
 2963 0961 AE000000 		.4byte	.LBE5-.LBB5
 2964 0965 1C       		.uleb128 0x1c
 2965 0966 F40A0000 		.4byte	.LASF202
 2966 096a 01       		.byte	0x1
 2967 096b A902     		.2byte	0x2a9
 2968 096d 6B000000 		.4byte	0x6b
 2969 0971 02       		.uleb128 0x2
 2970 0972 91       		.byte	0x91
 2971 0973 6D       		.sleb128 -19
 2972 0974 1C       		.uleb128 0x1c
 2973 0975 3C070000 		.4byte	.LASF203
 2974 0979 01       		.byte	0x1
 2975 097a AA02     		.2byte	0x2aa
 2976 097c 8B030000 		.4byte	0x38b
 2977 0980 02       		.uleb128 0x2
 2978 0981 91       		.byte	0x91
 2979 0982 64       		.sleb128 -28
 2980 0983 00       		.byte	0
 2981 0984 00       		.byte	0
 2982 0985 0D       		.uleb128 0xd
 2983 0986 04       		.byte	0x4
 2984 0987 8B030000 		.4byte	0x38b
 2985 098b 1A       		.uleb128 0x1a
 2986 098c 490E0000 		.4byte	.LASF204
 2987 0990 01       		.byte	0x1
 2988 0991 0503     		.2byte	0x305
 2989 0993 4B030000 		.4byte	0x34b
 2990 0997 00000000 		.4byte	.LFB8
 2991 099b D4000000 		.4byte	.LFE8-.LFB8
 2992 099f 01       		.uleb128 0x1
 2993 09a0 9C       		.byte	0x9c
 2994 09a1 C4090000 		.4byte	0x9c4
 2995 09a5 1B       		.uleb128 0x1b
 2996 09a6 51110000 		.4byte	.LASF205
 2997 09aa 01       		.byte	0x1
 2998 09ab 0503     		.2byte	0x305
 2999 09ad 6B000000 		.4byte	0x6b
 3000 09b1 02       		.uleb128 0x2
 3001 09b2 91       		.byte	0x91
ARM GAS  C:\Users\Matthew\AppData\Local\Temp\cc2Cvq26.s 			page 79


 3002 09b3 67       		.sleb128 -25
 3003 09b4 1C       		.uleb128 0x1c
 3004 09b5 330D0000 		.4byte	.LASF189
 3005 09b9 01       		.byte	0x1
 3006 09ba 0703     		.2byte	0x307
 3007 09bc 4B030000 		.4byte	0x34b
 3008 09c0 02       		.uleb128 0x2
 3009 09c1 91       		.byte	0x91
 3010 09c2 6E       		.sleb128 -18
 3011 09c3 00       		.byte	0
 3012 09c4 1E       		.uleb128 0x1e
 3013 09c5 D8020000 		.4byte	.LASF206
 3014 09c9 01       		.byte	0x1
 3015 09ca 4203     		.2byte	0x342
 3016 09cc 00000000 		.4byte	.LFB9
 3017 09d0 20000000 		.4byte	.LFE9-.LFB9
 3018 09d4 01       		.uleb128 0x1
 3019 09d5 9C       		.byte	0x9c
 3020 09d6 20       		.uleb128 0x20
 3021 09d7 6F0F0000 		.4byte	.LASF218
 3022 09db 01       		.byte	0x1
 3023 09dc 5803     		.2byte	0x358
 3024 09de 00000000 		.4byte	.LFB10
 3025 09e2 60000000 		.4byte	.LFE10-.LFB10
 3026 09e6 01       		.uleb128 0x1
 3027 09e7 9C       		.byte	0x9c
 3028 09e8 270A0000 		.4byte	0xa27
 3029 09ec 1B       		.uleb128 0x1b
 3030 09ed 71060000 		.4byte	.LASF116
 3031 09f1 01       		.byte	0x1
 3032 09f2 5803     		.2byte	0x358
 3033 09f4 270A0000 		.4byte	0xa27
 3034 09f8 02       		.uleb128 0x2
 3035 09f9 91       		.byte	0x91
 3036 09fa 6C       		.sleb128 -20
 3037 09fb 1B       		.uleb128 0x1b
 3038 09fc 950D0000 		.4byte	.LASF207
 3039 0a00 01       		.byte	0x1
 3040 0a01 5803     		.2byte	0x358
 3041 0a03 6B000000 		.4byte	0x6b
 3042 0a07 02       		.uleb128 0x2
 3043 0a08 91       		.byte	0x91
 3044 0a09 6B       		.sleb128 -21
 3045 0a0a 21       		.uleb128 0x21
 3046 0a0b 6900     		.ascii	"i\000"
 3047 0a0d 01       		.byte	0x1
 3048 0a0e 5A03     		.2byte	0x35a
 3049 0a10 6B000000 		.4byte	0x6b
 3050 0a14 02       		.uleb128 0x2
 3051 0a15 91       		.byte	0x91
 3052 0a16 77       		.sleb128 -9
 3053 0a17 1C       		.uleb128 0x1c
 3054 0a18 4A070000 		.4byte	.LASF208
 3055 0a1c 01       		.byte	0x1
 3056 0a1d 5B03     		.2byte	0x35b
 3057 0a1f F9050000 		.4byte	0x5f9
 3058 0a23 02       		.uleb128 0x2
ARM GAS  C:\Users\Matthew\AppData\Local\Temp\cc2Cvq26.s 			page 80


 3059 0a24 91       		.byte	0x91
 3060 0a25 70       		.sleb128 -16
 3061 0a26 00       		.byte	0
 3062 0a27 0D       		.uleb128 0xd
 3063 0a28 04       		.byte	0x4
 3064 0a29 2D0A0000 		.4byte	0xa2d
 3065 0a2d 22       		.uleb128 0x22
 3066 0a2e 8B030000 		.4byte	0x38b
 3067 0a32 23       		.uleb128 0x23
 3068 0a33 42100000 		.4byte	.LASF244
 3069 0a37 01       		.byte	0x1
 3070 0a38 9704     		.2byte	0x497
 3071 0a3a 00000000 		.4byte	.LFB11
 3072 0a3e A4010000 		.4byte	.LFE11-.LFB11
 3073 0a42 01       		.uleb128 0x1
 3074 0a43 9C       		.byte	0x9c
 3075 0a44 BF0A0000 		.4byte	0xabf
 3076 0a48 1B       		.uleb128 0x1b
 3077 0a49 90090000 		.4byte	.LASF209
 3078 0a4d 01       		.byte	0x1
 3079 0a4e 9704     		.2byte	0x497
 3080 0a50 BF0A0000 		.4byte	0xabf
 3081 0a54 02       		.uleb128 0x2
 3082 0a55 91       		.byte	0x91
 3083 0a56 64       		.sleb128 -28
 3084 0a57 1B       		.uleb128 0x1b
 3085 0a58 950D0000 		.4byte	.LASF207
 3086 0a5c 01       		.byte	0x1
 3087 0a5d 9704     		.2byte	0x497
 3088 0a5f 6B000000 		.4byte	0x6b
 3089 0a63 02       		.uleb128 0x2
 3090 0a64 91       		.byte	0x91
 3091 0a65 63       		.sleb128 -29
 3092 0a66 21       		.uleb128 0x21
 3093 0a67 6900     		.ascii	"i\000"
 3094 0a69 01       		.byte	0x1
 3095 0a6a 9904     		.2byte	0x499
 3096 0a6c 6B000000 		.4byte	0x6b
 3097 0a70 02       		.uleb128 0x2
 3098 0a71 91       		.byte	0x91
 3099 0a72 77       		.sleb128 -9
 3100 0a73 1C       		.uleb128 0x1c
 3101 0a74 AA0F0000 		.4byte	.LASF210
 3102 0a78 01       		.byte	0x1
 3103 0a79 9A04     		.2byte	0x49a
 3104 0a7b 6B000000 		.4byte	0x6b
 3105 0a7f 02       		.uleb128 0x2
 3106 0a80 91       		.byte	0x91
 3107 0a81 76       		.sleb128 -10
 3108 0a82 1C       		.uleb128 0x1c
 3109 0a83 26110000 		.4byte	.LASF211
 3110 0a87 01       		.byte	0x1
 3111 0a88 9B04     		.2byte	0x49b
 3112 0a8a 6B000000 		.4byte	0x6b
 3113 0a8e 02       		.uleb128 0x2
 3114 0a8f 91       		.byte	0x91
 3115 0a90 75       		.sleb128 -11
ARM GAS  C:\Users\Matthew\AppData\Local\Temp\cc2Cvq26.s 			page 81


 3116 0a91 1C       		.uleb128 0x1c
 3117 0a92 16130000 		.4byte	.LASF212
 3118 0a96 01       		.byte	0x1
 3119 0a97 9C04     		.2byte	0x49c
 3120 0a99 6B000000 		.4byte	0x6b
 3121 0a9d 02       		.uleb128 0x2
 3122 0a9e 91       		.byte	0x91
 3123 0a9f 74       		.sleb128 -12
 3124 0aa0 1C       		.uleb128 0x1c
 3125 0aa1 4A070000 		.4byte	.LASF208
 3126 0aa5 01       		.byte	0x1
 3127 0aa6 9D04     		.2byte	0x49d
 3128 0aa8 F9050000 		.4byte	0x5f9
 3129 0aac 02       		.uleb128 0x2
 3130 0aad 91       		.byte	0x91
 3131 0aae 70       		.sleb128 -16
 3132 0aaf 1C       		.uleb128 0x1c
 3133 0ab0 C9100000 		.4byte	.LASF213
 3134 0ab4 01       		.byte	0x1
 3135 0ab5 9E04     		.2byte	0x49e
 3136 0ab7 6B000000 		.4byte	0x6b
 3137 0abb 02       		.uleb128 0x2
 3138 0abc 91       		.byte	0x91
 3139 0abd 6F       		.sleb128 -17
 3140 0abe 00       		.byte	0
 3141 0abf 0D       		.uleb128 0xd
 3142 0ac0 04       		.byte	0x4
 3143 0ac1 C50A0000 		.4byte	0xac5
 3144 0ac5 22       		.uleb128 0x22
 3145 0ac6 9D000000 		.4byte	0x9d
 3146 0aca 1A       		.uleb128 0x1a
 3147 0acb 1E050000 		.4byte	.LASF214
 3148 0acf 01       		.byte	0x1
 3149 0ad0 FC04     		.2byte	0x4fc
 3150 0ad2 4B030000 		.4byte	0x34b
 3151 0ad6 00000000 		.4byte	.LFB12
 3152 0ada C8000000 		.4byte	.LFE12-.LFB12
 3153 0ade 01       		.uleb128 0x1
 3154 0adf 9C       		.byte	0x9c
 3155 0ae0 2E0B0000 		.4byte	0xb2e
 3156 0ae4 1B       		.uleb128 0x1b
 3157 0ae5 90090000 		.4byte	.LASF209
 3158 0ae9 01       		.byte	0x1
 3159 0aea FC04     		.2byte	0x4fc
 3160 0aec BF0A0000 		.4byte	0xabf
 3161 0af0 02       		.uleb128 0x2
 3162 0af1 91       		.byte	0x91
 3163 0af2 64       		.sleb128 -28
 3164 0af3 1C       		.uleb128 0x1c
 3165 0af4 330D0000 		.4byte	.LASF189
 3166 0af8 01       		.byte	0x1
 3167 0af9 FE04     		.2byte	0x4fe
 3168 0afb 4B030000 		.4byte	0x34b
 3169 0aff 02       		.uleb128 0x2
 3170 0b00 91       		.byte	0x91
 3171 0b01 76       		.sleb128 -10
 3172 0b02 21       		.uleb128 0x21
ARM GAS  C:\Users\Matthew\AppData\Local\Temp\cc2Cvq26.s 			page 82


 3173 0b03 6900     		.ascii	"i\000"
 3174 0b05 01       		.byte	0x1
 3175 0b06 FF04     		.2byte	0x4ff
 3176 0b08 6B000000 		.4byte	0x6b
 3177 0b0c 02       		.uleb128 0x2
 3178 0b0d 91       		.byte	0x91
 3179 0b0e 75       		.sleb128 -11
 3180 0b0f 21       		.uleb128 0x21
 3181 0b10 70747200 		.ascii	"ptr\000"
 3182 0b14 01       		.byte	0x1
 3183 0b15 0005     		.2byte	0x500
 3184 0b17 2E0B0000 		.4byte	0xb2e
 3185 0b1b 02       		.uleb128 0x2
 3186 0b1c 91       		.byte	0x91
 3187 0b1d 70       		.sleb128 -16
 3188 0b1e 1C       		.uleb128 0x1c
 3189 0b1f 920B0000 		.4byte	.LASF215
 3190 0b23 01       		.byte	0x1
 3191 0b24 0105     		.2byte	0x501
 3192 0b26 6B000000 		.4byte	0x6b
 3193 0b2a 02       		.uleb128 0x2
 3194 0b2b 91       		.byte	0x91
 3195 0b2c 6F       		.sleb128 -17
 3196 0b2d 00       		.byte	0
 3197 0b2e 0D       		.uleb128 0xd
 3198 0b2f 04       		.byte	0x4
 3199 0b30 9D000000 		.4byte	0x9d
 3200 0b34 24       		.uleb128 0x24
 3201 0b35 8E080000 		.4byte	.LASF216
 3202 0b39 01       		.byte	0x1
 3203 0b3a 4405     		.2byte	0x544
 3204 0b3c 4B030000 		.4byte	0x34b
 3205 0b40 00000000 		.4byte	.LFB13
 3206 0b44 A4000000 		.4byte	.LFE13-.LFB13
 3207 0b48 01       		.uleb128 0x1
 3208 0b49 9C       		.byte	0x9c
 3209 0b4a 980B0000 		.4byte	0xb98
 3210 0b4e 1B       		.uleb128 0x1b
 3211 0b4f 90090000 		.4byte	.LASF209
 3212 0b53 01       		.byte	0x1
 3213 0b54 4405     		.2byte	0x544
 3214 0b56 2E0B0000 		.4byte	0xb2e
 3215 0b5a 02       		.uleb128 0x2
 3216 0b5b 91       		.byte	0x91
 3217 0b5c 64       		.sleb128 -28
 3218 0b5d 1C       		.uleb128 0x1c
 3219 0b5e 330D0000 		.4byte	.LASF189
 3220 0b62 01       		.byte	0x1
 3221 0b63 4605     		.2byte	0x546
 3222 0b65 4B030000 		.4byte	0x34b
 3223 0b69 02       		.uleb128 0x2
 3224 0b6a 91       		.byte	0x91
 3225 0b6b 76       		.sleb128 -10
 3226 0b6c 1C       		.uleb128 0x1c
 3227 0b6d 920B0000 		.4byte	.LASF215
 3228 0b71 01       		.byte	0x1
 3229 0b72 4705     		.2byte	0x547
ARM GAS  C:\Users\Matthew\AppData\Local\Temp\cc2Cvq26.s 			page 83


 3230 0b74 6B000000 		.4byte	0x6b
 3231 0b78 02       		.uleb128 0x2
 3232 0b79 91       		.byte	0x91
 3233 0b7a 6F       		.sleb128 -17
 3234 0b7b 21       		.uleb128 0x21
 3235 0b7c 6900     		.ascii	"i\000"
 3236 0b7e 01       		.byte	0x1
 3237 0b7f 4805     		.2byte	0x548
 3238 0b81 6B000000 		.4byte	0x6b
 3239 0b85 02       		.uleb128 0x2
 3240 0b86 91       		.byte	0x91
 3241 0b87 75       		.sleb128 -11
 3242 0b88 21       		.uleb128 0x21
 3243 0b89 70747200 		.ascii	"ptr\000"
 3244 0b8d 01       		.byte	0x1
 3245 0b8e 4905     		.2byte	0x549
 3246 0b90 2E0B0000 		.4byte	0xb2e
 3247 0b94 02       		.uleb128 0x2
 3248 0b95 91       		.byte	0x91
 3249 0b96 70       		.sleb128 -16
 3250 0b97 00       		.byte	0
 3251 0b98 24       		.uleb128 0x24
 3252 0b99 88150000 		.4byte	.LASF217
 3253 0b9d 01       		.byte	0x1
 3254 0b9e 7605     		.2byte	0x576
 3255 0ba0 77000000 		.4byte	0x77
 3256 0ba4 00000000 		.4byte	.LFB14
 3257 0ba8 26000000 		.4byte	.LFE14-.LFB14
 3258 0bac 01       		.uleb128 0x1
 3259 0bad 9C       		.byte	0x9c
 3260 0bae C20B0000 		.4byte	0xbc2
 3261 0bb2 25       		.uleb128 0x25
 3262 0bb3 70747200 		.ascii	"ptr\000"
 3263 0bb7 01       		.byte	0x1
 3264 0bb8 7605     		.2byte	0x576
 3265 0bba C20B0000 		.4byte	0xbc2
 3266 0bbe 02       		.uleb128 0x2
 3267 0bbf 91       		.byte	0x91
 3268 0bc0 74       		.sleb128 -12
 3269 0bc1 00       		.byte	0
 3270 0bc2 0D       		.uleb128 0xd
 3271 0bc3 04       		.byte	0x4
 3272 0bc4 C80B0000 		.4byte	0xbc8
 3273 0bc8 22       		.uleb128 0x22
 3274 0bc9 6B000000 		.4byte	0x6b
 3275 0bcd 20       		.uleb128 0x20
 3276 0bce B90A0000 		.4byte	.LASF219
 3277 0bd2 01       		.byte	0x1
 3278 0bd3 8905     		.2byte	0x589
 3279 0bd5 00000000 		.4byte	.LFB15
 3280 0bd9 2E000000 		.4byte	.LFE15-.LFB15
 3281 0bdd 01       		.uleb128 0x1
 3282 0bde 9C       		.byte	0x9c
 3283 0bdf 020C0000 		.4byte	0xc02
 3284 0be3 25       		.uleb128 0x25
 3285 0be4 70747200 		.ascii	"ptr\000"
 3286 0be8 01       		.byte	0x1
ARM GAS  C:\Users\Matthew\AppData\Local\Temp\cc2Cvq26.s 			page 84


 3287 0be9 8905     		.2byte	0x589
 3288 0beb F9050000 		.4byte	0x5f9
 3289 0bef 02       		.uleb128 0x2
 3290 0bf0 91       		.byte	0x91
 3291 0bf1 74       		.sleb128 -12
 3292 0bf2 1B       		.uleb128 0x1b
 3293 0bf3 00080000 		.4byte	.LASF220
 3294 0bf7 01       		.byte	0x1
 3295 0bf8 8905     		.2byte	0x589
 3296 0bfa 77000000 		.4byte	0x77
 3297 0bfe 02       		.uleb128 0x2
 3298 0bff 91       		.byte	0x91
 3299 0c00 72       		.sleb128 -14
 3300 0c01 00       		.byte	0
 3301 0c02 26       		.uleb128 0x26
 3302 0c03 93040000 		.4byte	.LASF221
 3303 0c07 01       		.byte	0x1
 3304 0c08 84       		.byte	0x84
 3305 0c09 6B000000 		.4byte	0x6b
 3306 0c0d 05       		.uleb128 0x5
 3307 0c0e 03       		.byte	0x3
 3308 0c0f 01000000 		.4byte	cyBle_pendingFlashClearCccdHandle
 3309 0c13 27       		.uleb128 0x27
 3310 0c14 4A020000 		.4byte	.LASF222
 3311 0c18 01       		.byte	0x1
 3312 0c19 89       		.byte	0x89
 3313 0c1a 0A070000 		.4byte	0x70a
 3314 0c1e 05       		.uleb128 0x5
 3315 0c1f 03       		.byte	0x3
 3316 0c20 00000000 		.4byte	CyBle_ApplCallback
 3317 0c24 27       		.uleb128 0x27
 3318 0c25 5A0A0000 		.4byte	.LASF223
 3319 0c29 01       		.byte	0x1
 3320 0c2a 2B       		.byte	0x2b
 3321 0c2b 6B000000 		.4byte	0x6b
 3322 0c2f 05       		.uleb128 0x5
 3323 0c30 03       		.byte	0x3
 3324 0c31 00000000 		.4byte	cyBle_initVar
 3325 0c35 0B       		.uleb128 0xb
 3326 0c36 6B000000 		.4byte	0x6b
 3327 0c3a 460C0000 		.4byte	0xc46
 3328 0c3e 18       		.uleb128 0x18
 3329 0c3f B5000000 		.4byte	0xb5
 3330 0c43 DF0A     		.2byte	0xadf
 3331 0c45 00       		.byte	0
 3332 0c46 27       		.uleb128 0x27
 3333 0c47 35020000 		.4byte	.LASF224
 3334 0c4b 01       		.byte	0x1
 3335 0c4c 36       		.byte	0x36
 3336 0c4d 350C0000 		.4byte	0xc35
 3337 0c51 05       		.uleb128 0x5
 3338 0c52 03       		.byte	0x3
 3339 0c53 00000000 		.4byte	cyBle_stackMemoryRam
 3340 0c57 28       		.uleb128 0x28
 3341 0c58 DA0B0000 		.4byte	.LASF225
 3342 0c5c 07       		.byte	0x7
 3343 0c5d 8802     		.2byte	0x288
ARM GAS  C:\Users\Matthew\AppData\Local\Temp\cc2Cvq26.s 			page 85


 3344 0c5f B0000000 		.4byte	0xb0
 3345 0c63 27       		.uleb128 0x27
 3346 0c64 E0130000 		.4byte	.LASF226
 3347 0c68 01       		.byte	0x1
 3348 0c69 8A       		.byte	0x8a
 3349 0c6a 8B030000 		.4byte	0x38b
 3350 0c6e 05       		.uleb128 0x5
 3351 0c6f 03       		.byte	0x3
 3352 0c70 00000000 		.4byte	cyBle_deviceAddress
 3353 0c74 27       		.uleb128 0x27
 3354 0c75 60140000 		.4byte	.LASF227
 3355 0c79 01       		.byte	0x1
 3356 0c7a 8B       		.byte	0x8b
 3357 0c7b 85090000 		.4byte	0x985
 3358 0c7f 05       		.uleb128 0x5
 3359 0c80 03       		.byte	0x3
 3360 0c81 00000000 		.4byte	cyBle_sflashDeviceAddress
 3361 0c85 27       		.uleb128 0x27
 3362 0c86 C2080000 		.4byte	.LASF228
 3363 0c8a 01       		.byte	0x1
 3364 0c8b 3C       		.byte	0x3c
 3365 0c8c 14050000 		.4byte	0x514
 3366 0c90 05       		.uleb128 0x5
 3367 0c91 03       		.byte	0x3
 3368 0c92 00000000 		.4byte	cyBle_discoveryParam
 3369 0c96 27       		.uleb128 0x27
 3370 0c97 F4020000 		.4byte	.LASF229
 3371 0c9b 01       		.byte	0x1
 3372 0c9c 48       		.byte	0x48
 3373 0c9d 54050000 		.4byte	0x554
 3374 0ca1 05       		.uleb128 0x5
 3375 0ca2 03       		.byte	0x3
 3376 0ca3 00000000 		.4byte	cyBle_discoveryData
 3377 0ca7 27       		.uleb128 0x27
 3378 0ca8 F4130000 		.4byte	.LASF230
 3379 0cac 01       		.byte	0x1
 3380 0cad 51       		.byte	0x51
 3381 0cae 84050000 		.4byte	0x584
 3382 0cb2 05       		.uleb128 0x5
 3383 0cb3 03       		.byte	0x3
 3384 0cb4 00000000 		.4byte	cyBle_scanRspData
 3385 0cb8 27       		.uleb128 0x27
 3386 0cb9 3A0C0000 		.4byte	.LASF231
 3387 0cbd 01       		.byte	0x1
 3388 0cbe 61       		.byte	0x61
 3389 0cbf ED050000 		.4byte	0x5ed
 3390 0cc3 05       		.uleb128 0x5
 3391 0cc4 03       		.byte	0x3
 3392 0cc5 00000000 		.4byte	cyBle_discoveryModeInfo
 3393 0cc9 27       		.uleb128 0x27
 3394 0cca 130E0000 		.4byte	.LASF232
 3395 0cce 01       		.byte	0x1
 3396 0ccf 81       		.byte	0x81
 3397 0cd0 6B000000 		.4byte	0x6b
 3398 0cd4 05       		.uleb128 0x5
 3399 0cd5 03       		.byte	0x3
 3400 0cd6 00000000 		.4byte	cyBle_pendingFlashWrite
ARM GAS  C:\Users\Matthew\AppData\Local\Temp\cc2Cvq26.s 			page 86


 3401 0cda 27       		.uleb128 0x27
 3402 0cdb 0F0F0000 		.4byte	.LASF233
 3403 0cdf 01       		.byte	0x1
 3404 0ce0 80       		.byte	0x80
 3405 0ce1 6B000000 		.4byte	0x6b
 3406 0ce5 05       		.uleb128 0x5
 3407 0ce6 03       		.byte	0x3
 3408 0ce7 00000000 		.4byte	cyBle_peerBonding
 3409 0ceb 0B       		.uleb128 0xb
 3410 0cec FE060000 		.4byte	0x6fe
 3411 0cf0 FB0C0000 		.4byte	0xcfb
 3412 0cf4 0C       		.uleb128 0xc
 3413 0cf5 B5000000 		.4byte	0xb5
 3414 0cf9 1C       		.byte	0x1c
 3415 0cfa 00       		.byte	0
 3416 0cfb 29       		.uleb128 0x29
 3417 0cfc D3100000 		.4byte	.LASF234
 3418 0d00 08       		.byte	0x8
 3419 0d01 E8       		.byte	0xe8
 3420 0d02 060D0000 		.4byte	0xd06
 3421 0d06 22       		.uleb128 0x22
 3422 0d07 EB0C0000 		.4byte	0xceb
 3423 0d0b 29       		.uleb128 0x29
 3424 0d0c D3090000 		.4byte	.LASF235
 3425 0d10 08       		.byte	0x8
 3426 0d11 EC       		.byte	0xec
 3427 0d12 14090000 		.4byte	0x914
 3428 0d16 29       		.uleb128 0x29
 3429 0d17 D30D0000 		.4byte	.LASF236
 3430 0d1b 08       		.byte	0x8
 3431 0d1c F4       		.byte	0xf4
 3432 0d1d 210D0000 		.4byte	0xd21
 3433 0d21 22       		.uleb128 0x22
 3434 0d22 90070000 		.4byte	0x790
 3435 0d26 28       		.uleb128 0x28
 3436 0d27 250B0000 		.4byte	.LASF237
 3437 0d2b 09       		.byte	0x9
 3438 0d2c DA09     		.2byte	0x9da
 3439 0d2e C3070000 		.4byte	0x7c3
 3440 0d32 28       		.uleb128 0x28
 3441 0d33 9A0C0000 		.4byte	.LASF238
 3442 0d37 09       		.byte	0x9
 3443 0d38 DB09     		.2byte	0x9db
 3444 0d3a 23060000 		.4byte	0x623
 3445 0d3e 28       		.uleb128 0x28
 3446 0d3f 8C030000 		.4byte	.LASF239
 3447 0d43 09       		.byte	0x9
 3448 0d44 DC09     		.2byte	0x9dc
 3449 0d46 B0000000 		.4byte	0xb0
 3450 0d4a 28       		.uleb128 0x28
 3451 0d4b 2B0E0000 		.4byte	.LASF240
 3452 0d4f 09       		.byte	0x9
 3453 0d50 DF09     		.2byte	0x9df
 3454 0d52 6B000000 		.4byte	0x6b
 3455 0d56 00       		.byte	0
 3456              		.section	.debug_abbrev,"",%progbits
 3457              	.Ldebug_abbrev0:
ARM GAS  C:\Users\Matthew\AppData\Local\Temp\cc2Cvq26.s 			page 87


 3458 0000 01       		.uleb128 0x1
 3459 0001 11       		.uleb128 0x11
 3460 0002 01       		.byte	0x1
 3461 0003 25       		.uleb128 0x25
 3462 0004 0E       		.uleb128 0xe
 3463 0005 13       		.uleb128 0x13
 3464 0006 0B       		.uleb128 0xb
 3465 0007 03       		.uleb128 0x3
 3466 0008 0E       		.uleb128 0xe
 3467 0009 1B       		.uleb128 0x1b
 3468 000a 0E       		.uleb128 0xe
 3469 000b 55       		.uleb128 0x55
 3470 000c 17       		.uleb128 0x17
 3471 000d 11       		.uleb128 0x11
 3472 000e 01       		.uleb128 0x1
 3473 000f 10       		.uleb128 0x10
 3474 0010 17       		.uleb128 0x17
 3475 0011 00       		.byte	0
 3476 0012 00       		.byte	0
 3477 0013 02       		.uleb128 0x2
 3478 0014 24       		.uleb128 0x24
 3479 0015 00       		.byte	0
 3480 0016 0B       		.uleb128 0xb
 3481 0017 0B       		.uleb128 0xb
 3482 0018 3E       		.uleb128 0x3e
 3483 0019 0B       		.uleb128 0xb
 3484 001a 03       		.uleb128 0x3
 3485 001b 0E       		.uleb128 0xe
 3486 001c 00       		.byte	0
 3487 001d 00       		.byte	0
 3488 001e 03       		.uleb128 0x3
 3489 001f 24       		.uleb128 0x24
 3490 0020 00       		.byte	0
 3491 0021 0B       		.uleb128 0xb
 3492 0022 0B       		.uleb128 0xb
 3493 0023 3E       		.uleb128 0x3e
 3494 0024 0B       		.uleb128 0xb
 3495 0025 03       		.uleb128 0x3
 3496 0026 08       		.uleb128 0x8
 3497 0027 00       		.byte	0
 3498 0028 00       		.byte	0
 3499 0029 04       		.uleb128 0x4
 3500 002a 16       		.uleb128 0x16
 3501 002b 00       		.byte	0
 3502 002c 03       		.uleb128 0x3
 3503 002d 0E       		.uleb128 0xe
 3504 002e 3A       		.uleb128 0x3a
 3505 002f 0B       		.uleb128 0xb
 3506 0030 3B       		.uleb128 0x3b
 3507 0031 05       		.uleb128 0x5
 3508 0032 49       		.uleb128 0x49
 3509 0033 13       		.uleb128 0x13
 3510 0034 00       		.byte	0
 3511 0035 00       		.byte	0
 3512 0036 05       		.uleb128 0x5
 3513 0037 35       		.uleb128 0x35
 3514 0038 00       		.byte	0
ARM GAS  C:\Users\Matthew\AppData\Local\Temp\cc2Cvq26.s 			page 88


 3515 0039 49       		.uleb128 0x49
 3516 003a 13       		.uleb128 0x13
 3517 003b 00       		.byte	0
 3518 003c 00       		.byte	0
 3519 003d 06       		.uleb128 0x6
 3520 003e 0F       		.uleb128 0xf
 3521 003f 00       		.byte	0
 3522 0040 0B       		.uleb128 0xb
 3523 0041 0B       		.uleb128 0xb
 3524 0042 00       		.byte	0
 3525 0043 00       		.byte	0
 3526 0044 07       		.uleb128 0x7
 3527 0045 04       		.uleb128 0x4
 3528 0046 01       		.byte	0x1
 3529 0047 0B       		.uleb128 0xb
 3530 0048 0B       		.uleb128 0xb
 3531 0049 3A       		.uleb128 0x3a
 3532 004a 0B       		.uleb128 0xb
 3533 004b 3B       		.uleb128 0x3b
 3534 004c 05       		.uleb128 0x5
 3535 004d 01       		.uleb128 0x1
 3536 004e 13       		.uleb128 0x13
 3537 004f 00       		.byte	0
 3538 0050 00       		.byte	0
 3539 0051 08       		.uleb128 0x8
 3540 0052 28       		.uleb128 0x28
 3541 0053 00       		.byte	0
 3542 0054 03       		.uleb128 0x3
 3543 0055 0E       		.uleb128 0xe
 3544 0056 1C       		.uleb128 0x1c
 3545 0057 0D       		.uleb128 0xd
 3546 0058 00       		.byte	0
 3547 0059 00       		.byte	0
 3548 005a 09       		.uleb128 0x9
 3549 005b 13       		.uleb128 0x13
 3550 005c 01       		.byte	0x1
 3551 005d 0B       		.uleb128 0xb
 3552 005e 0B       		.uleb128 0xb
 3553 005f 3A       		.uleb128 0x3a
 3554 0060 0B       		.uleb128 0xb
 3555 0061 3B       		.uleb128 0x3b
 3556 0062 05       		.uleb128 0x5
 3557 0063 01       		.uleb128 0x1
 3558 0064 13       		.uleb128 0x13
 3559 0065 00       		.byte	0
 3560 0066 00       		.byte	0
 3561 0067 0A       		.uleb128 0xa
 3562 0068 0D       		.uleb128 0xd
 3563 0069 00       		.byte	0
 3564 006a 03       		.uleb128 0x3
 3565 006b 0E       		.uleb128 0xe
 3566 006c 3A       		.uleb128 0x3a
 3567 006d 0B       		.uleb128 0xb
 3568 006e 3B       		.uleb128 0x3b
 3569 006f 05       		.uleb128 0x5
 3570 0070 49       		.uleb128 0x49
 3571 0071 13       		.uleb128 0x13
ARM GAS  C:\Users\Matthew\AppData\Local\Temp\cc2Cvq26.s 			page 89


 3572 0072 38       		.uleb128 0x38
 3573 0073 0B       		.uleb128 0xb
 3574 0074 00       		.byte	0
 3575 0075 00       		.byte	0
 3576 0076 0B       		.uleb128 0xb
 3577 0077 01       		.uleb128 0x1
 3578 0078 01       		.byte	0x1
 3579 0079 49       		.uleb128 0x49
 3580 007a 13       		.uleb128 0x13
 3581 007b 01       		.uleb128 0x1
 3582 007c 13       		.uleb128 0x13
 3583 007d 00       		.byte	0
 3584 007e 00       		.byte	0
 3585 007f 0C       		.uleb128 0xc
 3586 0080 21       		.uleb128 0x21
 3587 0081 00       		.byte	0
 3588 0082 49       		.uleb128 0x49
 3589 0083 13       		.uleb128 0x13
 3590 0084 2F       		.uleb128 0x2f
 3591 0085 0B       		.uleb128 0xb
 3592 0086 00       		.byte	0
 3593 0087 00       		.byte	0
 3594 0088 0D       		.uleb128 0xd
 3595 0089 0F       		.uleb128 0xf
 3596 008a 00       		.byte	0
 3597 008b 0B       		.uleb128 0xb
 3598 008c 0B       		.uleb128 0xb
 3599 008d 49       		.uleb128 0x49
 3600 008e 13       		.uleb128 0x13
 3601 008f 00       		.byte	0
 3602 0090 00       		.byte	0
 3603 0091 0E       		.uleb128 0xe
 3604 0092 04       		.uleb128 0x4
 3605 0093 01       		.byte	0x1
 3606 0094 0B       		.uleb128 0xb
 3607 0095 0B       		.uleb128 0xb
 3608 0096 3A       		.uleb128 0x3a
 3609 0097 0B       		.uleb128 0xb
 3610 0098 3B       		.uleb128 0x3b
 3611 0099 0B       		.uleb128 0xb
 3612 009a 01       		.uleb128 0x1
 3613 009b 13       		.uleb128 0x13
 3614 009c 00       		.byte	0
 3615 009d 00       		.byte	0
 3616 009e 0F       		.uleb128 0xf
 3617 009f 16       		.uleb128 0x16
 3618 00a0 00       		.byte	0
 3619 00a1 03       		.uleb128 0x3
 3620 00a2 0E       		.uleb128 0xe
 3621 00a3 3A       		.uleb128 0x3a
 3622 00a4 0B       		.uleb128 0xb
 3623 00a5 3B       		.uleb128 0x3b
 3624 00a6 0B       		.uleb128 0xb
 3625 00a7 49       		.uleb128 0x49
 3626 00a8 13       		.uleb128 0x13
 3627 00a9 00       		.byte	0
 3628 00aa 00       		.byte	0
ARM GAS  C:\Users\Matthew\AppData\Local\Temp\cc2Cvq26.s 			page 90


 3629 00ab 10       		.uleb128 0x10
 3630 00ac 13       		.uleb128 0x13
 3631 00ad 01       		.byte	0x1
 3632 00ae 0B       		.uleb128 0xb
 3633 00af 0B       		.uleb128 0xb
 3634 00b0 3A       		.uleb128 0x3a
 3635 00b1 0B       		.uleb128 0xb
 3636 00b2 3B       		.uleb128 0x3b
 3637 00b3 0B       		.uleb128 0xb
 3638 00b4 01       		.uleb128 0x1
 3639 00b5 13       		.uleb128 0x13
 3640 00b6 00       		.byte	0
 3641 00b7 00       		.byte	0
 3642 00b8 11       		.uleb128 0x11
 3643 00b9 0D       		.uleb128 0xd
 3644 00ba 00       		.byte	0
 3645 00bb 03       		.uleb128 0x3
 3646 00bc 0E       		.uleb128 0xe
 3647 00bd 3A       		.uleb128 0x3a
 3648 00be 0B       		.uleb128 0xb
 3649 00bf 3B       		.uleb128 0x3b
 3650 00c0 0B       		.uleb128 0xb
 3651 00c1 49       		.uleb128 0x49
 3652 00c2 13       		.uleb128 0x13
 3653 00c3 38       		.uleb128 0x38
 3654 00c4 0B       		.uleb128 0xb
 3655 00c5 00       		.byte	0
 3656 00c6 00       		.byte	0
 3657 00c7 12       		.uleb128 0x12
 3658 00c8 17       		.uleb128 0x17
 3659 00c9 01       		.byte	0x1
 3660 00ca 0B       		.uleb128 0xb
 3661 00cb 0B       		.uleb128 0xb
 3662 00cc 3A       		.uleb128 0x3a
 3663 00cd 0B       		.uleb128 0xb
 3664 00ce 3B       		.uleb128 0x3b
 3665 00cf 0B       		.uleb128 0xb
 3666 00d0 01       		.uleb128 0x1
 3667 00d1 13       		.uleb128 0x13
 3668 00d2 00       		.byte	0
 3669 00d3 00       		.byte	0
 3670 00d4 13       		.uleb128 0x13
 3671 00d5 0D       		.uleb128 0xd
 3672 00d6 00       		.byte	0
 3673 00d7 03       		.uleb128 0x3
 3674 00d8 0E       		.uleb128 0xe
 3675 00d9 3A       		.uleb128 0x3a
 3676 00da 0B       		.uleb128 0xb
 3677 00db 3B       		.uleb128 0x3b
 3678 00dc 0B       		.uleb128 0xb
 3679 00dd 49       		.uleb128 0x49
 3680 00de 13       		.uleb128 0x13
 3681 00df 00       		.byte	0
 3682 00e0 00       		.byte	0
 3683 00e1 14       		.uleb128 0x14
 3684 00e2 15       		.uleb128 0x15
 3685 00e3 01       		.byte	0x1
ARM GAS  C:\Users\Matthew\AppData\Local\Temp\cc2Cvq26.s 			page 91


 3686 00e4 27       		.uleb128 0x27
 3687 00e5 19       		.uleb128 0x19
 3688 00e6 01       		.uleb128 0x1
 3689 00e7 13       		.uleb128 0x13
 3690 00e8 00       		.byte	0
 3691 00e9 00       		.byte	0
 3692 00ea 15       		.uleb128 0x15
 3693 00eb 05       		.uleb128 0x5
 3694 00ec 00       		.byte	0
 3695 00ed 49       		.uleb128 0x49
 3696 00ee 13       		.uleb128 0x13
 3697 00ef 00       		.byte	0
 3698 00f0 00       		.byte	0
 3699 00f1 16       		.uleb128 0x16
 3700 00f2 13       		.uleb128 0x13
 3701 00f3 01       		.byte	0x1
 3702 00f4 0B       		.uleb128 0xb
 3703 00f5 05       		.uleb128 0x5
 3704 00f6 3A       		.uleb128 0x3a
 3705 00f7 0B       		.uleb128 0xb
 3706 00f8 3B       		.uleb128 0x3b
 3707 00f9 0B       		.uleb128 0xb
 3708 00fa 01       		.uleb128 0x1
 3709 00fb 13       		.uleb128 0x13
 3710 00fc 00       		.byte	0
 3711 00fd 00       		.byte	0
 3712 00fe 17       		.uleb128 0x17
 3713 00ff 0D       		.uleb128 0xd
 3714 0100 00       		.byte	0
 3715 0101 03       		.uleb128 0x3
 3716 0102 0E       		.uleb128 0xe
 3717 0103 3A       		.uleb128 0x3a
 3718 0104 0B       		.uleb128 0xb
 3719 0105 3B       		.uleb128 0x3b
 3720 0106 0B       		.uleb128 0xb
 3721 0107 49       		.uleb128 0x49
 3722 0108 13       		.uleb128 0x13
 3723 0109 38       		.uleb128 0x38
 3724 010a 05       		.uleb128 0x5
 3725 010b 00       		.byte	0
 3726 010c 00       		.byte	0
 3727 010d 18       		.uleb128 0x18
 3728 010e 21       		.uleb128 0x21
 3729 010f 00       		.byte	0
 3730 0110 49       		.uleb128 0x49
 3731 0111 13       		.uleb128 0x13
 3732 0112 2F       		.uleb128 0x2f
 3733 0113 05       		.uleb128 0x5
 3734 0114 00       		.byte	0
 3735 0115 00       		.byte	0
 3736 0116 19       		.uleb128 0x19
 3737 0117 2E       		.uleb128 0x2e
 3738 0118 00       		.byte	0
 3739 0119 3F       		.uleb128 0x3f
 3740 011a 19       		.uleb128 0x19
 3741 011b 03       		.uleb128 0x3
 3742 011c 0E       		.uleb128 0xe
ARM GAS  C:\Users\Matthew\AppData\Local\Temp\cc2Cvq26.s 			page 92


 3743 011d 3A       		.uleb128 0x3a
 3744 011e 0B       		.uleb128 0xb
 3745 011f 3B       		.uleb128 0x3b
 3746 0120 0B       		.uleb128 0xb
 3747 0121 27       		.uleb128 0x27
 3748 0122 19       		.uleb128 0x19
 3749 0123 11       		.uleb128 0x11
 3750 0124 01       		.uleb128 0x1
 3751 0125 12       		.uleb128 0x12
 3752 0126 06       		.uleb128 0x6
 3753 0127 40       		.uleb128 0x40
 3754 0128 18       		.uleb128 0x18
 3755 0129 9642     		.uleb128 0x2116
 3756 012b 19       		.uleb128 0x19
 3757 012c 00       		.byte	0
 3758 012d 00       		.byte	0
 3759 012e 1A       		.uleb128 0x1a
 3760 012f 2E       		.uleb128 0x2e
 3761 0130 01       		.byte	0x1
 3762 0131 3F       		.uleb128 0x3f
 3763 0132 19       		.uleb128 0x19
 3764 0133 03       		.uleb128 0x3
 3765 0134 0E       		.uleb128 0xe
 3766 0135 3A       		.uleb128 0x3a
 3767 0136 0B       		.uleb128 0xb
 3768 0137 3B       		.uleb128 0x3b
 3769 0138 05       		.uleb128 0x5
 3770 0139 27       		.uleb128 0x27
 3771 013a 19       		.uleb128 0x19
 3772 013b 49       		.uleb128 0x49
 3773 013c 13       		.uleb128 0x13
 3774 013d 11       		.uleb128 0x11
 3775 013e 01       		.uleb128 0x1
 3776 013f 12       		.uleb128 0x12
 3777 0140 06       		.uleb128 0x6
 3778 0141 40       		.uleb128 0x40
 3779 0142 18       		.uleb128 0x18
 3780 0143 9642     		.uleb128 0x2116
 3781 0145 19       		.uleb128 0x19
 3782 0146 01       		.uleb128 0x1
 3783 0147 13       		.uleb128 0x13
 3784 0148 00       		.byte	0
 3785 0149 00       		.byte	0
 3786 014a 1B       		.uleb128 0x1b
 3787 014b 05       		.uleb128 0x5
 3788 014c 00       		.byte	0
 3789 014d 03       		.uleb128 0x3
 3790 014e 0E       		.uleb128 0xe
 3791 014f 3A       		.uleb128 0x3a
 3792 0150 0B       		.uleb128 0xb
 3793 0151 3B       		.uleb128 0x3b
 3794 0152 05       		.uleb128 0x5
 3795 0153 49       		.uleb128 0x49
 3796 0154 13       		.uleb128 0x13
 3797 0155 02       		.uleb128 0x2
 3798 0156 18       		.uleb128 0x18
 3799 0157 00       		.byte	0
ARM GAS  C:\Users\Matthew\AppData\Local\Temp\cc2Cvq26.s 			page 93


 3800 0158 00       		.byte	0
 3801 0159 1C       		.uleb128 0x1c
 3802 015a 34       		.uleb128 0x34
 3803 015b 00       		.byte	0
 3804 015c 03       		.uleb128 0x3
 3805 015d 0E       		.uleb128 0xe
 3806 015e 3A       		.uleb128 0x3a
 3807 015f 0B       		.uleb128 0xb
 3808 0160 3B       		.uleb128 0x3b
 3809 0161 05       		.uleb128 0x5
 3810 0162 49       		.uleb128 0x49
 3811 0163 13       		.uleb128 0x13
 3812 0164 02       		.uleb128 0x2
 3813 0165 18       		.uleb128 0x18
 3814 0166 00       		.byte	0
 3815 0167 00       		.byte	0
 3816 0168 1D       		.uleb128 0x1d
 3817 0169 0B       		.uleb128 0xb
 3818 016a 01       		.byte	0x1
 3819 016b 11       		.uleb128 0x11
 3820 016c 01       		.uleb128 0x1
 3821 016d 12       		.uleb128 0x12
 3822 016e 06       		.uleb128 0x6
 3823 016f 00       		.byte	0
 3824 0170 00       		.byte	0
 3825 0171 1E       		.uleb128 0x1e
 3826 0172 2E       		.uleb128 0x2e
 3827 0173 00       		.byte	0
 3828 0174 3F       		.uleb128 0x3f
 3829 0175 19       		.uleb128 0x19
 3830 0176 03       		.uleb128 0x3
 3831 0177 0E       		.uleb128 0xe
 3832 0178 3A       		.uleb128 0x3a
 3833 0179 0B       		.uleb128 0xb
 3834 017a 3B       		.uleb128 0x3b
 3835 017b 05       		.uleb128 0x5
 3836 017c 27       		.uleb128 0x27
 3837 017d 19       		.uleb128 0x19
 3838 017e 11       		.uleb128 0x11
 3839 017f 01       		.uleb128 0x1
 3840 0180 12       		.uleb128 0x12
 3841 0181 06       		.uleb128 0x6
 3842 0182 40       		.uleb128 0x40
 3843 0183 18       		.uleb128 0x18
 3844 0184 9642     		.uleb128 0x2116
 3845 0186 19       		.uleb128 0x19
 3846 0187 00       		.byte	0
 3847 0188 00       		.byte	0
 3848 0189 1F       		.uleb128 0x1f
 3849 018a 0B       		.uleb128 0xb
 3850 018b 01       		.byte	0x1
 3851 018c 11       		.uleb128 0x11
 3852 018d 01       		.uleb128 0x1
 3853 018e 12       		.uleb128 0x12
 3854 018f 06       		.uleb128 0x6
 3855 0190 01       		.uleb128 0x1
 3856 0191 13       		.uleb128 0x13
ARM GAS  C:\Users\Matthew\AppData\Local\Temp\cc2Cvq26.s 			page 94


 3857 0192 00       		.byte	0
 3858 0193 00       		.byte	0
 3859 0194 20       		.uleb128 0x20
 3860 0195 2E       		.uleb128 0x2e
 3861 0196 01       		.byte	0x1
 3862 0197 3F       		.uleb128 0x3f
 3863 0198 19       		.uleb128 0x19
 3864 0199 03       		.uleb128 0x3
 3865 019a 0E       		.uleb128 0xe
 3866 019b 3A       		.uleb128 0x3a
 3867 019c 0B       		.uleb128 0xb
 3868 019d 3B       		.uleb128 0x3b
 3869 019e 05       		.uleb128 0x5
 3870 019f 27       		.uleb128 0x27
 3871 01a0 19       		.uleb128 0x19
 3872 01a1 11       		.uleb128 0x11
 3873 01a2 01       		.uleb128 0x1
 3874 01a3 12       		.uleb128 0x12
 3875 01a4 06       		.uleb128 0x6
 3876 01a5 40       		.uleb128 0x40
 3877 01a6 18       		.uleb128 0x18
 3878 01a7 9742     		.uleb128 0x2117
 3879 01a9 19       		.uleb128 0x19
 3880 01aa 01       		.uleb128 0x1
 3881 01ab 13       		.uleb128 0x13
 3882 01ac 00       		.byte	0
 3883 01ad 00       		.byte	0
 3884 01ae 21       		.uleb128 0x21
 3885 01af 34       		.uleb128 0x34
 3886 01b0 00       		.byte	0
 3887 01b1 03       		.uleb128 0x3
 3888 01b2 08       		.uleb128 0x8
 3889 01b3 3A       		.uleb128 0x3a
 3890 01b4 0B       		.uleb128 0xb
 3891 01b5 3B       		.uleb128 0x3b
 3892 01b6 05       		.uleb128 0x5
 3893 01b7 49       		.uleb128 0x49
 3894 01b8 13       		.uleb128 0x13
 3895 01b9 02       		.uleb128 0x2
 3896 01ba 18       		.uleb128 0x18
 3897 01bb 00       		.byte	0
 3898 01bc 00       		.byte	0
 3899 01bd 22       		.uleb128 0x22
 3900 01be 26       		.uleb128 0x26
 3901 01bf 00       		.byte	0
 3902 01c0 49       		.uleb128 0x49
 3903 01c1 13       		.uleb128 0x13
 3904 01c2 00       		.byte	0
 3905 01c3 00       		.byte	0
 3906 01c4 23       		.uleb128 0x23
 3907 01c5 2E       		.uleb128 0x2e
 3908 01c6 01       		.byte	0x1
 3909 01c7 03       		.uleb128 0x3
 3910 01c8 0E       		.uleb128 0xe
 3911 01c9 3A       		.uleb128 0x3a
 3912 01ca 0B       		.uleb128 0xb
 3913 01cb 3B       		.uleb128 0x3b
ARM GAS  C:\Users\Matthew\AppData\Local\Temp\cc2Cvq26.s 			page 95


 3914 01cc 05       		.uleb128 0x5
 3915 01cd 27       		.uleb128 0x27
 3916 01ce 19       		.uleb128 0x19
 3917 01cf 11       		.uleb128 0x11
 3918 01d0 01       		.uleb128 0x1
 3919 01d1 12       		.uleb128 0x12
 3920 01d2 06       		.uleb128 0x6
 3921 01d3 40       		.uleb128 0x40
 3922 01d4 18       		.uleb128 0x18
 3923 01d5 9742     		.uleb128 0x2117
 3924 01d7 19       		.uleb128 0x19
 3925 01d8 01       		.uleb128 0x1
 3926 01d9 13       		.uleb128 0x13
 3927 01da 00       		.byte	0
 3928 01db 00       		.byte	0
 3929 01dc 24       		.uleb128 0x24
 3930 01dd 2E       		.uleb128 0x2e
 3931 01de 01       		.byte	0x1
 3932 01df 3F       		.uleb128 0x3f
 3933 01e0 19       		.uleb128 0x19
 3934 01e1 03       		.uleb128 0x3
 3935 01e2 0E       		.uleb128 0xe
 3936 01e3 3A       		.uleb128 0x3a
 3937 01e4 0B       		.uleb128 0xb
 3938 01e5 3B       		.uleb128 0x3b
 3939 01e6 05       		.uleb128 0x5
 3940 01e7 27       		.uleb128 0x27
 3941 01e8 19       		.uleb128 0x19
 3942 01e9 49       		.uleb128 0x49
 3943 01ea 13       		.uleb128 0x13
 3944 01eb 11       		.uleb128 0x11
 3945 01ec 01       		.uleb128 0x1
 3946 01ed 12       		.uleb128 0x12
 3947 01ee 06       		.uleb128 0x6
 3948 01ef 40       		.uleb128 0x40
 3949 01f0 18       		.uleb128 0x18
 3950 01f1 9742     		.uleb128 0x2117
 3951 01f3 19       		.uleb128 0x19
 3952 01f4 01       		.uleb128 0x1
 3953 01f5 13       		.uleb128 0x13
 3954 01f6 00       		.byte	0
 3955 01f7 00       		.byte	0
 3956 01f8 25       		.uleb128 0x25
 3957 01f9 05       		.uleb128 0x5
 3958 01fa 00       		.byte	0
 3959 01fb 03       		.uleb128 0x3
 3960 01fc 08       		.uleb128 0x8
 3961 01fd 3A       		.uleb128 0x3a
 3962 01fe 0B       		.uleb128 0xb
 3963 01ff 3B       		.uleb128 0x3b
 3964 0200 05       		.uleb128 0x5
 3965 0201 49       		.uleb128 0x49
 3966 0202 13       		.uleb128 0x13
 3967 0203 02       		.uleb128 0x2
 3968 0204 18       		.uleb128 0x18
 3969 0205 00       		.byte	0
 3970 0206 00       		.byte	0
ARM GAS  C:\Users\Matthew\AppData\Local\Temp\cc2Cvq26.s 			page 96


 3971 0207 26       		.uleb128 0x26
 3972 0208 34       		.uleb128 0x34
 3973 0209 00       		.byte	0
 3974 020a 03       		.uleb128 0x3
 3975 020b 0E       		.uleb128 0xe
 3976 020c 3A       		.uleb128 0x3a
 3977 020d 0B       		.uleb128 0xb
 3978 020e 3B       		.uleb128 0x3b
 3979 020f 0B       		.uleb128 0xb
 3980 0210 49       		.uleb128 0x49
 3981 0211 13       		.uleb128 0x13
 3982 0212 02       		.uleb128 0x2
 3983 0213 18       		.uleb128 0x18
 3984 0214 00       		.byte	0
 3985 0215 00       		.byte	0
 3986 0216 27       		.uleb128 0x27
 3987 0217 34       		.uleb128 0x34
 3988 0218 00       		.byte	0
 3989 0219 03       		.uleb128 0x3
 3990 021a 0E       		.uleb128 0xe
 3991 021b 3A       		.uleb128 0x3a
 3992 021c 0B       		.uleb128 0xb
 3993 021d 3B       		.uleb128 0x3b
 3994 021e 0B       		.uleb128 0xb
 3995 021f 49       		.uleb128 0x49
 3996 0220 13       		.uleb128 0x13
 3997 0221 3F       		.uleb128 0x3f
 3998 0222 19       		.uleb128 0x19
 3999 0223 02       		.uleb128 0x2
 4000 0224 18       		.uleb128 0x18
 4001 0225 00       		.byte	0
 4002 0226 00       		.byte	0
 4003 0227 28       		.uleb128 0x28
 4004 0228 34       		.uleb128 0x34
 4005 0229 00       		.byte	0
 4006 022a 03       		.uleb128 0x3
 4007 022b 0E       		.uleb128 0xe
 4008 022c 3A       		.uleb128 0x3a
 4009 022d 0B       		.uleb128 0xb
 4010 022e 3B       		.uleb128 0x3b
 4011 022f 05       		.uleb128 0x5
 4012 0230 49       		.uleb128 0x49
 4013 0231 13       		.uleb128 0x13
 4014 0232 3F       		.uleb128 0x3f
 4015 0233 19       		.uleb128 0x19
 4016 0234 3C       		.uleb128 0x3c
 4017 0235 19       		.uleb128 0x19
 4018 0236 00       		.byte	0
 4019 0237 00       		.byte	0
 4020 0238 29       		.uleb128 0x29
 4021 0239 34       		.uleb128 0x34
 4022 023a 00       		.byte	0
 4023 023b 03       		.uleb128 0x3
 4024 023c 0E       		.uleb128 0xe
 4025 023d 3A       		.uleb128 0x3a
 4026 023e 0B       		.uleb128 0xb
 4027 023f 3B       		.uleb128 0x3b
ARM GAS  C:\Users\Matthew\AppData\Local\Temp\cc2Cvq26.s 			page 97


 4028 0240 0B       		.uleb128 0xb
 4029 0241 49       		.uleb128 0x49
 4030 0242 13       		.uleb128 0x13
 4031 0243 3F       		.uleb128 0x3f
 4032 0244 19       		.uleb128 0x19
 4033 0245 3C       		.uleb128 0x3c
 4034 0246 19       		.uleb128 0x19
 4035 0247 00       		.byte	0
 4036 0248 00       		.byte	0
 4037 0249 00       		.byte	0
 4038              		.section	.debug_aranges,"",%progbits
 4039 0000 84000000 		.4byte	0x84
 4040 0004 0200     		.2byte	0x2
 4041 0006 00000000 		.4byte	.Ldebug_info0
 4042 000a 04       		.byte	0x4
 4043 000b 00       		.byte	0
 4044 000c 0000     		.2byte	0
 4045 000e 0000     		.2byte	0
 4046 0010 00000000 		.4byte	.LFB2
 4047 0014 40000000 		.4byte	.LFE2-.LFB2
 4048 0018 00000000 		.4byte	.LFB3
 4049 001c 0C000000 		.4byte	.LFE3-.LFB3
 4050 0020 00000000 		.4byte	.LFB4
 4051 0024 34010000 		.4byte	.LFE4-.LFB4
 4052 0028 00000000 		.4byte	.LFB5
 4053 002c 18000000 		.4byte	.LFE5-.LFB5
 4054 0030 00000000 		.4byte	.LFB6
 4055 0034 C0010000 		.4byte	.LFE6-.LFB6
 4056 0038 00000000 		.4byte	.LFB7
 4057 003c E8000000 		.4byte	.LFE7-.LFB7
 4058 0040 00000000 		.4byte	.LFB8
 4059 0044 D4000000 		.4byte	.LFE8-.LFB8
 4060 0048 00000000 		.4byte	.LFB9
 4061 004c 20000000 		.4byte	.LFE9-.LFB9
 4062 0050 00000000 		.4byte	.LFB10
 4063 0054 60000000 		.4byte	.LFE10-.LFB10
 4064 0058 00000000 		.4byte	.LFB11
 4065 005c A4010000 		.4byte	.LFE11-.LFB11
 4066 0060 00000000 		.4byte	.LFB12
 4067 0064 C8000000 		.4byte	.LFE12-.LFB12
 4068 0068 00000000 		.4byte	.LFB13
 4069 006c A4000000 		.4byte	.LFE13-.LFB13
 4070 0070 00000000 		.4byte	.LFB14
 4071 0074 26000000 		.4byte	.LFE14-.LFB14
 4072 0078 00000000 		.4byte	.LFB15
 4073 007c 2E000000 		.4byte	.LFE15-.LFB15
 4074 0080 00000000 		.4byte	0
 4075 0084 00000000 		.4byte	0
 4076              		.section	.debug_ranges,"",%progbits
 4077              	.Ldebug_ranges0:
 4078 0000 00000000 		.4byte	.LFB2
 4079 0004 40000000 		.4byte	.LFE2
 4080 0008 00000000 		.4byte	.LFB3
 4081 000c 0C000000 		.4byte	.LFE3
 4082 0010 00000000 		.4byte	.LFB4
 4083 0014 34010000 		.4byte	.LFE4
 4084 0018 00000000 		.4byte	.LFB5
ARM GAS  C:\Users\Matthew\AppData\Local\Temp\cc2Cvq26.s 			page 98


 4085 001c 18000000 		.4byte	.LFE5
 4086 0020 00000000 		.4byte	.LFB6
 4087 0024 C0010000 		.4byte	.LFE6
 4088 0028 00000000 		.4byte	.LFB7
 4089 002c E8000000 		.4byte	.LFE7
 4090 0030 00000000 		.4byte	.LFB8
 4091 0034 D4000000 		.4byte	.LFE8
 4092 0038 00000000 		.4byte	.LFB9
 4093 003c 20000000 		.4byte	.LFE9
 4094 0040 00000000 		.4byte	.LFB10
 4095 0044 60000000 		.4byte	.LFE10
 4096 0048 00000000 		.4byte	.LFB11
 4097 004c A4010000 		.4byte	.LFE11
 4098 0050 00000000 		.4byte	.LFB12
 4099 0054 C8000000 		.4byte	.LFE12
 4100 0058 00000000 		.4byte	.LFB13
 4101 005c A4000000 		.4byte	.LFE13
 4102 0060 00000000 		.4byte	.LFB14
 4103 0064 26000000 		.4byte	.LFE14
 4104 0068 00000000 		.4byte	.LFB15
 4105 006c 2E000000 		.4byte	.LFE15
 4106 0070 00000000 		.4byte	0
 4107 0074 00000000 		.4byte	0
 4108              		.section	.debug_line,"",%progbits
 4109              	.Ldebug_line0:
 4110 0000 EF020000 		.section	.debug_str,"MS",%progbits,1
 4110      0200C800 
 4110      00000201 
 4110      FB0E0D00 
 4110      01010101 
 4111              	.LASF77:
 4112 0000 4359424C 		.ascii	"CYBLE_EVT_L2CAP_CBFC_RX_CREDIT_IND\000"
 4112      455F4556 
 4112      545F4C32 
 4112      4341505F 
 4112      43424643 
 4113              	.LASF22:
 4114 0023 4359424C 		.ascii	"CYBLE_EVT_STACK_BUSY_STATUS\000"
 4114      455F4556 
 4114      545F5354 
 4114      41434B5F 
 4114      42555359 
 4115              	.LASF181:
 4116 003f 4359424C 		.ascii	"CYBLE_STATE_STOPPED\000"
 4116      455F5354 
 4116      4154455F 
 4116      53544F50 
 4116      50454400 
 4117              	.LASF76:
 4118 0053 4359424C 		.ascii	"CYBLE_EVT_L2CAP_CBFC_DATA_READ\000"
 4118      455F4556 
 4118      545F4C32 
 4118      4341505F 
 4118      43424643 
 4119              	.LASF159:
 4120 0072 4359424C 		.ascii	"CYBLE_CONN_HANDLE_T\000"
 4120      455F434F 
ARM GAS  C:\Users\Matthew\AppData\Local\Temp\cc2Cvq26.s 			page 99


 4120      4E4E5F48 
 4120      414E444C 
 4120      455F5400 
 4121              	.LASF200:
 4122 0086 64656661 		.ascii	"defaultValuesCCCD\000"
 4122      756C7456 
 4122      616C7565 
 4122      73434343 
 4122      4400
 4123              	.LASF86:
 4124 0098 4359424C 		.ascii	"CYBLE_ERROR_MEMORY_ALLOCATION_FAILED\000"
 4124      455F4552 
 4124      524F525F 
 4124      4D454D4F 
 4124      52595F41 
 4125              	.LASF149:
 4126 00bd 4359424C 		.ascii	"CYBLE_GAPP_DISC_DATA_T\000"
 4126      455F4741 
 4126      50505F44 
 4126      4953435F 
 4126      44415441 
 4127              	.LASF43:
 4128 00d4 4359424C 		.ascii	"CYBLE_EVT_GAP_SMP_NEGOTIATED_AUTH_INFO\000"
 4128      455F4556 
 4128      545F4741 
 4128      505F534D 
 4128      505F4E45 
 4129              	.LASF109:
 4130 00fb 4359424C 		.ascii	"CYBLE_ERROR_CONTROLLER_BUSY\000"
 4130      455F4552 
 4130      524F525F 
 4130      434F4E54 
 4130      524F4C4C 
 4131              	.LASF34:
 4132 0117 4359424C 		.ascii	"CYBLE_EVT_GAP_CONNECTION_UPDATE_COMPLETE\000"
 4132      455F4556 
 4132      545F4741 
 4132      505F434F 
 4132      4E4E4543 
 4133              	.LASF144:
 4134 0140 61647643 		.ascii	"advChannelMap\000"
 4134      68616E6E 
 4134      656C4D61 
 4134      7000
 4135              	.LASF75:
 4136 014e 4359424C 		.ascii	"CYBLE_EVT_L2CAP_CBFC_DISCONN_CNF\000"
 4136      455F4556 
 4136      545F4C32 
 4136      4341505F 
 4136      43424643 
 4137              	.LASF107:
 4138 016f 4359424C 		.ascii	"CYBLE_ERROR_UNSUPPORTED_FEATURE_OR_PARAMETER_VALUE\000"
 4138      455F4552 
 4138      524F525F 
 4138      554E5355 
 4138      50504F52 
 4139              	.LASF133:
ARM GAS  C:\Users\Matthew\AppData\Local\Temp\cc2Cvq26.s 			page 100


 4140 01a2 4359424C 		.ascii	"CYBLE_GAPP_CONNECTABLE_HIGH_DC_DIRECTED_ADV\000"
 4140      455F4741 
 4140      50505F43 
 4140      4F4E4E45 
 4140      43544142 
 4141              	.LASF39:
 4142 01ce 4359424C 		.ascii	"CYBLE_EVT_GAP_OOB_GENERATED_NOTIFICATION\000"
 4142      455F4556 
 4142      545F4741 
 4142      505F4F4F 
 4142      425F4745 
 4143              	.LASF55:
 4144 01f7 4359424C 		.ascii	"CYBLE_EVT_GATTC_READ_MULTI_RSP\000"
 4144      455F4556 
 4144      545F4741 
 4144      5454435F 
 4144      52454144 
 4145              	.LASF60:
 4146 0216 4359424C 		.ascii	"CYBLE_EVT_GATTS_EXEC_WRITE_REQ\000"
 4146      455F4556 
 4146      545F4741 
 4146      5454535F 
 4146      45584543 
 4147              	.LASF224:
 4148 0235 6379426C 		.ascii	"cyBle_stackMemoryRam\000"
 4148      655F7374 
 4148      61636B4D 
 4148      656D6F72 
 4148      7952616D 
 4149              	.LASF222:
 4150 024a 4379426C 		.ascii	"CyBle_ApplCallback\000"
 4150      655F4170 
 4150      706C4361 
 4150      6C6C6261 
 4150      636B00
 4151              	.LASF122:
 4152 025d 646C654D 		.ascii	"dleMaxTxCapability\000"
 4152      61785478 
 4152      43617061 
 4152      62696C69 
 4152      747900
 4153              	.LASF117:
 4154 0270 74797065 		.ascii	"type\000"
 4154      00
 4155              	.LASF178:
 4156 0275 63636364 		.ascii	"cccdCount\000"
 4156      436F756E 
 4156      7400
 4157              	.LASF19:
 4158 027f 4359424C 		.ascii	"CYBLE_EVT_TIMEOUT\000"
 4158      455F4556 
 4158      545F5449 
 4158      4D454F55 
 4158      5400
 4159              	.LASF4:
 4160 0291 6C6F6E67 		.ascii	"long int\000"
 4160      20696E74 
ARM GAS  C:\Users\Matthew\AppData\Local\Temp\cc2Cvq26.s 			page 101


 4160      00
 4161              	.LASF106:
 4162 029a 4359424C 		.ascii	"CYBLE_ERROR_HARDWARE_FAILURE\000"
 4162      455F4552 
 4162      524F525F 
 4162      48415244 
 4162      57415245 
 4163              	.LASF127:
 4164 02b7 4359424C 		.ascii	"CYBLE_PRIVACY_1_2_CONFIG_PARAM_T\000"
 4164      455F5052 
 4164      49564143 
 4164      595F315F 
 4164      325F434F 
 4165              	.LASF206:
 4166 02d8 4379426C 		.ascii	"CyBle_GappStopAdvertisement\000"
 4166      655F4761 
 4166      70705374 
 4166      6F704164 
 4166      76657274 
 4167              	.LASF229:
 4168 02f4 6379426C 		.ascii	"cyBle_discoveryData\000"
 4168      655F6469 
 4168      73636F76 
 4168      65727944 
 4168      61746100 
 4169              	.LASF96:
 4170 0308 4359424C 		.ascii	"CYBLE_ERROR_L2CAP_PSM_WRONG_ENCODING\000"
 4170      455F4552 
 4170      524F525F 
 4170      4C324341 
 4170      505F5053 
 4171              	.LASF87:
 4172 032d 4359424C 		.ascii	"CYBLE_ERROR_INSUFFICIENT_RESOURCES\000"
 4172      455F4552 
 4172      524F525F 
 4172      494E5355 
 4172      46464943 
 4173              	.LASF21:
 4174 0350 4359424C 		.ascii	"CYBLE_EVT_HCI_STATUS\000"
 4174      455F4556 
 4174      545F4843 
 4174      495F5354 
 4174      41545553 
 4175              	.LASF140:
 4176 0365 61647654 		.ascii	"advType\000"
 4176      79706500 
 4177              	.LASF35:
 4178 036d 4359424C 		.ascii	"CYBLE_EVT_GAPC_SCAN_START_STOP\000"
 4178      455F4556 
 4178      545F4741 
 4178      50435F53 
 4178      43414E5F 
 4179              	.LASF239:
 4180 038c 6379426C 		.ascii	"cyBle_busyStatus\000"
 4180      655F6275 
 4180      73795374 
 4180      61747573 
ARM GAS  C:\Users\Matthew\AppData\Local\Temp\cc2Cvq26.s 			page 102


 4180      00
 4181              	.LASF132:
 4182 039d 4359424C 		.ascii	"CYBLE_GAPP_CONNECTABLE_UNDIRECTED_ADV\000"
 4182      455F4741 
 4182      50505F43 
 4182      4F4E4E45 
 4182      43544142 
 4183              	.LASF118:
 4184 03c3 4359424C 		.ascii	"CYBLE_GAP_BD_ADDR_T\000"
 4184      455F4741 
 4184      505F4244 
 4184      5F414444 
 4184      525F5400 
 4185              	.LASF95:
 4186 03d7 4359424C 		.ascii	"CYBLE_ERROR_SEC_FAILED\000"
 4186      455F4552 
 4186      524F525F 
 4186      5345435F 
 4186      4641494C 
 4187              	.LASF100:
 4188 03ee 4359424C 		.ascii	"CYBLE_ERROR_L2CAP_CHANNEL_NOT_FOUND\000"
 4188      455F4552 
 4188      524F525F 
 4188      4C324341 
 4188      505F4348 
 4189              	.LASF33:
 4190 0412 4359424C 		.ascii	"CYBLE_EVT_GAP_ENCRYPT_CHANGE\000"
 4190      455F4556 
 4190      545F4741 
 4190      505F454E 
 4190      43525950 
 4191              	.LASF37:
 4192 042f 4359424C 		.ascii	"CYBLE_EVT_GAP_NUMERIC_COMPARISON_REQUEST\000"
 4192      455F4556 
 4192      545F4741 
 4192      505F4E55 
 4192      4D455249 
 4193              	.LASF78:
 4194 0458 4359424C 		.ascii	"CYBLE_EVT_L2CAP_CBFC_TX_CREDIT_IND\000"
 4194      455F4556 
 4194      545F4C32 
 4194      4341505F 
 4194      43424643 
 4195              	.LASF184:
 4196 047b 4359424C 		.ascii	"CYBLE_STATE_ADVERTISING\000"
 4196      455F5354 
 4196      4154455F 
 4196      41445645 
 4196      52544953 
 4197              	.LASF221:
 4198 0493 6379426C 		.ascii	"cyBle_pendingFlashClearCccdHandle\000"
 4198      655F7065 
 4198      6E64696E 
 4198      67466C61 
 4198      7368436C 
 4199              	.LASF0:
 4200 04b5 7369676E 		.ascii	"signed char\000"
ARM GAS  C:\Users\Matthew\AppData\Local\Temp\cc2Cvq26.s 			page 103


 4200      65642063 
 4200      68617200 
 4201              	.LASF18:
 4202 04c1 4359424C 		.ascii	"CYBLE_EVT_STACK_ON\000"
 4202      455F4556 
 4202      545F5354 
 4202      41434B5F 
 4202      4F4E00
 4203              	.LASF103:
 4204 04d4 4359424C 		.ascii	"CYBLE_ERROR_DEVICE_ALREADY_EXISTS\000"
 4204      455F4552 
 4204      524F525F 
 4204      44455649 
 4204      43455F41 
 4205              	.LASF90:
 4206 04f6 4359424C 		.ascii	"CYBLE_ERROR_NO_DEVICE_ENTITY\000"
 4206      455F4552 
 4206      524F525F 
 4206      4E4F5F44 
 4206      45564943 
 4207              	.LASF143:
 4208 0513 64697265 		.ascii	"directAddr\000"
 4208      63744164 
 4208      647200
 4209              	.LASF214:
 4210 051e 4379426C 		.ascii	"CyBle_GapSetLocalName\000"
 4210      655F4761 
 4210      70536574 
 4210      4C6F6361 
 4210      6C4E616D 
 4211              	.LASF25:
 4212 0534 4359424C 		.ascii	"CYBLE_EVT_GAP_AUTH_REQ\000"
 4212      455F4556 
 4212      545F4741 
 4212      505F4155 
 4212      54485F52 
 4213              	.LASF171:
 4214 054b 7065726D 		.ascii	"permission\000"
 4214      69737369 
 4214      6F6E00
 4215              	.LASF53:
 4216 0556 4359424C 		.ascii	"CYBLE_EVT_GATTC_READ_RSP\000"
 4216      455F4556 
 4216      545F4741 
 4216      5454435F 
 4216      52454144 
 4217              	.LASF114:
 4218 056f 4359424C 		.ascii	"CYBLE_ERROR_INVALID_STATE\000"
 4218      455F4552 
 4218      524F525F 
 4218      494E5641 
 4218      4C49445F 
 4219              	.LASF145:
 4220 0589 61647646 		.ascii	"advFilterPolicy\000"
 4220      696C7465 
 4220      72506F6C 
 4220      69637900 
ARM GAS  C:\Users\Matthew\AppData\Local\Temp\cc2Cvq26.s 			page 104


 4221              	.LASF58:
 4222 0599 4359424C 		.ascii	"CYBLE_EVT_GATTS_WRITE_CMD_REQ\000"
 4222      455F4556 
 4222      545F4741 
 4222      5454535F 
 4222      57524954 
 4223              	.LASF199:
 4224 05b7 6973466F 		.ascii	"isForceWrite\000"
 4224      72636557 
 4224      72697465 
 4224      00
 4225              	.LASF139:
 4226 05c4 61647649 		.ascii	"advIntvMax\000"
 4226      6E74764D 
 4226      617800
 4227              	.LASF185:
 4228 05cf 4359424C 		.ascii	"CYBLE_STATE_DISCONNECTED\000"
 4228      455F5354 
 4228      4154455F 
 4228      44495343 
 4228      4F4E4E45 
 4229              	.LASF30:
 4230 05e8 4359424C 		.ascii	"CYBLE_EVT_GAPP_ADVERTISEMENT_START_STOP\000"
 4230      455F4556 
 4230      545F4741 
 4230      50505F41 
 4230      44564552 
 4231              	.LASF101:
 4232 0610 4359424C 		.ascii	"CYBLE_ERROR_L2CAP_PSM_NOT_IN_RANGE\000"
 4232      455F4552 
 4232      524F525F 
 4232      4C324341 
 4232      505F5053 
 4233              	.LASF47:
 4234 0633 4359424C 		.ascii	"CYBLE_EVT_GATTS_XCNHG_MTU_REQ\000"
 4234      455F4556 
 4234      545F4741 
 4234      5454535F 
 4234      58434E48 
 4235              	.LASF9:
 4236 0651 75696E74 		.ascii	"uint8\000"
 4236      3800
 4237              	.LASF150:
 4238 0657 7363616E 		.ascii	"scanRspData\000"
 4238      52737044 
 4238      61746100 
 4239              	.LASF6:
 4240 0663 6C6F6E67 		.ascii	"long long int\000"
 4240      206C6F6E 
 4240      6720696E 
 4240      7400
 4241              	.LASF116:
 4242 0671 62644164 		.ascii	"bdAddr\000"
 4242      647200
 4243              	.LASF61:
 4244 0678 4359424C 		.ascii	"CYBLE_EVT_GATTC_EXEC_WRITE_RSP\000"
 4244      455F4556 
ARM GAS  C:\Users\Matthew\AppData\Local\Temp\cc2Cvq26.s 			page 105


 4244      545F4741 
 4244      5454435F 
 4244      45584543 
 4245              	.LASF165:
 4246 0697 4359424C 		.ascii	"CYBLE_GATTS_ATT_PACK_VAL_LEN_T\000"
 4246      455F4741 
 4246      5454535F 
 4246      4154545F 
 4246      5041434B 
 4247              	.LASF13:
 4248 06b6 646F7562 		.ascii	"double\000"
 4248      6C6500
 4249              	.LASF74:
 4250 06bd 4359424C 		.ascii	"CYBLE_EVT_L2CAP_CBFC_DISCONN_IND\000"
 4250      455F4556 
 4250      545F4C32 
 4250      4341505F 
 4250      43424643 
 4251              	.LASF153:
 4252 06de 64697363 		.ascii	"discMode\000"
 4252      4D6F6465 
 4252      00
 4253              	.LASF84:
 4254 06e7 4359424C 		.ascii	"CYBLE_ERROR_INVALID_PARAMETER\000"
 4254      455F4552 
 4254      524F525F 
 4254      494E5641 
 4254      4C49445F 
 4255              	.LASF176:
 4256 0705 73746163 		.ascii	"stackFlashptr\000"
 4256      6B466C61 
 4256      73687074 
 4256      7200
 4257              	.LASF168:
 4258 0713 4359424C 		.ascii	"CYBLE_GATTS_ATT_VALUE_T\000"
 4258      455F4741 
 4258      5454535F 
 4258      4154545F 
 4258      56414C55 
 4259              	.LASF169:
 4260 072b 61747448 		.ascii	"attHandle\000"
 4260      616E646C 
 4260      6500
 4261              	.LASF11:
 4262 0735 75696E74 		.ascii	"uint32\000"
 4262      333200
 4263              	.LASF203:
 4264 073c 696E7661 		.ascii	"invalidBdAddr\000"
 4264      6C696442 
 4264      64416464 
 4264      7200
 4265              	.LASF208:
 4266 074a 64657374 		.ascii	"destBuffer\000"
 4266      42756666 
 4266      657200
 4267              	.LASF82:
 4268 0755 4359424C 		.ascii	"CYBLE_EVT_MAX\000"
ARM GAS  C:\Users\Matthew\AppData\Local\Temp\cc2Cvq26.s 			page 106


 4268      455F4556 
 4268      545F4D41 
 4268      5800
 4269              	.LASF83:
 4270 0763 4359424C 		.ascii	"CYBLE_ERROR_OK\000"
 4270      455F4552 
 4270      524F525F 
 4270      4F4B00
 4271              	.LASF44:
 4272 0772 4359424C 		.ascii	"CYBLE_EVT_GATTC_ERROR_RSP\000"
 4272      455F4556 
 4272      545F4741 
 4272      5454435F 
 4272      4552524F 
 4273              	.LASF69:
 4274 078c 4359424C 		.ascii	"CYBLE_EVT_L2CAP_CONN_PARAM_UPDATE_REQ\000"
 4274      455F4556 
 4274      545F4C32 
 4274      4341505F 
 4274      434F4E4E 
 4275              	.LASF79:
 4276 07b2 4359424C 		.ascii	"CYBLE_EVT_L2CAP_CBFC_DATA_WRITE_IND\000"
 4276      455F4556 
 4276      545F4C32 
 4276      4341505F 
 4276      43424643 
 4277              	.LASF170:
 4278 07d6 61747454 		.ascii	"attType\000"
 4278      79706500 
 4279              	.LASF148:
 4280 07de 61647644 		.ascii	"advDataLen\000"
 4280      6174614C 
 4280      656E00
 4281              	.LASF7:
 4282 07e9 6C6F6E67 		.ascii	"long long unsigned int\000"
 4282      206C6F6E 
 4282      6720756E 
 4282      7369676E 
 4282      65642069 
 4283              	.LASF220:
 4284 0800 76616C75 		.ascii	"value\000"
 4284      6500
 4285              	.LASF243:
 4286 0806 433A5C55 		.ascii	"C:\\Users\\Matthew\\Documents\\GitHub\\BioSnap\\Mas"
 4286      73657273 
 4286      5C4D6174 
 4286      74686577 
 4286      5C446F63 
 4287 0833 7465725F 		.ascii	"ter_v2\\Master_2.cydsn\000"
 4287      76325C4D 
 4287      61737465 
 4287      725F322E 
 4287      63796473 
 4288              	.LASF68:
 4289 0849 4359424C 		.ascii	"CYBLE_EVT_GATTC_LONG_PROCEDURE_END\000"
 4289      455F4556 
 4289      545F4741 
ARM GAS  C:\Users\Matthew\AppData\Local\Temp\cc2Cvq26.s 			page 107


 4289      5454435F 
 4289      4C4F4E47 
 4290              	.LASF66:
 4291 086c 4359424C 		.ascii	"CYBLE_EVT_GATTC_STOP_CMD_COMPLETE\000"
 4291      455F4556 
 4291      545F4741 
 4291      5454435F 
 4291      53544F50 
 4292              	.LASF216:
 4293 088e 4379426C 		.ascii	"CyBle_GapGetLocalName\000"
 4293      655F4761 
 4293      70476574 
 4293      4C6F6361 
 4293      6C4E616D 
 4294              	.LASF88:
 4295 08a4 4359424C 		.ascii	"CYBLE_ERROR_OOB_NOT_AVAILABLE\000"
 4295      455F4552 
 4295      524F525F 
 4295      4F4F425F 
 4295      4E4F545F 
 4296              	.LASF228:
 4297 08c2 6379426C 		.ascii	"cyBle_discoveryParam\000"
 4297      655F6469 
 4297      73636F76 
 4297      65727950 
 4297      6172616D 
 4298              	.LASF188:
 4299 08d7 4379426C 		.ascii	"CyBle_ServiceInit\000"
 4299      655F5365 
 4299      72766963 
 4299      65496E69 
 4299      7400
 4300              	.LASF97:
 4301 08e9 4359424C 		.ascii	"CYBLE_ERROR_L2CAP_PSM_ALREADY_REGISTERED\000"
 4301      455F4552 
 4301      524F525F 
 4301      4C324341 
 4301      505F5053 
 4302              	.LASF191:
 4303 0912 646C6543 		.ascii	"dleConfigParams\000"
 4303      6F6E6669 
 4303      67506172 
 4303      616D7300 
 4304              	.LASF5:
 4305 0922 6C6F6E67 		.ascii	"long unsigned int\000"
 4305      20756E73 
 4305      69676E65 
 4305      6420696E 
 4305      7400
 4306              	.LASF56:
 4307 0934 4359424C 		.ascii	"CYBLE_EVT_GATTS_WRITE_REQ\000"
 4307      455F4556 
 4307      545F4741 
 4307      5454535F 
 4307      57524954 
 4308              	.LASF48:
 4309 094e 4359424C 		.ascii	"CYBLE_EVT_GATTC_XCHNG_MTU_RSP\000"
ARM GAS  C:\Users\Matthew\AppData\Local\Temp\cc2Cvq26.s 			page 108


 4309      455F4556 
 4309      545F4741 
 4309      5454435F 
 4309      5843484E 
 4310              	.LASF65:
 4311 096c 4359424C 		.ascii	"CYBLE_EVT_GATTS_DATA_SIGNED_CMD_REQ\000"
 4311      455F4556 
 4311      545F4741 
 4311      5454535F 
 4311      44415441 
 4312              	.LASF209:
 4313 0990 6E616D65 		.ascii	"name\000"
 4313      00
 4314              	.LASF192:
 4315 0995 70726976 		.ascii	"privacyConfigParams\000"
 4315      61637943 
 4315      6F6E6669 
 4315      67506172 
 4315      616D7300 
 4316              	.LASF166:
 4317 09a9 61747446 		.ascii	"attFormatValue\000"
 4317      6F726D61 
 4317      7456616C 
 4317      756500
 4318              	.LASF152:
 4319 09b8 4359424C 		.ascii	"CYBLE_GAPP_SCAN_RSP_DATA_T\000"
 4319      455F4741 
 4319      50505F53 
 4319      43414E5F 
 4319      5253505F 
 4320              	.LASF235:
 4321 09d3 6379426C 		.ascii	"cyBle_attValuesCCCD\000"
 4321      655F6174 
 4321      7456616C 
 4321      75657343 
 4321      43434400 
 4322              	.LASF120:
 4323 09e7 62756666 		.ascii	"bufferUnits\000"
 4323      6572556E 
 4323      69747300 
 4324              	.LASF111:
 4325 09f3 4359424C 		.ascii	"CYBLE_ERROR_NTF_DISABLED\000"
 4325      455F4552 
 4325      524F525F 
 4325      4E54465F 
 4325      44495341 
 4326              	.LASF17:
 4327 0a0c 4359424C 		.ascii	"CYBLE_EVT_HOST_INVALID\000"
 4327      455F4556 
 4327      545F484F 
 4327      53545F49 
 4327      4E56414C 
 4328              	.LASF51:
 4329 0a23 4359424C 		.ascii	"CYBLE_EVT_GATTC_FIND_INFO_RSP\000"
 4329      455F4556 
 4329      545F4741 
 4329      5454435F 
ARM GAS  C:\Users\Matthew\AppData\Local\Temp\cc2Cvq26.s 			page 109


 4329      46494E44 
 4330              	.LASF23:
 4331 0a41 4359424C 		.ascii	"CYBLE_EVT_MEMORY_REQUEST\000"
 4331      455F4556 
 4331      545F4D45 
 4331      4D4F5259 
 4331      5F524551 
 4332              	.LASF223:
 4333 0a5a 6379426C 		.ascii	"cyBle_initVar\000"
 4333      655F696E 
 4333      69745661 
 4333      7200
 4334              	.LASF26:
 4335 0a68 4359424C 		.ascii	"CYBLE_EVT_GAP_PASSKEY_ENTRY_REQUEST\000"
 4335      455F4556 
 4335      545F4741 
 4335      505F5041 
 4335      53534B45 
 4336              	.LASF31:
 4337 0a8c 4359424C 		.ascii	"CYBLE_EVT_GAP_DEVICE_CONNECTED\000"
 4337      455F4556 
 4337      545F4741 
 4337      505F4445 
 4337      56494345 
 4338              	.LASF163:
 4339 0aab 6D617841 		.ascii	"maxAttrLength\000"
 4339      7474724C 
 4339      656E6774 
 4339      6800
 4340              	.LASF219:
 4341 0ab9 4379426C 		.ascii	"CyBle_Set16ByPtr\000"
 4341      655F5365 
 4341      74313642 
 4341      79507472 
 4341      00
 4342              	.LASF124:
 4343 0aca 646C654E 		.ascii	"dleNumTxBuffer\000"
 4343      756D5478 
 4343      42756666 
 4343      657200
 4344              	.LASF151:
 4345 0ad9 7363616E 		.ascii	"scanRspDataLen\000"
 4345      52737044 
 4345      6174614C 
 4345      656E00
 4346              	.LASF196:
 4347 0ae8 4379426C 		.ascii	"CyBle_Start\000"
 4347      655F5374 
 4347      61727400 
 4348              	.LASF202:
 4349 0af4 62446576 		.ascii	"bDevHandle\000"
 4349      48616E64 
 4349      6C6500
 4350              	.LASF177:
 4351 0aff 61747456 		.ascii	"attValuesCCCDFlashMemory\000"
 4351      616C7565 
 4351      73434343 
ARM GAS  C:\Users\Matthew\AppData\Local\Temp\cc2Cvq26.s 			page 110


 4351      44466C61 
 4351      73684D65 
 4352              	.LASF160:
 4353 0b18 61637475 		.ascii	"actualLength\000"
 4353      616C4C65 
 4353      6E677468 
 4353      00
 4354              	.LASF237:
 4355 0b25 6379426C 		.ascii	"cyBle_state\000"
 4355      655F7374 
 4355      61746500 
 4356              	.LASF27:
 4357 0b31 4359424C 		.ascii	"CYBLE_EVT_GAP_PASSKEY_DISPLAY_REQUEST\000"
 4357      455F4556 
 4357      545F4741 
 4357      505F5041 
 4357      53534B45 
 4358              	.LASF45:
 4359 0b57 4359424C 		.ascii	"CYBLE_EVT_GATT_CONNECT_IND\000"
 4359      455F4556 
 4359      545F4741 
 4359      54545F43 
 4359      4F4E4E45 
 4360              	.LASF121:
 4361 0b72 4359424C 		.ascii	"CYBLE_STK_APP_DATA_BUFF_T\000"
 4361      455F5354 
 4361      4B5F4150 
 4361      505F4441 
 4361      54415F42 
 4362              	.LASF158:
 4363 0b8c 61747449 		.ascii	"attId\000"
 4363      6400
 4364              	.LASF215:
 4365 0b92 63686172 		.ascii	"charLen\000"
 4365      4C656E00 
 4366              	.LASF71:
 4367 0b9a 4359424C 		.ascii	"CYBLE_EVT_L2CAP_COMMAND_REJ\000"
 4367      455F4556 
 4367      545F4C32 
 4367      4341505F 
 4367      434F4D4D 
 4368              	.LASF24:
 4369 0bb6 4359424C 		.ascii	"CYBLE_EVT_GAPC_SCAN_PROGRESS_RESULT\000"
 4369      455F4556 
 4369      545F4741 
 4369      50435F53 
 4369      43414E5F 
 4370              	.LASF225:
 4371 0bda 6379426C 		.ascii	"cyBle_eventHandlerFlag\000"
 4371      655F6576 
 4371      656E7448 
 4371      616E646C 
 4371      6572466C 
 4372              	.LASF110:
 4373 0bf1 4359424C 		.ascii	"CYBLE_ERROR_MAX\000"
 4373      455F4552 
 4373      524F525F 
ARM GAS  C:\Users\Matthew\AppData\Local\Temp\cc2Cvq26.s 			page 111


 4373      4D415800 
 4374              	.LASF108:
 4375 0c01 4359424C 		.ascii	"CYBLE_ERROR_FLASH_WRITE\000"
 4375      455F4552 
 4375      524F525F 
 4375      464C4153 
 4375      485F5752 
 4376              	.LASF50:
 4377 0c19 4359424C 		.ascii	"CYBLE_EVT_GATTC_READ_BY_TYPE_RSP\000"
 4377      455F4556 
 4377      545F4741 
 4377      5454435F 
 4377      52454144 
 4378              	.LASF231:
 4379 0c3a 6379426C 		.ascii	"cyBle_discoveryModeInfo\000"
 4379      655F6469 
 4379      73636F76 
 4379      6572794D 
 4379      6F646549 
 4380              	.LASF16:
 4381 0c52 73697A65 		.ascii	"sizetype\000"
 4381      74797065 
 4381      00
 4382              	.LASF182:
 4383 0c5b 4359424C 		.ascii	"CYBLE_STATE_INITIALIZING\000"
 4383      455F5354 
 4383      4154455F 
 4383      494E4954 
 4383      49414C49 
 4384              	.LASF141:
 4385 0c74 6F776E41 		.ascii	"ownAddrType\000"
 4385      64647254 
 4385      79706500 
 4386              	.LASF29:
 4387 0c80 4359424C 		.ascii	"CYBLE_EVT_GAP_AUTH_FAILED\000"
 4387      455F4556 
 4387      545F4741 
 4387      505F4155 
 4387      54485F46 
 4388              	.LASF238:
 4389 0c9a 6379426C 		.ascii	"cyBle_connHandle\000"
 4389      655F636F 
 4389      6E6E4861 
 4389      6E646C65 
 4389      00
 4390              	.LASF57:
 4391 0cab 4359424C 		.ascii	"CYBLE_EVT_GATTC_WRITE_RSP\000"
 4391      455F4556 
 4391      545F4741 
 4391      5454435F 
 4391      57524954 
 4392              	.LASF42:
 4393 0cc5 4359424C 		.ascii	"CYBLE_EVT_GAPC_DIRECT_ADV_REPORT\000"
 4393      455F4556 
 4393      545F4741 
 4393      50435F44 
 4393      49524543 
ARM GAS  C:\Users\Matthew\AppData\Local\Temp\cc2Cvq26.s 			page 112


 4394              	.LASF40:
 4395 0ce6 4359424C 		.ascii	"CYBLE_EVT_GAP_DATA_LENGTH_CHANGE\000"
 4395      455F4556 
 4395      545F4741 
 4395      505F4441 
 4395      54415F4C 
 4396              	.LASF179:
 4397 0d07 626F756E 		.ascii	"boundedDevCount\000"
 4397      64656444 
 4397      6576436F 
 4397      756E7400 
 4398              	.LASF28:
 4399 0d17 4359424C 		.ascii	"CYBLE_EVT_GAP_AUTH_COMPLETE\000"
 4399      455F4556 
 4399      545F4741 
 4399      505F4155 
 4399      54485F43 
 4400              	.LASF189:
 4401 0d33 61706952 		.ascii	"apiResult\000"
 4401      6573756C 
 4401      7400
 4402              	.LASF115:
 4403 0d3d 4359424C 		.ascii	"CYBLE_API_RESULT_T\000"
 4403      455F4150 
 4403      495F5245 
 4403      53554C54 
 4403      5F5400
 4404              	.LASF195:
 4405 0d50 4379426C 		.ascii	"CyBle_Stop\000"
 4405      655F5374 
 4405      6F7000
 4406              	.LASF62:
 4407 0d5b 4359424C 		.ascii	"CYBLE_EVT_GATTC_HANDLE_VALUE_NTF\000"
 4407      455F4556 
 4407      545F4741 
 4407      5454435F 
 4407      48414E44 
 4408              	.LASF112:
 4409 0d7c 4359424C 		.ascii	"CYBLE_ERROR_IND_DISABLED\000"
 4409      455F4552 
 4409      524F525F 
 4409      494E445F 
 4409      44495341 
 4410              	.LASF207:
 4411 0d95 64657374 		.ascii	"dest\000"
 4411      00
 4412              	.LASF167:
 4413 0d9a 61747456 		.ascii	"attValueUuid\000"
 4413      616C7565 
 4413      55756964 
 4413      00
 4414              	.LASF161:
 4415 0da7 61747447 		.ascii	"attGenericVal\000"
 4415      656E6572 
 4415      69635661 
 4415      6C00
 4416              	.LASF73:
ARM GAS  C:\Users\Matthew\AppData\Local\Temp\cc2Cvq26.s 			page 113


 4417 0db5 4359424C 		.ascii	"CYBLE_EVT_L2CAP_CBFC_CONN_CNF\000"
 4417      455F4556 
 4417      545F4C32 
 4417      4341505F 
 4417      43424643 
 4418              	.LASF236:
 4419 0dd3 6379426C 		.ascii	"cyBle_flashStorage\000"
 4419      655F666C 
 4419      61736853 
 4419      746F7261 
 4419      676500
 4420              	.LASF49:
 4421 0de6 4359424C 		.ascii	"CYBLE_EVT_GATTC_READ_BY_GROUP_TYPE_RSP\000"
 4421      455F4556 
 4421      545F4741 
 4421      5454435F 
 4421      52454144 
 4422              	.LASF12:
 4423 0e0d 666C6F61 		.ascii	"float\000"
 4423      7400
 4424              	.LASF232:
 4425 0e13 6379426C 		.ascii	"cyBle_pendingFlashWrite\000"
 4425      655F7065 
 4425      6E64696E 
 4425      67466C61 
 4425      73685772 
 4426              	.LASF240:
 4427 0e2b 6379426C 		.ascii	"cyBle_advertisingIntervalType\000"
 4427      655F6164 
 4427      76657274 
 4427      6973696E 
 4427      67496E74 
 4428              	.LASF204:
 4429 0e49 4379426C 		.ascii	"CyBle_GappStartAdvertisement\000"
 4429      655F4761 
 4429      70705374 
 4429      61727441 
 4429      64766572 
 4430              	.LASF142:
 4431 0e66 64697265 		.ascii	"directAddrType\000"
 4431      63744164 
 4431      64725479 
 4431      706500
 4432              	.LASF72:
 4433 0e75 4359424C 		.ascii	"CYBLE_EVT_L2CAP_CBFC_CONN_IND\000"
 4433      455F4556 
 4433      545F4C32 
 4433      4341505F 
 4433      43424643 
 4434              	.LASF123:
 4435 0e93 646C654D 		.ascii	"dleMaxRxCapability\000"
 4435      61785278 
 4435      43617061 
 4435      62696C69 
 4435      747900
 4436              	.LASF93:
 4437 0ea6 4359424C 		.ascii	"CYBLE_ERROR_TX_POWER_READ\000"
ARM GAS  C:\Users\Matthew\AppData\Local\Temp\cc2Cvq26.s 			page 114


 4437      455F4552 
 4437      524F525F 
 4437      54585F50 
 4437      4F574552 
 4438              	.LASF198:
 4439 0ec0 63616C6C 		.ascii	"callbackFunc\000"
 4439      6261636B 
 4439      46756E63 
 4439      00
 4440              	.LASF173:
 4441 0ecd 61747456 		.ascii	"attValue\000"
 4441      616C7565 
 4441      00
 4442              	.LASF1:
 4443 0ed6 756E7369 		.ascii	"unsigned char\000"
 4443      676E6564 
 4443      20636861 
 4443      7200
 4444              	.LASF10:
 4445 0ee4 75696E74 		.ascii	"uint16\000"
 4445      313600
 4446              	.LASF38:
 4447 0eeb 4359424C 		.ascii	"CYBLE_EVT_GAP_KEYPRESS_NOTIFICATION\000"
 4447      455F4556 
 4447      545F4741 
 4447      505F4B45 
 4447      59505245 
 4448              	.LASF233:
 4449 0f0f 6379426C 		.ascii	"cyBle_peerBonding\000"
 4449      655F7065 
 4449      6572426F 
 4449      6E64696E 
 4449      6700
 4450              	.LASF113:
 4451 0f21 4359424C 		.ascii	"CYBLE_ERROR_CHAR_IS_NOT_DISCOVERED\000"
 4451      455F4552 
 4451      524F525F 
 4451      43484152 
 4451      5F49535F 
 4452              	.LASF2:
 4453 0f44 73686F72 		.ascii	"short int\000"
 4453      7420696E 
 4453      7400
 4454              	.LASF63:
 4455 0f4e 4359424C 		.ascii	"CYBLE_EVT_GATTC_HANDLE_VALUE_IND\000"
 4455      455F4556 
 4455      545F4741 
 4455      5454435F 
 4455      48414E44 
 4456              	.LASF218:
 4457 0f6f 4379426C 		.ascii	"CyBle_ChangeAdDeviceAddress\000"
 4457      655F4368 
 4457      616E6765 
 4457      41644465 
 4457      76696365 
 4458              	.LASF81:
 4459 0f8b 4359424C 		.ascii	"CYBLE_EVT_LE_PING_AUTH_TIMEOUT\000"
ARM GAS  C:\Users\Matthew\AppData\Local\Temp\cc2Cvq26.s 			page 115


 4459      455F4556 
 4459      545F4C45 
 4459      5F50494E 
 4459      475F4155 
 4460              	.LASF210:
 4461 0faa 666C6167 		.ascii	"flag\000"
 4461      00
 4462              	.LASF89:
 4463 0faf 4359424C 		.ascii	"CYBLE_ERROR_NO_CONNECTION\000"
 4463      455F4552 
 4463      524F525F 
 4463      4E4F5F43 
 4463      4F4E4E45 
 4464              	.LASF194:
 4465 0fc9 66656174 		.ascii	"featureHeapReq\000"
 4465      75726548 
 4465      65617052 
 4465      657100
 4466              	.LASF59:
 4467 0fd8 4359424C 		.ascii	"CYBLE_EVT_GATTS_PREP_WRITE_REQ\000"
 4467      455F4556 
 4467      545F4741 
 4467      5454535F 
 4467      50524550 
 4468              	.LASF138:
 4469 0ff7 61647649 		.ascii	"advIntvMin\000"
 4469      6E74764D 
 4469      696E00
 4470              	.LASF136:
 4471 1002 4359424C 		.ascii	"CYBLE_GAPP_CONNECTABLE_LOW_DC_DIRECTED_ADV\000"
 4471      455F4741 
 4471      50505F43 
 4471      4F4E4E45 
 4471      43544142 
 4472              	.LASF147:
 4473 102d 61647644 		.ascii	"advData\000"
 4473      61746100 
 4474              	.LASF130:
 4475 1035 66656174 		.ascii	"feature_mask\000"
 4475      7572655F 
 4475      6D61736B 
 4475      00
 4476              	.LASF244:
 4477 1042 4379426C 		.ascii	"CyBle_ChangeAdLocalName\000"
 4477      655F4368 
 4477      616E6765 
 4477      41644C6F 
 4477      63616C4E 
 4478              	.LASF64:
 4479 105a 4359424C 		.ascii	"CYBLE_EVT_GATTS_HANDLE_VALUE_CNF\000"
 4479      455F4556 
 4479      545F4741 
 4479      5454535F 
 4479      48414E44 
 4480              	.LASF91:
 4481 107b 4359424C 		.ascii	"CYBLE_ERROR_REPEATED_ATTEMPTS\000"
 4481      455F4552 
ARM GAS  C:\Users\Matthew\AppData\Local\Temp\cc2Cvq26.s 			page 116


 4481      524F525F 
 4481      52455045 
 4481      41544544 
 4482              	.LASF201:
 4483 1099 4379426C 		.ascii	"CyBle_GapRemoveBondedDevice\000"
 4483      655F4761 
 4483      7052656D 
 4483      6F766542 
 4483      6F6E6465 
 4484              	.LASF190:
 4485 10b5 6379426C 		.ascii	"cyBle_stackDataBuff\000"
 4485      655F7374 
 4485      61636B44 
 4485      61746142 
 4485      75666600 
 4486              	.LASF213:
 4487 10c9 6D61784C 		.ascii	"maxLength\000"
 4487      656E6774 
 4487      6800
 4488              	.LASF234:
 4489 10d3 6379426C 		.ascii	"cyBle_gattDB\000"
 4489      655F6761 
 4489      74744442 
 4489      00
 4490              	.LASF242:
 4491 10e0 2E5C4765 		.ascii	".\\Generated_Source\\PSoC4\\BLE_1.c\000"
 4491      6E657261 
 4491      7465645F 
 4491      536F7572 
 4491      63655C50 
 4492              	.LASF15:
 4493 1101 63686172 		.ascii	"char\000"
 4493      00
 4494              	.LASF94:
 4495 1106 4359424C 		.ascii	"CYBLE_ERROR_BT_ON_NOT_COMPLETED\000"
 4495      455F4552 
 4495      524F525F 
 4495      42545F4F 
 4495      4E5F4E4F 
 4496              	.LASF211:
 4497 1126 61644C65 		.ascii	"adLength\000"
 4497      6E677468 
 4497      00
 4498              	.LASF32:
 4499 112f 4359424C 		.ascii	"CYBLE_EVT_GAP_DEVICE_DISCONNECTED\000"
 4499      455F4556 
 4499      545F4741 
 4499      505F4445 
 4499      56494345 
 4500              	.LASF205:
 4501 1151 61647665 		.ascii	"advertisingIntervalType\000"
 4501      72746973 
 4501      696E6749 
 4501      6E746572 
 4501      76616C54 
 4502              	.LASF8:
 4503 1169 756E7369 		.ascii	"unsigned int\000"
ARM GAS  C:\Users\Matthew\AppData\Local\Temp\cc2Cvq26.s 			page 117


 4503      676E6564 
 4503      20696E74 
 4503      00
 4504              	.LASF172:
 4505 1176 61747445 		.ascii	"attEndHandle\000"
 4505      6E644861 
 4505      6E646C65 
 4505      00
 4506              	.LASF67:
 4507 1183 4359424C 		.ascii	"CYBLE_EVT_GATTS_READ_CHAR_VAL_ACCESS_REQ\000"
 4507      455F4556 
 4507      545F4741 
 4507      5454535F 
 4507      52454144 
 4508              	.LASF119:
 4509 11ac 62756666 		.ascii	"bufferSize\000"
 4509      65725369 
 4509      7A6500
 4510              	.LASF146:
 4511 11b7 4359424C 		.ascii	"CYBLE_GAPP_DISC_PARAM_T\000"
 4511      455F4741 
 4511      50505F44 
 4511      4953435F 
 4511      50415241 
 4512              	.LASF14:
 4513 11cf 63686172 		.ascii	"char8\000"
 4513      3800
 4514              	.LASF104:
 4515 11d5 4359424C 		.ascii	"CYBLE_ERROR_FLASH_WRITE_NOT_PERMITED\000"
 4515      455F4552 
 4515      524F525F 
 4515      464C4153 
 4515      485F5752 
 4516              	.LASF99:
 4517 11fa 4359424C 		.ascii	"CYBLE_ERROR_L2CAP_CONNECTION_ENTITY_NOT_FOUND\000"
 4517      455F4552 
 4517      524F525F 
 4517      4C324341 
 4517      505F434F 
 4518              	.LASF131:
 4519 1228 4359424C 		.ascii	"CYBLE_STACK_CONFIG_PARAM_T\000"
 4519      455F5354 
 4519      41434B5F 
 4519      434F4E46 
 4519      49475F50 
 4520              	.LASF134:
 4521 1243 4359424C 		.ascii	"CYBLE_GAPP_SCANNABLE_UNDIRECTED_ADV\000"
 4521      455F4741 
 4521      50505F53 
 4521      43414E4E 
 4521      41424C45 
 4522              	.LASF20:
 4523 1267 4359424C 		.ascii	"CYBLE_EVT_HARDWARE_ERROR\000"
 4523      455F4556 
 4523      545F4841 
 4523      52445741 
 4523      52455F45 
ARM GAS  C:\Users\Matthew\AppData\Local\Temp\cc2Cvq26.s 			page 118


 4524              	.LASF3:
 4525 1280 73686F72 		.ascii	"short unsigned int\000"
 4525      7420756E 
 4525      7369676E 
 4525      65642069 
 4525      6E7400
 4526              	.LASF174:
 4527 1293 4359424C 		.ascii	"CYBLE_GATTS_DB_T\000"
 4527      455F4741 
 4527      5454535F 
 4527      44425F54 
 4527      00
 4528              	.LASF85:
 4529 12a4 4359424C 		.ascii	"CYBLE_ERROR_INVALID_OPERATION\000"
 4529      455F4552 
 4529      524F525F 
 4529      494E5641 
 4529      4C49445F 
 4530              	.LASF129:
 4531 12c2 70726976 		.ascii	"privacyConfig\000"
 4531      61637943 
 4531      6F6E6669 
 4531      6700
 4532              	.LASF197:
 4533 12d0 4379426C 		.ascii	"CyBle_StoreBondingData\000"
 4533      655F5374 
 4533      6F726542 
 4533      6F6E6469 
 4533      6E674461 
 4534              	.LASF175:
 4535 12e7 4359424C 		.ascii	"CYBLE_CALLBACK_T\000"
 4535      455F4341 
 4535      4C4C4241 
 4535      434B5F54 
 4535      00
 4536              	.LASF162:
 4537 12f8 4359424C 		.ascii	"CYBLE_GATTS_ATT_GEN_VAL_LEN_T\000"
 4537      455F4741 
 4537      5454535F 
 4537      4154545F 
 4537      47454E5F 
 4538              	.LASF212:
 4539 1316 62797465 		.ascii	"byteCounter\000"
 4539      436F756E 
 4539      74657200 
 4540              	.LASF156:
 4541 1322 4359424C 		.ascii	"CYBLE_GAPP_DISC_MODE_INFO_T\000"
 4541      455F4741 
 4541      50505F44 
 4541      4953435F 
 4541      4D4F4445 
 4542              	.LASF154:
 4543 133e 61647650 		.ascii	"advParam\000"
 4543      6172616D 
 4543      00
 4544              	.LASF137:
 4545 1347 4359424C 		.ascii	"CYBLE_GAPP_ADV_T\000"
ARM GAS  C:\Users\Matthew\AppData\Local\Temp\cc2Cvq26.s 			page 119


 4545      455F4741 
 4545      50505F41 
 4545      44565F54 
 4545      00
 4546              	.LASF180:
 4547 1358 43595F42 		.ascii	"CY_BLE_FLASH_STORAGE\000"
 4547      4C455F46 
 4547      4C415348 
 4547      5F53544F 
 4547      52414745 
 4548              	.LASF186:
 4549 136d 4359424C 		.ascii	"CYBLE_STATE_T\000"
 4549      455F5354 
 4549      4154455F 
 4549      5400
 4550              	.LASF135:
 4551 137b 4359424C 		.ascii	"CYBLE_GAPP_NON_CONNECTABLE_UNDIRECTED_ADV\000"
 4551      455F4741 
 4551      50505F4E 
 4551      4F4E5F43 
 4551      4F4E4E45 
 4552              	.LASF54:
 4553 13a5 4359424C 		.ascii	"CYBLE_EVT_GATTC_READ_BLOB_RSP\000"
 4553      455F4556 
 4553      545F4741 
 4553      5454435F 
 4553      52454144 
 4554              	.LASF164:
 4555 13c3 61747447 		.ascii	"attGenericValLen\000"
 4555      656E6572 
 4555      69635661 
 4555      6C4C656E 
 4555      00
 4556              	.LASF193:
 4557 13d4 73746163 		.ascii	"stackConfig\000"
 4557      6B436F6E 
 4557      66696700 
 4558              	.LASF226:
 4559 13e0 6379426C 		.ascii	"cyBle_deviceAddress\000"
 4559      655F6465 
 4559      76696365 
 4559      41646472 
 4559      65737300 
 4560              	.LASF230:
 4561 13f4 6379426C 		.ascii	"cyBle_scanRspData\000"
 4561      655F7363 
 4561      616E5273 
 4561      70446174 
 4561      6100
 4562              	.LASF105:
 4563 1406 4359424C 		.ascii	"CYBLE_ERROR_MIC_AUTH_FAILED\000"
 4563      455F4552 
 4563      524F525F 
 4563      4D49435F 
 4563      41555448 
 4564              	.LASF125:
 4565 1422 4359424C 		.ascii	"CYBLE_DLE_CONFIG_PARAM_T\000"
ARM GAS  C:\Users\Matthew\AppData\Local\Temp\cc2Cvq26.s 			page 120


 4565      455F444C 
 4565      455F434F 
 4565      4E464947 
 4565      5F504152 
 4566              	.LASF98:
 4567 143b 4359424C 		.ascii	"CYBLE_ERROR_L2CAP_PSM_NOT_REGISTERED\000"
 4567      455F4552 
 4567      524F525F 
 4567      4C324341 
 4567      505F5053 
 4568              	.LASF227:
 4569 1460 6379426C 		.ascii	"cyBle_sflashDeviceAddress\000"
 4569      655F7366 
 4569      6C617368 
 4569      44657669 
 4569      63654164 
 4570              	.LASF183:
 4571 147a 4359424C 		.ascii	"CYBLE_STATE_CONNECTED\000"
 4571      455F5354 
 4571      4154455F 
 4571      434F4E4E 
 4571      45435445 
 4572              	.LASF241:
 4573 1490 474E5520 		.ascii	"GNU C 4.9.3 20150303 (release) [ARM/embedded-4_9-br"
 4573      4320342E 
 4573      392E3320 
 4573      32303135 
 4573      30333033 
 4574 14c3 616E6368 		.ascii	"anch revision 221220] -mcpu=cortex-m0 -mthumb -g -O"
 4574      20726576 
 4574      6973696F 
 4574      6E203232 
 4574      31323230 
 4575 14f6 30202D66 		.ascii	"0 -ffunction-sections -ffat-lto-objects\000"
 4575      66756E63 
 4575      74696F6E 
 4575      2D736563 
 4575      74696F6E 
 4576              	.LASF52:
 4577 151e 4359424C 		.ascii	"CYBLE_EVT_GATTC_FIND_BY_TYPE_VALUE_RSP\000"
 4577      455F4556 
 4577      545F4741 
 4577      5454435F 
 4577      46494E44 
 4578              	.LASF92:
 4579 1545 4359424C 		.ascii	"CYBLE_ERROR_GAP_ROLE\000"
 4579      455F4552 
 4579      524F525F 
 4579      4741505F 
 4579      524F4C45 
 4580              	.LASF128:
 4581 155a 646C6543 		.ascii	"dleConfig\000"
 4581      6F6E6669 
 4581      6700
 4582              	.LASF36:
 4583 1564 4359424C 		.ascii	"CYBLE_EVT_GAP_KEYINFO_EXCHNGE_CMPLT\000"
 4583      455F4556 
ARM GAS  C:\Users\Matthew\AppData\Local\Temp\cc2Cvq26.s 			page 121


 4583      545F4741 
 4583      505F4B45 
 4583      59494E46 
 4584              	.LASF217:
 4585 1588 4379426C 		.ascii	"CyBle_Get16ByPtr\000"
 4585      655F4765 
 4585      74313642 
 4585      79507472 
 4585      00
 4586              	.LASF157:
 4587 1599 62644861 		.ascii	"bdHandle\000"
 4587      6E646C65 
 4587      00
 4588              	.LASF80:
 4589 15a2 4359424C 		.ascii	"CYBLE_EVT_PENDING_FLASH_WRITE\000"
 4589      455F4556 
 4589      545F5045 
 4589      4E44494E 
 4589      475F464C 
 4590              	.LASF187:
 4591 15c0 4379426C 		.ascii	"CyBle_Init\000"
 4591      655F496E 
 4591      697400
 4592              	.LASF70:
 4593 15cb 4359424C 		.ascii	"CYBLE_EVT_L2CAP_CONN_PARAM_UPDATE_RSP\000"
 4593      455F4556 
 4593      545F4C32 
 4593      4341505F 
 4593      434F4E4E 
 4594              	.LASF41:
 4595 15f1 4359424C 		.ascii	"CYBLE_EVT_GAP_ENHANCE_CONN_COMPLETE\000"
 4595      455F4556 
 4595      545F4741 
 4595      505F454E 
 4595      48414E43 
 4596              	.LASF155:
 4597 1615 61647654 		.ascii	"advTo\000"
 4597      6F00
 4598              	.LASF46:
 4599 161b 4359424C 		.ascii	"CYBLE_EVT_GATT_DISCONNECT_IND\000"
 4599      455F4556 
 4599      545F4741 
 4599      54545F44 
 4599      4953434F 
 4600              	.LASF102:
 4601 1639 4359424C 		.ascii	"CYBLE_ERROR_GATT_DB_INVALID_ATTR_HANDLE\000"
 4601      455F4552 
 4601      524F525F 
 4601      47415454 
 4601      5F44425F 
 4602              	.LASF126:
 4603 1661 7265736F 		.ascii	"resolvingListSize\000"
 4603      6C76696E 
 4603      674C6973 
 4603      7453697A 
 4603      6500
 4604              		.ident	"GCC: (GNU Tools for ARM Embedded Processors) 4.9.3 20150303 (release) [ARM/embedded-4_9-br
ARM GAS  C:\Users\Matthew\AppData\Local\Temp\cc2Cvq26.s 			page 122


