ARM GAS  C:\Users\Matthew\AppData\Local\Temp\cc2Cvq26.s 			page 1


   1              		.cpu cortex-m0
   2              		.fpu softvfp
   3              		.eabi_attribute 20, 1
   4              		.eabi_attribute 21, 1
   5              		.eabi_attribute 23, 3
   6              		.eabi_attribute 24, 1
   7              		.eabi_attribute 25, 1
   8              		.eabi_attribute 26, 1
   9              		.eabi_attribute 30, 6
  10              		.eabi_attribute 34, 0
  11              		.eabi_attribute 18, 4
  12              		.code	16
  13              		.file	"BLE_1.c"
  14              		.text
  15              	.Ltext0:
  16              		.cfi_sections	.debug_frame
  17              		.global	cyBle_initVar
  18              		.bss
  19              		.type	cyBle_initVar, %object
  20              		.size	cyBle_initVar, 1
  21              	cyBle_initVar:
  22 0000 00       		.space	1
  23              		.global	cyBle_stackMemoryRam
  24              		.section	.noinit,"aw",%progbits
  25              		.align	3
  26              		.type	cyBle_stackMemoryRam, %object
  27              		.size	cyBle_stackMemoryRam, 2784
  28              	cyBle_stackMemoryRam:
  29 0000 00000000 		.space	2784
  29      00000000 
  29      00000000 
  29      00000000 
  29      00000000 
  30              		.global	cyBle_discoveryParam
  31              		.data
  32              		.align	2
  33              		.type	cyBle_discoveryParam, %object
  34              		.size	cyBle_discoveryParam, 16
  35              	cyBle_discoveryParam:
  36 0000 2000     		.short	32
  37 0002 3000     		.short	48
  38 0004 00       		.byte	0
  39 0005 00       		.byte	0
  40 0006 00       		.byte	0
  41 0007 00       		.byte	0
  42 0008 00       		.byte	0
  43 0009 00       		.byte	0
  44 000a 50       		.byte	80
  45 000b A0       		.byte	-96
  46 000c 00       		.byte	0
  47 000d 07       		.byte	7
  48 000e 00       		.byte	0
  49 000f 00       		.space	1
  50              		.global	cyBle_discoveryData
  51              		.align	2
  52              		.type	cyBle_discoveryData, %object
  53              		.size	cyBle_discoveryData, 32
ARM GAS  C:\Users\Matthew\AppData\Local\Temp\cc2Cvq26.s 			page 2


  54              	cyBle_discoveryData:
  55 0010 02       		.byte	2
  56 0011 01       		.byte	1
  57 0012 06       		.byte	6
  58 0013 08       		.byte	8
  59 0014 09       		.byte	9
  60 0015 42       		.byte	66
  61 0016 69       		.byte	105
  62 0017 6F       		.byte	111
  63 0018 53       		.byte	83
  64 0019 6E       		.byte	110
  65 001a 61       		.byte	97
  66 001b 70       		.byte	112
  67 001c 03       		.byte	3
  68 001d 03       		.byte	3
  69 001e A0       		.byte	-96
  70 001f AA       		.byte	-86
  71 0020 00       		.byte	0
  72 0021 00       		.byte	0
  73 0022 00       		.byte	0
  74 0023 00       		.byte	0
  75 0024 00       		.byte	0
  76 0025 00       		.byte	0
  77 0026 00       		.byte	0
  78 0027 00       		.byte	0
  79 0028 00       		.byte	0
  80 0029 00       		.byte	0
  81 002a 00       		.byte	0
  82 002b 00       		.byte	0
  83 002c 00       		.byte	0
  84 002d 00       		.byte	0
  85 002e 00       		.byte	0
  86 002f 10       		.byte	16
  87              		.global	cyBle_scanRspData
  88              		.align	2
  89              		.type	cyBle_scanRspData, %object
  90              		.size	cyBle_scanRspData, 32
  91              	cyBle_scanRspData:
  92 0030 08       		.byte	8
  93 0031 09       		.byte	9
  94 0032 42       		.byte	66
  95 0033 69       		.byte	105
  96 0034 6F       		.byte	111
  97 0035 53       		.byte	83
  98 0036 6E       		.byte	110
  99 0037 61       		.byte	97
 100 0038 70       		.byte	112
 101 0039 03       		.byte	3
 102 003a 03       		.byte	3
 103 003b A0       		.byte	-96
 104 003c AA       		.byte	-86
 105 003d 00       		.byte	0
 106 003e 00       		.byte	0
 107 003f 00       		.byte	0
 108 0040 00       		.byte	0
 109 0041 00       		.byte	0
 110 0042 00       		.byte	0
ARM GAS  C:\Users\Matthew\AppData\Local\Temp\cc2Cvq26.s 			page 3


 111 0043 00       		.byte	0
 112 0044 00       		.byte	0
 113 0045 00       		.byte	0
 114 0046 00       		.byte	0
 115 0047 00       		.byte	0
 116 0048 00       		.byte	0
 117 0049 00       		.byte	0
 118 004a 00       		.byte	0
 119 004b 00       		.byte	0
 120 004c 00       		.byte	0
 121 004d 00       		.byte	0
 122 004e 00       		.byte	0
 123 004f 0D       		.byte	13
 124              		.global	cyBle_discoveryModeInfo
 125              		.align	2
 126              		.type	cyBle_discoveryModeInfo, %object
 127              		.size	cyBle_discoveryModeInfo, 20
 128              	cyBle_discoveryModeInfo:
 129 0050 02       		.byte	2
 130 0051 000000   		.space	3
 131 0054 00000000 		.word	cyBle_discoveryParam
 132 0058 00000000 		.word	cyBle_discoveryData
 133 005c 00000000 		.word	cyBle_scanRspData
 134 0060 1E00     		.short	30
 135 0062 0000     		.space	2
 136              		.comm	cyBle_peerBonding,1,1
 137              		.comm	cyBle_pendingFlashWrite,1,1
 138              		.bss
 139              	cyBle_pendingFlashClearCccdHandle:
 140 0001 00       		.space	1
 141              		.comm	CyBle_ApplCallback,4,4
 142              		.global	cyBle_deviceAddress
 143              		.data
 144              		.align	2
 145              		.type	cyBle_deviceAddress, %object
 146              		.size	cyBle_deviceAddress, 7
 147              	cyBle_deviceAddress:
 148 0064 00       		.byte	0
 149 0065 00       		.byte	0
 150 0066 00       		.byte	0
 151 0067 50       		.byte	80
 152 0068 A0       		.byte	-96
 153 0069 00       		.byte	0
 154 006a 00       		.byte	0
 155              		.global	cyBle_sflashDeviceAddress
 156 006b 00       		.align	2
 157              		.type	cyBle_sflashDeviceAddress, %object
 158              		.size	cyBle_sflashDeviceAddress, 4
 159              	cyBle_sflashDeviceAddress:
 160 006c 00F2FF0F 		.word	268431872
 161              		.section	.text.CyBle_Init,"ax",%progbits
 162              		.align	2
 163              		.global	CyBle_Init
 164              		.code	16
 165              		.thumb_func
 166              		.type	CyBle_Init, %function
 167              	CyBle_Init:
ARM GAS  C:\Users\Matthew\AppData\Local\Temp\cc2Cvq26.s 			page 4


 168              	.LFB2:
 169              		.file 1 ".\\Generated_Source\\PSoC4\\BLE_1.c"
   1:.\Generated_Source\PSoC4/BLE_1.c **** /***************************************************************************//**
   2:.\Generated_Source\PSoC4/BLE_1.c **** * \file CYBLE.c
   3:.\Generated_Source\PSoC4/BLE_1.c **** * \version 3.10
   4:.\Generated_Source\PSoC4/BLE_1.c **** * 
   5:.\Generated_Source\PSoC4/BLE_1.c **** * \brief
   6:.\Generated_Source\PSoC4/BLE_1.c **** *  This file contains the source code for the Common APIs of the BLE Component.
   7:.\Generated_Source\PSoC4/BLE_1.c **** * 
   8:.\Generated_Source\PSoC4/BLE_1.c **** ********************************************************************************
   9:.\Generated_Source\PSoC4/BLE_1.c **** * \copyright
  10:.\Generated_Source\PSoC4/BLE_1.c **** * Copyright 2014-2016, Cypress Semiconductor Corporation.  All rights reserved.
  11:.\Generated_Source\PSoC4/BLE_1.c **** * You may use this file only in accordance with the license, terms, conditions,
  12:.\Generated_Source\PSoC4/BLE_1.c **** * disclaimers, and limitations in the end user license agreement accompanying
  13:.\Generated_Source\PSoC4/BLE_1.c **** * the software package with which this file was provided.
  14:.\Generated_Source\PSoC4/BLE_1.c **** *******************************************************************************/
  15:.\Generated_Source\PSoC4/BLE_1.c **** 
  16:.\Generated_Source\PSoC4/BLE_1.c **** #include "BLE_1_eventHandler.h"
  17:.\Generated_Source\PSoC4/BLE_1.c **** #include "BLE_1_HAL_PVT.h"
  18:.\Generated_Source\PSoC4/BLE_1.c **** #include <stdlib.h>
  19:.\Generated_Source\PSoC4/BLE_1.c **** 
  20:.\Generated_Source\PSoC4/BLE_1.c **** 
  21:.\Generated_Source\PSoC4/BLE_1.c **** /***************************************
  22:.\Generated_Source\PSoC4/BLE_1.c **** * Function Prototypes
  23:.\Generated_Source\PSoC4/BLE_1.c **** ***************************************/
  24:.\Generated_Source\PSoC4/BLE_1.c **** 
  25:.\Generated_Source\PSoC4/BLE_1.c **** #if(CYBLE_GATT_ROLE_SERVER)
  26:.\Generated_Source\PSoC4/BLE_1.c ****     #if(CYBLE_GAP_ROLE_PERIPHERAL)
  27:.\Generated_Source\PSoC4/BLE_1.c ****         static void CyBle_ChangeAdLocalName(const char8 name[], uint8 dest);
  28:.\Generated_Source\PSoC4/BLE_1.c ****     #endif /* (CYBLE_GAP_ROLE_PERIPHERAL) */
  29:.\Generated_Source\PSoC4/BLE_1.c **** #endif /* (CYBLE_GATT_ROLE_SERVER) */
  30:.\Generated_Source\PSoC4/BLE_1.c ****     
  31:.\Generated_Source\PSoC4/BLE_1.c **** 
  32:.\Generated_Source\PSoC4/BLE_1.c **** /***************************************
  33:.\Generated_Source\PSoC4/BLE_1.c **** * Global Variables
  34:.\Generated_Source\PSoC4/BLE_1.c **** ***************************************/
  35:.\Generated_Source\PSoC4/BLE_1.c **** 
  36:.\Generated_Source\PSoC4/BLE_1.c **** /* Indicates whether the BLE has been initialized. The variable is initialized to
  37:.\Generated_Source\PSoC4/BLE_1.c ****    0 and set to 1 the first time CyBle_Start() is called. This allows the component
  38:.\Generated_Source\PSoC4/BLE_1.c ****    to restart without reinitialization after the first call to the CyBle_Start() 
  39:.\Generated_Source\PSoC4/BLE_1.c ****    routine. If reinitialization of the component is required, the variable should 
  40:.\Generated_Source\PSoC4/BLE_1.c ****    be set to 0 before the CyBle_Start() routine is called. Alternatively, the BLE
  41:.\Generated_Source\PSoC4/BLE_1.c ****    can be reinitialized by calling the CyBle_Init() function.
  42:.\Generated_Source\PSoC4/BLE_1.c **** */
  43:.\Generated_Source\PSoC4/BLE_1.c **** uint8  cyBle_initVar = 0u;
  44:.\Generated_Source\PSoC4/BLE_1.c **** 
  45:.\Generated_Source\PSoC4/BLE_1.c **** /* Allocate RAM memory for stack. This buffer could be reused by application when 
  46:.\Generated_Source\PSoC4/BLE_1.c ****    BLE component is stopped. For export mode buffer is allocated in heap.
  47:.\Generated_Source\PSoC4/BLE_1.c **** */
  48:.\Generated_Source\PSoC4/BLE_1.c **** #if(CYBLE_SHARING_MODE_EXPORT)
  49:.\Generated_Source\PSoC4/BLE_1.c ****     
  50:.\Generated_Source\PSoC4/BLE_1.c **** uint8 *cyBle_stackMemoryRam = NULL;
  51:.\Generated_Source\PSoC4/BLE_1.c **** 
  52:.\Generated_Source\PSoC4/BLE_1.c **** #else
  53:.\Generated_Source\PSoC4/BLE_1.c **** 
  54:.\Generated_Source\PSoC4/BLE_1.c **** CYBLE_CYALIGNED_BEGIN CY_NOINIT uint8 cyBle_stackMemoryRam[CYBLE_STACK_RAM_SIZE] CYBLE_CYALIGNED_EN
  55:.\Generated_Source\PSoC4/BLE_1.c **** 
ARM GAS  C:\Users\Matthew\AppData\Local\Temp\cc2Cvq26.s 			page 5


  56:.\Generated_Source\PSoC4/BLE_1.c **** #endif  /* CYBLE_SHARING_MODE_EXPORT */
  57:.\Generated_Source\PSoC4/BLE_1.c **** 
  58:.\Generated_Source\PSoC4/BLE_1.c **** #if(CYBLE_GAP_ROLE_PERIPHERAL || CYBLE_GAP_ROLE_BROADCASTER)
  59:.\Generated_Source\PSoC4/BLE_1.c **** 
  60:.\Generated_Source\PSoC4/BLE_1.c **** CYBLE_GAPP_DISC_PARAM_T cyBle_discoveryParam =
  61:.\Generated_Source\PSoC4/BLE_1.c **** {
  62:.\Generated_Source\PSoC4/BLE_1.c ****     0x0020u,    /* uint16 advertising_interval_min */
  63:.\Generated_Source\PSoC4/BLE_1.c ****     0x0030u,    /* uint16 advertising_interval_max */
  64:.\Generated_Source\PSoC4/BLE_1.c ****     CYBLE_GAPP_CONNECTABLE_UNDIRECTED_ADV, /* uint8 advertising_type */
  65:.\Generated_Source\PSoC4/BLE_1.c ****     0x00u,      /* uint8 own_addr_type */
  66:.\Generated_Source\PSoC4/BLE_1.c ****     0x00u,      /* uint8 direct_addr_type */
  67:.\Generated_Source\PSoC4/BLE_1.c ****     {0x00u, 0x00u, 0x00u, 0x50u, 0xA0u, 0x00u}, /* uint8* direct_addr */
  68:.\Generated_Source\PSoC4/BLE_1.c ****     0x07u,      /* uint8 advertising_channel_map */
  69:.\Generated_Source\PSoC4/BLE_1.c ****     0x00u,      /* uint8 advertising_filter_policy */
  70:.\Generated_Source\PSoC4/BLE_1.c **** };
  71:.\Generated_Source\PSoC4/BLE_1.c **** 
  72:.\Generated_Source\PSoC4/BLE_1.c **** CYBLE_GAPP_DISC_DATA_T cyBle_discoveryData =
  73:.\Generated_Source\PSoC4/BLE_1.c **** {
  74:.\Generated_Source\PSoC4/BLE_1.c ****     { 0x02u, 0x01u, 0x06u, 0x08u, 0x09u, 0x42u, 0x69u,
  75:.\Generated_Source\PSoC4/BLE_1.c ****     0x6Fu, 0x53u, 0x6Eu, 0x61u, 0x70u, 0x03u, 0x03u, 0xA0u,
  76:.\Generated_Source\PSoC4/BLE_1.c ****     0xAAu, 0x00u, 0x00u, 0x00u, 0x00u, 0x00u, 0x00u, 0x00u,
  77:.\Generated_Source\PSoC4/BLE_1.c ****     0x00u, 0x00u, 0x00u, 0x00u, 0x00u, 0x00u, 0x00u, 0x00u }, /* uint8 advertising_data[CYBLE_MAX_A
  78:.\Generated_Source\PSoC4/BLE_1.c ****     0x10u,      /* uint8 adv_data_length */
  79:.\Generated_Source\PSoC4/BLE_1.c **** };
  80:.\Generated_Source\PSoC4/BLE_1.c **** 
  81:.\Generated_Source\PSoC4/BLE_1.c **** CYBLE_GAPP_SCAN_RSP_DATA_T cyBle_scanRspData =
  82:.\Generated_Source\PSoC4/BLE_1.c **** {
  83:.\Generated_Source\PSoC4/BLE_1.c ****     { 0x08u, 0x09u, 0x42u, 0x69u, 0x6Fu, 0x53u, 0x6Eu,
  84:.\Generated_Source\PSoC4/BLE_1.c ****     0x61u, 0x70u, 0x03u, 0x03u, 0xA0u, 0xAAu, 0x00u, 0x00u,
  85:.\Generated_Source\PSoC4/BLE_1.c ****     0x00u, 0x00u, 0x00u, 0x00u, 0x00u, 0x00u, 0x00u, 0x00u,
  86:.\Generated_Source\PSoC4/BLE_1.c ****     0x00u, 0x00u, 0x00u, 0x00u, 0x00u, 0x00u, 0x00u, 0x00u }, /* uint8 scan_rsp_data[CYBLE_MAX_SCAN
  87:.\Generated_Source\PSoC4/BLE_1.c ****     0x0Du,      /* uint8 scan_rsp_data_length */
  88:.\Generated_Source\PSoC4/BLE_1.c **** };
  89:.\Generated_Source\PSoC4/BLE_1.c **** 
  90:.\Generated_Source\PSoC4/BLE_1.c **** /* This variable of type CYBLE_GAPP_DISC_MODE_INFO_T is present only when 
  91:.\Generated_Source\PSoC4/BLE_1.c ****    the BLE component is configured for Peripheral GAP role or Central and 
  92:.\Generated_Source\PSoC4/BLE_1.c ****    Peripheral GAP role. It contains the Advertisement settings and also the 
  93:.\Generated_Source\PSoC4/BLE_1.c ****    Advertisement and Scan response data parameters entered in the customizer.
  94:.\Generated_Source\PSoC4/BLE_1.c ****    This variable can be used by advanced users to change Advertisement settings,
  95:.\Generated_Source\PSoC4/BLE_1.c ****    Advertisement or Scan response data in runtime. 
  96:.\Generated_Source\PSoC4/BLE_1.c **** */
  97:.\Generated_Source\PSoC4/BLE_1.c **** CYBLE_GAPP_DISC_MODE_INFO_T cyBle_discoveryModeInfo =
  98:.\Generated_Source\PSoC4/BLE_1.c **** {
  99:.\Generated_Source\PSoC4/BLE_1.c ****     0x02u,      /* uint8 discMode */
 100:.\Generated_Source\PSoC4/BLE_1.c ****     &cyBle_discoveryParam,
 101:.\Generated_Source\PSoC4/BLE_1.c ****     &cyBle_discoveryData,
 102:.\Generated_Source\PSoC4/BLE_1.c ****     &cyBle_scanRspData,
 103:.\Generated_Source\PSoC4/BLE_1.c ****     0x001Eu,    /* uint16 advTo */
 104:.\Generated_Source\PSoC4/BLE_1.c **** };
 105:.\Generated_Source\PSoC4/BLE_1.c **** 
 106:.\Generated_Source\PSoC4/BLE_1.c **** 
 107:.\Generated_Source\PSoC4/BLE_1.c **** #endif /* CYBLE_GAP_ROLE_PERIPHERAL || CYBLE_GAP_ROLE_BROADCASTER */
 108:.\Generated_Source\PSoC4/BLE_1.c **** 
 109:.\Generated_Source\PSoC4/BLE_1.c **** #if(CYBLE_GAP_ROLE_CENTRAL)
 110:.\Generated_Source\PSoC4/BLE_1.c ****     
 111:.\Generated_Source\PSoC4/BLE_1.c **** CYBLE_GAPC_CONN_PARAM_T cyBle_connectionParameters;
 112:.\Generated_Source\PSoC4/BLE_1.c **** 
ARM GAS  C:\Users\Matthew\AppData\Local\Temp\cc2Cvq26.s 			page 6


 113:.\Generated_Source\PSoC4/BLE_1.c **** /* Connecting timeout is set to 30 seconds in CyBle_Init function. 
 114:.\Generated_Source\PSoC4/BLE_1.c ****    Not zero value starts timer in CyBle_GapcConnectDevice API.
 115:.\Generated_Source\PSoC4/BLE_1.c **** */
 116:.\Generated_Source\PSoC4/BLE_1.c **** uint16 cyBle_connectingTimeout;
 117:.\Generated_Source\PSoC4/BLE_1.c ****     
 118:.\Generated_Source\PSoC4/BLE_1.c **** #endif /* CYBLE_GAP_ROLE_CENTRAL */
 119:.\Generated_Source\PSoC4/BLE_1.c **** 
 120:.\Generated_Source\PSoC4/BLE_1.c **** #if(CYBLE_GAP_ROLE_CENTRAL || CYBLE_GAP_ROLE_OBSERVER)
 121:.\Generated_Source\PSoC4/BLE_1.c ****     
 122:.\Generated_Source\PSoC4/BLE_1.c **** 
 123:.\Generated_Source\PSoC4/BLE_1.c ****     
 124:.\Generated_Source\PSoC4/BLE_1.c **** #endif /* CYBLE_GAP_ROLE_CENTRAL || CYBLE_GAP_ROLE_OBSERVER */
 125:.\Generated_Source\PSoC4/BLE_1.c **** 
 126:.\Generated_Source\PSoC4/BLE_1.c **** #if((CYBLE_GAP_ROLE_PERIPHERAL || CYBLE_GAP_ROLE_CENTRAL) && (CYBLE_BONDING_REQUIREMENT == CYBLE_BO
 127:.\Generated_Source\PSoC4/BLE_1.c **** 
 128:.\Generated_Source\PSoC4/BLE_1.c **** uint8 cyBle_peerBonding;
 129:.\Generated_Source\PSoC4/BLE_1.c **** uint8 cyBle_pendingFlashWrite;
 130:.\Generated_Source\PSoC4/BLE_1.c ****     
 131:.\Generated_Source\PSoC4/BLE_1.c **** #if(CYBLE_GATT_DB_CCCD_COUNT != 0u)
 132:.\Generated_Source\PSoC4/BLE_1.c ****     static uint8 cyBle_pendingFlashClearCccdHandle;
 133:.\Generated_Source\PSoC4/BLE_1.c **** #endif /* CYBLE_GATT_DB_CCCD_COUNT != 0u */
 134:.\Generated_Source\PSoC4/BLE_1.c ****     
 135:.\Generated_Source\PSoC4/BLE_1.c **** #endif  /* (CYBLE_BONDING_REQUIREMENT == CYBLE_BONDING_YES) */
 136:.\Generated_Source\PSoC4/BLE_1.c **** 
 137:.\Generated_Source\PSoC4/BLE_1.c **** CYBLE_CALLBACK_T CyBle_ApplCallback;
 138:.\Generated_Source\PSoC4/BLE_1.c **** CYBLE_GAP_BD_ADDR_T cyBle_deviceAddress = {{0x00u, 0x00u, 0x00u, 0x50u, 0xA0u, 0x00u}, 0x00u };
 139:.\Generated_Source\PSoC4/BLE_1.c **** CYBLE_GAP_BD_ADDR_T * cyBle_sflashDeviceAddress = CYBLE_SFLASH_DEVICE_ADDRESS_PTR;
 140:.\Generated_Source\PSoC4/BLE_1.c **** 
 141:.\Generated_Source\PSoC4/BLE_1.c **** 
 142:.\Generated_Source\PSoC4/BLE_1.c **** /******************************************************************************
 143:.\Generated_Source\PSoC4/BLE_1.c **** * Function Name: CyBle_Init
 144:.\Generated_Source\PSoC4/BLE_1.c **** ***************************************************************************//**
 145:.\Generated_Source\PSoC4/BLE_1.c **** *
 146:.\Generated_Source\PSoC4/BLE_1.c **** *   Initializes the component with the parameters set in the customizer.
 147:.\Generated_Source\PSoC4/BLE_1.c **** * 
 148:.\Generated_Source\PSoC4/BLE_1.c **** *  \return
 149:.\Generated_Source\PSoC4/BLE_1.c **** *   None
 150:.\Generated_Source\PSoC4/BLE_1.c **** * 
 151:.\Generated_Source\PSoC4/BLE_1.c **** ******************************************************************************/
 152:.\Generated_Source\PSoC4/BLE_1.c **** void CyBle_Init(void)
 153:.\Generated_Source\PSoC4/BLE_1.c **** {
 170              		.loc 1 153 0
 171              		.cfi_startproc
 172 0000 80B5     		push	{r7, lr}
 173              		.cfi_def_cfa_offset 8
 174              		.cfi_offset 7, -8
 175              		.cfi_offset 14, -4
 176 0002 00AF     		add	r7, sp, #0
 177              		.cfi_def_cfa_register 7
 154:.\Generated_Source\PSoC4/BLE_1.c ****     cyBle_eventHandlerFlag = 0u;
 178              		.loc 1 154 0
 179 0004 094B     		ldr	r3, .L2
 180 0006 0022     		mov	r2, #0
 181 0008 1A70     		strb	r2, [r3]
 155:.\Generated_Source\PSoC4/BLE_1.c ****     cyBle_busyStatus = CYBLE_STACK_STATE_FREE;
 182              		.loc 1 155 0
 183 000a 094B     		ldr	r3, .L2+4
ARM GAS  C:\Users\Matthew\AppData\Local\Temp\cc2Cvq26.s 			page 7


 184 000c 0022     		mov	r2, #0
 185 000e 1A70     		strb	r2, [r3]
 156:.\Generated_Source\PSoC4/BLE_1.c **** 
 157:.\Generated_Source\PSoC4/BLE_1.c ****     #if(CYBLE_GAP_ROLE_PERIPHERAL || CYBLE_GAP_ROLE_BROADCASTER) 
 158:.\Generated_Source\PSoC4/BLE_1.c ****         cyBle_advertisingIntervalType = CYBLE_ADVERTISING_FAST; 
 186              		.loc 1 158 0
 187 0010 084B     		ldr	r3, .L2+8
 188 0012 0022     		mov	r2, #0
 189 0014 1A70     		strb	r2, [r3]
 159:.\Generated_Source\PSoC4/BLE_1.c ****     #endif /* (CYBLE_GAP_ROLE_PERIPHERAL || CYBLE_GAP_ROLE_BROADCASTER)  */
 160:.\Generated_Source\PSoC4/BLE_1.c ****     #if(CYBLE_GAP_ROLE_CENTRAL || CYBLE_GAP_ROLE_OBSERVER)
 161:.\Generated_Source\PSoC4/BLE_1.c ****         cyBle_scanningIntervalType = CYBLE_SCANNING_FAST; 
 162:.\Generated_Source\PSoC4/BLE_1.c ****     #endif /* (CYBLE_GAP_ROLE_CENTRAL || CYBLE_GAP_ROLE_OBSERVER) */
 163:.\Generated_Source\PSoC4/BLE_1.c ****         
 164:.\Generated_Source\PSoC4/BLE_1.c ****     /* Init default connection parameters. 
 165:.\Generated_Source\PSoC4/BLE_1.c ****        Application may change it before initiating a connection */
 166:.\Generated_Source\PSoC4/BLE_1.c ****     #if(CYBLE_GAP_ROLE_CENTRAL)
 167:.\Generated_Source\PSoC4/BLE_1.c ****         cyBle_connectionParameters.scanIntv = cyBle_discoveryInfo.scanIntv;
 168:.\Generated_Source\PSoC4/BLE_1.c ****         cyBle_connectionParameters.scanWindow = cyBle_discoveryInfo.scanWindow;
 169:.\Generated_Source\PSoC4/BLE_1.c ****         cyBle_connectionParameters.ownAddrType = cyBle_discoveryInfo.ownAddrType;
 170:.\Generated_Source\PSoC4/BLE_1.c ****         cyBle_connectionParameters.initiatorFilterPolicy = cyBle_discoveryInfo.scanFilterPolicy;
 171:.\Generated_Source\PSoC4/BLE_1.c ****         cyBle_connectionParameters.connIntvMin = CYBLE_GAPC_CONNECTION_INTERVAL_MIN;
 172:.\Generated_Source\PSoC4/BLE_1.c ****         cyBle_connectionParameters.connIntvMax = CYBLE_GAPC_CONNECTION_INTERVAL_MAX;
 173:.\Generated_Source\PSoC4/BLE_1.c ****         cyBle_connectionParameters.connLatency = CYBLE_GAPC_CONNECTION_SLAVE_LATENCY;
 174:.\Generated_Source\PSoC4/BLE_1.c ****         cyBle_connectionParameters.supervisionTO = CYBLE_GAPC_CONNECTION_TIME_OUT;
 175:.\Generated_Source\PSoC4/BLE_1.c ****         cyBle_connectionParameters.minCeLength = 0x0000u;
 176:.\Generated_Source\PSoC4/BLE_1.c ****         cyBle_connectionParameters.maxCeLength = 0xFFFFu;
 177:.\Generated_Source\PSoC4/BLE_1.c ****         
 178:.\Generated_Source\PSoC4/BLE_1.c ****         cyBle_connectingTimeout = CYBLE_GAPC_CONNECTING_TIMEOUT;
 179:.\Generated_Source\PSoC4/BLE_1.c ****     #endif /* CYBLE_GAP_ROLE_CENTRAL */
 180:.\Generated_Source\PSoC4/BLE_1.c **** 
 181:.\Generated_Source\PSoC4/BLE_1.c ****     CyBle_ServiceInit();
 190              		.loc 1 181 0
 191 0016 FFF7FEFF 		bl	CyBle_ServiceInit
 182:.\Generated_Source\PSoC4/BLE_1.c **** 
 183:.\Generated_Source\PSoC4/BLE_1.c ****     #if((CYBLE_GAP_ROLE_PERIPHERAL || CYBLE_GAP_ROLE_CENTRAL) && (CYBLE_BONDING_REQUIREMENT == CYBL
 184:.\Generated_Source\PSoC4/BLE_1.c ****         cyBle_pendingFlashWrite = 0u;
 192              		.loc 1 184 0
 193 001a 074B     		ldr	r3, .L2+12
 194 001c 0022     		mov	r2, #0
 195 001e 1A70     		strb	r2, [r3]
 185:.\Generated_Source\PSoC4/BLE_1.c ****         cyBle_peerBonding = CYBLE_GAP_BONDING_NONE;
 196              		.loc 1 185 0
 197 0020 064B     		ldr	r3, .L2+16
 198 0022 0022     		mov	r2, #0
 199 0024 1A70     		strb	r2, [r3]
 186:.\Generated_Source\PSoC4/BLE_1.c ****     #endif  /* (CYBLE_BONDING_REQUIREMENT == CYBLE_BONDING_YES) */
 187:.\Generated_Source\PSoC4/BLE_1.c **** 
 188:.\Generated_Source\PSoC4/BLE_1.c **** }
 200              		.loc 1 188 0
 201 0026 BD46     		mov	sp, r7
 202              		@ sp needed
 203 0028 80BD     		pop	{r7, pc}
 204              	.L3:
 205 002a C046     		.align	2
 206              	.L2:
 207 002c 00000000 		.word	cyBle_eventHandlerFlag
ARM GAS  C:\Users\Matthew\AppData\Local\Temp\cc2Cvq26.s 			page 8


 208 0030 00000000 		.word	cyBle_busyStatus
 209 0034 00000000 		.word	cyBle_advertisingIntervalType
 210 0038 00000000 		.word	cyBle_pendingFlashWrite
 211 003c 00000000 		.word	cyBle_peerBonding
 212              		.cfi_endproc
 213              	.LFE2:
 214              		.size	CyBle_Init, .-CyBle_Init
 215              		.section	.text.CyBle_ServiceInit,"ax",%progbits
 216              		.align	2
 217              		.global	CyBle_ServiceInit
 218              		.code	16
 219              		.thumb_func
 220              		.type	CyBle_ServiceInit, %function
 221              	CyBle_ServiceInit:
 222              	.LFB3:
 189:.\Generated_Source\PSoC4/BLE_1.c **** 
 190:.\Generated_Source\PSoC4/BLE_1.c **** 
 191:.\Generated_Source\PSoC4/BLE_1.c **** /******************************************************************************
 192:.\Generated_Source\PSoC4/BLE_1.c **** * Function Name: CyBle_ServiceInit
 193:.\Generated_Source\PSoC4/BLE_1.c **** ***************************************************************************//**
 194:.\Generated_Source\PSoC4/BLE_1.c **** * 
 195:.\Generated_Source\PSoC4/BLE_1.c **** *  Initializes all included services.
 196:.\Generated_Source\PSoC4/BLE_1.c **** * 
 197:.\Generated_Source\PSoC4/BLE_1.c **** * \return
 198:.\Generated_Source\PSoC4/BLE_1.c **** *  None
 199:.\Generated_Source\PSoC4/BLE_1.c **** * 
 200:.\Generated_Source\PSoC4/BLE_1.c **** ******************************************************************************/
 201:.\Generated_Source\PSoC4/BLE_1.c **** void CyBle_ServiceInit(void)
 202:.\Generated_Source\PSoC4/BLE_1.c **** {
 223              		.loc 1 202 0
 224              		.cfi_startproc
 225 0000 80B5     		push	{r7, lr}
 226              		.cfi_def_cfa_offset 8
 227              		.cfi_offset 7, -8
 228              		.cfi_offset 14, -4
 229 0002 00AF     		add	r7, sp, #0
 230              		.cfi_def_cfa_register 7
 203:.\Generated_Source\PSoC4/BLE_1.c ****     #if(CYBLE_GATT_ROLE_CLIENT)
 204:.\Generated_Source\PSoC4/BLE_1.c ****         /* Check service range before clearing to support partial discovery */
 205:.\Generated_Source\PSoC4/BLE_1.c ****         if(cyBle_serverInfo[CYBLE_SRVI_GAP].range.startHandle == CYBLE_GATT_INVALID_ATTR_HANDLE_VAL
 206:.\Generated_Source\PSoC4/BLE_1.c ****         {
 207:.\Generated_Source\PSoC4/BLE_1.c ****             (void)memset(&cyBle_gapc, 0, sizeof(cyBle_gapc));
 208:.\Generated_Source\PSoC4/BLE_1.c ****         }
 209:.\Generated_Source\PSoC4/BLE_1.c ****         if(cyBle_serverInfo[CYBLE_SRVI_GATT].range.startHandle == CYBLE_GATT_INVALID_ATTR_HANDLE_VA
 210:.\Generated_Source\PSoC4/BLE_1.c ****         {
 211:.\Generated_Source\PSoC4/BLE_1.c ****             (void)memset(&cyBle_gattc, 0, sizeof(cyBle_gattc));
 212:.\Generated_Source\PSoC4/BLE_1.c ****         }
 213:.\Generated_Source\PSoC4/BLE_1.c ****     #endif /* CYBLE_GATT_ROLE_CLIENT */
 214:.\Generated_Source\PSoC4/BLE_1.c ****     
 215:.\Generated_Source\PSoC4/BLE_1.c **** 	#ifdef CYBLE_ANCS
 216:.\Generated_Source\PSoC4/BLE_1.c ****         CyBle_AncsInit();
 217:.\Generated_Source\PSoC4/BLE_1.c ****     #endif /* CYBLE_ANCS */
 218:.\Generated_Source\PSoC4/BLE_1.c **** 	
 219:.\Generated_Source\PSoC4/BLE_1.c ****     #ifdef CYBLE_ANS
 220:.\Generated_Source\PSoC4/BLE_1.c ****         CyBle_AnsInit();
 221:.\Generated_Source\PSoC4/BLE_1.c ****     #endif /* CYBLE_ANS */
 222:.\Generated_Source\PSoC4/BLE_1.c ****     
ARM GAS  C:\Users\Matthew\AppData\Local\Temp\cc2Cvq26.s 			page 9


 223:.\Generated_Source\PSoC4/BLE_1.c ****     #ifdef CYBLE_BAS
 224:.\Generated_Source\PSoC4/BLE_1.c ****         CyBle_BasInit();
 225:.\Generated_Source\PSoC4/BLE_1.c ****     #endif /* CYBLE_BAS */
 226:.\Generated_Source\PSoC4/BLE_1.c ****     
 227:.\Generated_Source\PSoC4/BLE_1.c ****     #ifdef CYBLE_BCS
 228:.\Generated_Source\PSoC4/BLE_1.c ****         CyBle_BcsInit();
 229:.\Generated_Source\PSoC4/BLE_1.c ****     #endif /* CYBLE_BCS */
 230:.\Generated_Source\PSoC4/BLE_1.c **** 
 231:.\Generated_Source\PSoC4/BLE_1.c ****     #ifdef CYBLE_BLS
 232:.\Generated_Source\PSoC4/BLE_1.c ****         CyBle_BlsInit();
 233:.\Generated_Source\PSoC4/BLE_1.c ****     #endif /* CYBLE_BLS */
 234:.\Generated_Source\PSoC4/BLE_1.c ****     
 235:.\Generated_Source\PSoC4/BLE_1.c ****     #ifdef CYBLE_BMS
 236:.\Generated_Source\PSoC4/BLE_1.c ****         CyBle_BmsInit();
 237:.\Generated_Source\PSoC4/BLE_1.c ****     #endif /* CYBLE_BMS */
 238:.\Generated_Source\PSoC4/BLE_1.c ****     
 239:.\Generated_Source\PSoC4/BLE_1.c ****     #ifdef CYBLE_CGMS
 240:.\Generated_Source\PSoC4/BLE_1.c ****         CyBle_CgmsInit();
 241:.\Generated_Source\PSoC4/BLE_1.c ****     #endif /* CYBLE_CGMS */
 242:.\Generated_Source\PSoC4/BLE_1.c **** 
 243:.\Generated_Source\PSoC4/BLE_1.c ****     #ifdef CYBLE_CPS
 244:.\Generated_Source\PSoC4/BLE_1.c ****         CyBle_CpsInit();
 245:.\Generated_Source\PSoC4/BLE_1.c ****     #endif /* CYBLE_CPS */
 246:.\Generated_Source\PSoC4/BLE_1.c **** 
 247:.\Generated_Source\PSoC4/BLE_1.c ****     #ifdef CYBLE_CSCS
 248:.\Generated_Source\PSoC4/BLE_1.c ****         CyBle_CscsInit();
 249:.\Generated_Source\PSoC4/BLE_1.c ****     #endif /* CYBLE_CSCS */
 250:.\Generated_Source\PSoC4/BLE_1.c ****     
 251:.\Generated_Source\PSoC4/BLE_1.c ****     #ifdef CYBLE_CTS
 252:.\Generated_Source\PSoC4/BLE_1.c ****         CyBle_CtsInit();
 253:.\Generated_Source\PSoC4/BLE_1.c ****     #endif /* CYBLE_CTS */
 254:.\Generated_Source\PSoC4/BLE_1.c **** 
 255:.\Generated_Source\PSoC4/BLE_1.c ****     #ifdef CYBLE_CUSTOM
 256:.\Generated_Source\PSoC4/BLE_1.c ****         CyBle_CustomInit();
 231              		.loc 1 256 0
 232 0004 FFF7FEFF 		bl	CyBle_CustomInit
 257:.\Generated_Source\PSoC4/BLE_1.c ****     #endif /* CYBLE_CUSTOM */
 258:.\Generated_Source\PSoC4/BLE_1.c **** 
 259:.\Generated_Source\PSoC4/BLE_1.c ****     #ifdef CYBLE_DIS
 260:.\Generated_Source\PSoC4/BLE_1.c ****         CyBle_DisInit();
 261:.\Generated_Source\PSoC4/BLE_1.c ****     #endif /* CYBLE_DIS */
 262:.\Generated_Source\PSoC4/BLE_1.c **** 
 263:.\Generated_Source\PSoC4/BLE_1.c ****     #ifdef CYBLE_ESS
 264:.\Generated_Source\PSoC4/BLE_1.c ****         CyBle_EssInit();
 265:.\Generated_Source\PSoC4/BLE_1.c ****     #endif /* CYBLE_ESS */
 266:.\Generated_Source\PSoC4/BLE_1.c ****     
 267:.\Generated_Source\PSoC4/BLE_1.c ****     #ifdef CYBLE_GLS
 268:.\Generated_Source\PSoC4/BLE_1.c ****         CyBle_GlsInit();
 269:.\Generated_Source\PSoC4/BLE_1.c ****     #endif /* CYBLE_GLS */
 270:.\Generated_Source\PSoC4/BLE_1.c ****     
 271:.\Generated_Source\PSoC4/BLE_1.c ****     #ifdef CYBLE_HIDS
 272:.\Generated_Source\PSoC4/BLE_1.c ****         CyBle_HidsInit();
 273:.\Generated_Source\PSoC4/BLE_1.c ****     #endif /* CYBLE_HIDS */
 274:.\Generated_Source\PSoC4/BLE_1.c **** 
 275:.\Generated_Source\PSoC4/BLE_1.c ****     #ifdef CYBLE_HPS
 276:.\Generated_Source\PSoC4/BLE_1.c ****         CyBle_HpsInit();
 277:.\Generated_Source\PSoC4/BLE_1.c ****     #endif /* CYBLE_HPS */
ARM GAS  C:\Users\Matthew\AppData\Local\Temp\cc2Cvq26.s 			page 10


 278:.\Generated_Source\PSoC4/BLE_1.c **** 
 279:.\Generated_Source\PSoC4/BLE_1.c ****     #ifdef CYBLE_HRS
 280:.\Generated_Source\PSoC4/BLE_1.c ****         CyBle_HrsInit();
 281:.\Generated_Source\PSoC4/BLE_1.c ****     #endif /* CYBLE_HRS */
 282:.\Generated_Source\PSoC4/BLE_1.c ****     
 283:.\Generated_Source\PSoC4/BLE_1.c ****     #ifdef CYBLE_HTS
 284:.\Generated_Source\PSoC4/BLE_1.c ****         CyBle_HtsInit();
 285:.\Generated_Source\PSoC4/BLE_1.c ****     #endif /* CYBLE_RSCS */
 286:.\Generated_Source\PSoC4/BLE_1.c **** 
 287:.\Generated_Source\PSoC4/BLE_1.c ****     #ifdef CYBLE_IAS
 288:.\Generated_Source\PSoC4/BLE_1.c ****         CyBle_IasInit();
 289:.\Generated_Source\PSoC4/BLE_1.c ****     #endif /* CYBLE_IAS */
 290:.\Generated_Source\PSoC4/BLE_1.c **** 
 291:.\Generated_Source\PSoC4/BLE_1.c ****     #ifdef CYBLE_IPS
 292:.\Generated_Source\PSoC4/BLE_1.c ****         CyBle_IpsInit();
 293:.\Generated_Source\PSoC4/BLE_1.c ****     #endif /* CYBLE_IPS */
 294:.\Generated_Source\PSoC4/BLE_1.c ****     
 295:.\Generated_Source\PSoC4/BLE_1.c ****     #ifdef CYBLE_LLS
 296:.\Generated_Source\PSoC4/BLE_1.c ****         CyBle_LlsInit();
 297:.\Generated_Source\PSoC4/BLE_1.c ****     #endif /* CYBLE_LLS */
 298:.\Generated_Source\PSoC4/BLE_1.c **** 
 299:.\Generated_Source\PSoC4/BLE_1.c ****     #ifdef CYBLE_LNS
 300:.\Generated_Source\PSoC4/BLE_1.c ****         CyBle_LnsInit();
 301:.\Generated_Source\PSoC4/BLE_1.c ****     #endif /* CYBLE_LNS */
 302:.\Generated_Source\PSoC4/BLE_1.c ****     
 303:.\Generated_Source\PSoC4/BLE_1.c ****     #ifdef CYBLE_NDCS
 304:.\Generated_Source\PSoC4/BLE_1.c ****         CyBle_NdcsInit();
 305:.\Generated_Source\PSoC4/BLE_1.c ****     #endif /* CYBLE_NDCS */
 306:.\Generated_Source\PSoC4/BLE_1.c ****     
 307:.\Generated_Source\PSoC4/BLE_1.c ****     #ifdef CYBLE_PASS
 308:.\Generated_Source\PSoC4/BLE_1.c ****         CyBle_PassInit();
 309:.\Generated_Source\PSoC4/BLE_1.c ****     #endif /* CYBLE_PASS */
 310:.\Generated_Source\PSoC4/BLE_1.c ****     
 311:.\Generated_Source\PSoC4/BLE_1.c ****     #ifdef CYBLE_RSCS
 312:.\Generated_Source\PSoC4/BLE_1.c ****         CyBle_RscsInit();
 313:.\Generated_Source\PSoC4/BLE_1.c ****     #endif /* CYBLE_RSCS */
 314:.\Generated_Source\PSoC4/BLE_1.c **** 
 315:.\Generated_Source\PSoC4/BLE_1.c ****     #ifdef CYBLE_RTUS
 316:.\Generated_Source\PSoC4/BLE_1.c ****         CyBle_RtusInit();
 317:.\Generated_Source\PSoC4/BLE_1.c ****     #endif /* CYBLE_RTUS */
 318:.\Generated_Source\PSoC4/BLE_1.c **** 
 319:.\Generated_Source\PSoC4/BLE_1.c ****     #ifdef CYBLE_SCPS
 320:.\Generated_Source\PSoC4/BLE_1.c ****         CyBle_ScpsInit();
 321:.\Generated_Source\PSoC4/BLE_1.c ****     #endif /* CYBLE_SCPS */
 322:.\Generated_Source\PSoC4/BLE_1.c ****     
 323:.\Generated_Source\PSoC4/BLE_1.c ****     #ifdef CYBLE_TPS
 324:.\Generated_Source\PSoC4/BLE_1.c ****         CyBle_TpsInit();
 325:.\Generated_Source\PSoC4/BLE_1.c ****     #endif /* CYBLE_TPS */
 326:.\Generated_Source\PSoC4/BLE_1.c ****     
 327:.\Generated_Source\PSoC4/BLE_1.c ****     #ifdef CYBLE_UDS
 328:.\Generated_Source\PSoC4/BLE_1.c ****         CyBle_UdsInit();
 329:.\Generated_Source\PSoC4/BLE_1.c ****     #endif /* CYBLE_UDS */
 330:.\Generated_Source\PSoC4/BLE_1.c **** 
 331:.\Generated_Source\PSoC4/BLE_1.c ****     #ifdef CYBLE_WPTS
 332:.\Generated_Source\PSoC4/BLE_1.c ****         CyBle_WptsInit();
 333:.\Generated_Source\PSoC4/BLE_1.c ****     #endif /* CYBLE_WPTS */
 334:.\Generated_Source\PSoC4/BLE_1.c **** 
ARM GAS  C:\Users\Matthew\AppData\Local\Temp\cc2Cvq26.s 			page 11


 335:.\Generated_Source\PSoC4/BLE_1.c ****     #ifdef CYBLE_WSS
 336:.\Generated_Source\PSoC4/BLE_1.c ****         CyBle_WssInit();
 337:.\Generated_Source\PSoC4/BLE_1.c ****     #endif /* CYBLE_WSS */
 338:.\Generated_Source\PSoC4/BLE_1.c **** }
 233              		.loc 1 338 0
 234 0008 BD46     		mov	sp, r7
 235              		@ sp needed
 236 000a 80BD     		pop	{r7, pc}
 237              		.cfi_endproc
 238              	.LFE3:
 239              		.size	CyBle_ServiceInit, .-CyBle_ServiceInit
 240              		.section	.rodata
 241              		.align	2
 242              	.LC0:
 243 0000 2400     		.short	36
 244 0002 03       		.byte	3
 245 0003 00       		.space	1
 246 0004 3000     		.short	48
 247 0006 01       		.byte	1
 248 0007 00       		.space	1
 249 0008 2800     		.short	40
 250 000a 02       		.byte	2
 251 000b 00       		.space	1
 252 000c 2400     		.short	36
 253 000e 01       		.byte	1
 254 000f 00       		.space	1
 255 0010 2400     		.short	36
 256 0012 01       		.byte	1
 257 0013 00       		.space	1
 258              		.section	.text.CyBle_Start,"ax",%progbits
 259              		.align	2
 260              		.global	CyBle_Start
 261              		.code	16
 262              		.thumb_func
 263              		.type	CyBle_Start, %function
 264              	CyBle_Start:
 265              	.LFB4:
 339:.\Generated_Source\PSoC4/BLE_1.c **** 
 340:.\Generated_Source\PSoC4/BLE_1.c **** 
 341:.\Generated_Source\PSoC4/BLE_1.c **** /******************************************************************************
 342:.\Generated_Source\PSoC4/BLE_1.c **** * Function Name: CyBle_Start
 343:.\Generated_Source\PSoC4/BLE_1.c **** ***************************************************************************//**
 344:.\Generated_Source\PSoC4/BLE_1.c **** * 
 345:.\Generated_Source\PSoC4/BLE_1.c **** *  This function initializes the BLE Stack, which consists of the BLE Stack 
 346:.\Generated_Source\PSoC4/BLE_1.c **** *  Manager, BLE Controller, and BLE Host modules. It takes care of initializing
 347:.\Generated_Source\PSoC4/BLE_1.c **** *  the Profile layer, schedulers, Timer and other platform related
 348:.\Generated_Source\PSoC4/BLE_1.c **** *  resources required for the BLE component. It also registers the callback 
 349:.\Generated_Source\PSoC4/BLE_1.c **** *  function for BLE events that will be registered in the BLE stack.
 350:.\Generated_Source\PSoC4/BLE_1.c **** * 
 351:.\Generated_Source\PSoC4/BLE_1.c **** *  Note that this function does not reset the BLE Stack.
 352:.\Generated_Source\PSoC4/BLE_1.c **** * 
 353:.\Generated_Source\PSoC4/BLE_1.c **** *  For HCI-Mode of operation, this function will not initialize the BLE Host 
 354:.\Generated_Source\PSoC4/BLE_1.c **** *  module.
 355:.\Generated_Source\PSoC4/BLE_1.c **** * 
 356:.\Generated_Source\PSoC4/BLE_1.c **** *  Calling this function results in the generation of CYBLE_EVT_STACK_ON event
 357:.\Generated_Source\PSoC4/BLE_1.c **** *  on successful initialization of the BLE Stack.
 358:.\Generated_Source\PSoC4/BLE_1.c **** * 
ARM GAS  C:\Users\Matthew\AppData\Local\Temp\cc2Cvq26.s 			page 12


 359:.\Generated_Source\PSoC4/BLE_1.c **** *  \param callbackFunc: Event callback function to receive events from BLE stack.
 360:.\Generated_Source\PSoC4/BLE_1.c **** *   CYBLE_CALLBACK_T is a function pointer type.
 361:.\Generated_Source\PSoC4/BLE_1.c **** * 
 362:.\Generated_Source\PSoC4/BLE_1.c **** * \return
 363:.\Generated_Source\PSoC4/BLE_1.c **** *  CYBLE_API_RESULT_T : Return value indicates if the function succeeded or 
 364:.\Generated_Source\PSoC4/BLE_1.c **** *  failed. Following are the possible error codes.
 365:.\Generated_Source\PSoC4/BLE_1.c **** * 
 366:.\Generated_Source\PSoC4/BLE_1.c **** *   <table>
 367:.\Generated_Source\PSoC4/BLE_1.c **** *  	  <tr>
 368:.\Generated_Source\PSoC4/BLE_1.c **** *       <th>Error codes</th>
 369:.\Generated_Source\PSoC4/BLE_1.c **** *       <th>Description</th>
 370:.\Generated_Source\PSoC4/BLE_1.c **** *     </tr>
 371:.\Generated_Source\PSoC4/BLE_1.c **** *     <tr>
 372:.\Generated_Source\PSoC4/BLE_1.c **** *       <td>CYBLE_ERROR_OK</td>
 373:.\Generated_Source\PSoC4/BLE_1.c **** *       <td>On successful operation.</td>
 374:.\Generated_Source\PSoC4/BLE_1.c **** *     </tr>
 375:.\Generated_Source\PSoC4/BLE_1.c **** *     <tr>
 376:.\Generated_Source\PSoC4/BLE_1.c **** *       <td>CYBLE_ERROR_INVALID_PARAMETER</td>
 377:.\Generated_Source\PSoC4/BLE_1.c **** *       <td>On passing a NULL pointer to the function when the BLE stack is not built in HCI mode. 
 378:.\Generated_Source\PSoC4/BLE_1.c **** *			CYBLE_ERROR_INVALID_PARAMETER is never returned in HCI mode.</td>
 379:.\Generated_Source\PSoC4/BLE_1.c **** *     </tr>
 380:.\Generated_Source\PSoC4/BLE_1.c **** *     <tr>
 381:.\Generated_Source\PSoC4/BLE_1.c **** *       <td>CYBLE_ERROR_REPEATED_ATTEMPTS</td>
 382:.\Generated_Source\PSoC4/BLE_1.c **** *       <td>On invoking this function more than once without calling CyBle_Shutdown() 
 383:.\Generated_Source\PSoC4/BLE_1.c **** *           function between calls to this function.</td>
 384:.\Generated_Source\PSoC4/BLE_1.c **** *     </tr>
 385:.\Generated_Source\PSoC4/BLE_1.c **** *     <tr>
 386:.\Generated_Source\PSoC4/BLE_1.c **** *       <td>CYBLE_ERROR_MEMORY_ALLOCATION_FAILED</td>
 387:.\Generated_Source\PSoC4/BLE_1.c **** *       <td>There is insufficient memory available.</td>
 388:.\Generated_Source\PSoC4/BLE_1.c **** *     </tr>
 389:.\Generated_Source\PSoC4/BLE_1.c **** *   </table>
 390:.\Generated_Source\PSoC4/BLE_1.c **** * 
 391:.\Generated_Source\PSoC4/BLE_1.c **** *  \globalvars
 392:.\Generated_Source\PSoC4/BLE_1.c **** *   The CyBle_initVar variable is used to indicate initial
 393:.\Generated_Source\PSoC4/BLE_1.c **** *   configuration of this component. The variable is initialized to zero (0u)
 394:.\Generated_Source\PSoC4/BLE_1.c **** *   and set to one (1u) the first time CyBle_Start() is called. This
 395:.\Generated_Source\PSoC4/BLE_1.c **** *   allows for component initialization without re-initialization in all
 396:.\Generated_Source\PSoC4/BLE_1.c **** *   subsequent calls to the CyBle_Start() routine.
 397:.\Generated_Source\PSoC4/BLE_1.c **** * 
 398:.\Generated_Source\PSoC4/BLE_1.c **** ******************************************************************************/
 399:.\Generated_Source\PSoC4/BLE_1.c **** CYBLE_API_RESULT_T CyBle_Start(CYBLE_CALLBACK_T callbackFunc)
 400:.\Generated_Source\PSoC4/BLE_1.c **** {
 266              		.loc 1 400 0
 267              		.cfi_startproc
 268 0000 B0B5     		push	{r4, r5, r7, lr}
 269              		.cfi_def_cfa_offset 16
 270              		.cfi_offset 4, -16
 271              		.cfi_offset 5, -12
 272              		.cfi_offset 7, -8
 273              		.cfi_offset 14, -4
 274 0002 94B0     		sub	sp, sp, #80
 275              		.cfi_def_cfa_offset 96
 276 0004 04AF     		add	r7, sp, #16
 277              		.cfi_def_cfa 7, 80
 278 0006 7860     		str	r0, [r7, #4]
 401:.\Generated_Source\PSoC4/BLE_1.c ****     CYBLE_API_RESULT_T apiResult = CYBLE_ERROR_OK;
 279              		.loc 1 401 0
ARM GAS  C:\Users\Matthew\AppData\Local\Temp\cc2Cvq26.s 			page 13


 280 0008 3E23     		mov	r3, #62
 281 000a FB18     		add	r3, r7, r3
 282 000c 0022     		mov	r2, #0
 283 000e 1A80     		strh	r2, [r3]
 402:.\Generated_Source\PSoC4/BLE_1.c ****     
 403:.\Generated_Source\PSoC4/BLE_1.c ****     #if(CYBLE_MODE_PROFILE)
 404:.\Generated_Source\PSoC4/BLE_1.c ****     
 405:.\Generated_Source\PSoC4/BLE_1.c ****     CYBLE_STK_APP_DATA_BUFF_T cyBle_stackDataBuff[CYBLE_STACK_APP_MIN_POOL] = 
 284              		.loc 1 405 0
 285 0010 2823     		mov	r3, #40
 286 0012 FA18     		add	r2, r7, r3
 287 0014 3E4B     		ldr	r3, .L12
 288 0016 111C     		mov	r1, r2
 289 0018 1A1C     		mov	r2, r3
 290 001a 1423     		mov	r3, #20
 291 001c 081C     		mov	r0, r1
 292 001e 111C     		mov	r1, r2
 293 0020 1A1C     		mov	r2, r3
 294 0022 FFF7FEFF 		bl	memcpy
 406:.\Generated_Source\PSoC4/BLE_1.c ****     {
 407:.\Generated_Source\PSoC4/BLE_1.c ****         {CYBLE_GATT_MTU_PLUS_L2CAP_MEM_EXT, CYBLE_GATT_MTU_BUFF_COUNT + CYBLE_GATT_MAX_ATTR_BUFF_CO
 408:.\Generated_Source\PSoC4/BLE_1.c ****         {CYBLE_L2CAP_PSM_PLUS_L2CAP_MEM_EXT, CYBLE_L2CAP_PSM_COUNT},
 409:.\Generated_Source\PSoC4/BLE_1.c ****         {CYBLE_L2CAP_CBFC_PLUS_L2CAP_MEM_EXT, 2u * CYBLE_L2CAP_LOGICAL_CHANNEL_COUNT},
 410:.\Generated_Source\PSoC4/BLE_1.c ****         {CYBLE_L2CAP_MTU_PLUS_L2CAP_MEM_EXT, CYBLE_L2CAP_LOGICAL_CHANNEL_COUNT},
 411:.\Generated_Source\PSoC4/BLE_1.c ****         {CYBLE_L2CAP_MPS_PLUS_L2CAP_MEM_EXT, CYBLE_L2CAP_LOGICAL_CHANNEL_COUNT * (CYBLE_L2CAP_MTU_M
 412:.\Generated_Source\PSoC4/BLE_1.c ****     }; 
 413:.\Generated_Source\PSoC4/BLE_1.c **** 
 414:.\Generated_Source\PSoC4/BLE_1.c ****     #endif /* CYBLE_MODE_PROFILE */
 415:.\Generated_Source\PSoC4/BLE_1.c ****     
 416:.\Generated_Source\PSoC4/BLE_1.c ****     /* If not initialized then initialize all the required hardware and software */
 417:.\Generated_Source\PSoC4/BLE_1.c ****     if(cyBle_initVar == 0u)
 295              		.loc 1 417 0
 296 0026 3B4B     		ldr	r3, .L12+4
 297 0028 1B78     		ldrb	r3, [r3]
 298 002a 002B     		cmp	r3, #0
 299 002c 04D1     		bne	.L6
 418:.\Generated_Source\PSoC4/BLE_1.c ****     {
 419:.\Generated_Source\PSoC4/BLE_1.c ****         CyBle_Init();
 300              		.loc 1 419 0
 301 002e FFF7FEFF 		bl	CyBle_Init
 420:.\Generated_Source\PSoC4/BLE_1.c ****         cyBle_initVar = 1u;
 302              		.loc 1 420 0
 303 0032 384B     		ldr	r3, .L12+4
 304 0034 0122     		mov	r2, #1
 305 0036 1A70     		strb	r2, [r3]
 306              	.L6:
 421:.\Generated_Source\PSoC4/BLE_1.c ****     }
 422:.\Generated_Source\PSoC4/BLE_1.c ****     
 423:.\Generated_Source\PSoC4/BLE_1.c ****     if(callbackFunc != NULL)
 307              		.loc 1 423 0
 308 0038 7B68     		ldr	r3, [r7, #4]
 309 003a 002B     		cmp	r3, #0
 310 003c 5CD0     		beq	.L7
 424:.\Generated_Source\PSoC4/BLE_1.c ****     {
 425:.\Generated_Source\PSoC4/BLE_1.c ****         CyBle_ApplCallback = callbackFunc;
 311              		.loc 1 425 0
 312 003e 364B     		ldr	r3, .L12+8
ARM GAS  C:\Users\Matthew\AppData\Local\Temp\cc2Cvq26.s 			page 14


 313 0040 7A68     		ldr	r2, [r7, #4]
 314 0042 1A60     		str	r2, [r3]
 426:.\Generated_Source\PSoC4/BLE_1.c ****         
 427:.\Generated_Source\PSoC4/BLE_1.c ****     #if(CYBLE_SHARING_MODE_EXPORT)
 428:.\Generated_Source\PSoC4/BLE_1.c ****         if(cyBle_stackMemoryRam == NULL)
 429:.\Generated_Source\PSoC4/BLE_1.c ****         {
 430:.\Generated_Source\PSoC4/BLE_1.c ****             cyBle_stackMemoryRam = (uint8 *)malloc(CYBLE_STACK_RAM_SIZE);
 431:.\Generated_Source\PSoC4/BLE_1.c ****             if(cyBle_stackMemoryRam == NULL)
 432:.\Generated_Source\PSoC4/BLE_1.c ****             {
 433:.\Generated_Source\PSoC4/BLE_1.c ****                 apiResult = CYBLE_ERROR_MEMORY_ALLOCATION_FAILED;
 434:.\Generated_Source\PSoC4/BLE_1.c ****             }
 435:.\Generated_Source\PSoC4/BLE_1.c ****         }
 436:.\Generated_Source\PSoC4/BLE_1.c ****     #endif /* CYBLE_SHARING_MODE_EXPORT */
 437:.\Generated_Source\PSoC4/BLE_1.c ****         if(apiResult == CYBLE_ERROR_OK)
 315              		.loc 1 437 0
 316 0044 3E23     		mov	r3, #62
 317 0046 FB18     		add	r3, r7, r3
 318 0048 1B88     		ldrh	r3, [r3]
 319 004a 002B     		cmp	r3, #0
 320 004c 29D1     		bne	.L8
 321              	.LBB2:
 438:.\Generated_Source\PSoC4/BLE_1.c ****         {
 439:.\Generated_Source\PSoC4/BLE_1.c ****             CYBLE_DLE_CONFIG_PARAM_T dleConfigParams;
 440:.\Generated_Source\PSoC4/BLE_1.c ****             CYBLE_PRIVACY_1_2_CONFIG_PARAM_T privacyConfigParams;
 441:.\Generated_Source\PSoC4/BLE_1.c ****             CYBLE_STACK_CONFIG_PARAM_T stackConfig;
 442:.\Generated_Source\PSoC4/BLE_1.c ****             uint16 featureHeapReq;
 443:.\Generated_Source\PSoC4/BLE_1.c ****             
 444:.\Generated_Source\PSoC4/BLE_1.c ****             stackConfig.privacyConfig = &privacyConfigParams;
 322              		.loc 1 444 0
 323 004e 1023     		mov	r3, #16
 324 0050 FB18     		add	r3, r7, r3
 325 0052 1C22     		mov	r2, #28
 326 0054 BA18     		add	r2, r7, r2
 327 0056 5A60     		str	r2, [r3, #4]
 445:.\Generated_Source\PSoC4/BLE_1.c ****             stackConfig.dleConfig = &dleConfigParams;
 328              		.loc 1 445 0
 329 0058 1023     		mov	r3, #16
 330 005a FB18     		add	r3, r7, r3
 331 005c 2022     		mov	r2, #32
 332 005e BA18     		add	r2, r7, r2
 333 0060 1A60     		str	r2, [r3]
 446:.\Generated_Source\PSoC4/BLE_1.c ****             
 447:.\Generated_Source\PSoC4/BLE_1.c ****             /* Configure default BLE 4.1 features and enabled 4.2 features */
 448:.\Generated_Source\PSoC4/BLE_1.c ****             stackConfig.feature_mask = CYBLE_DLE_FEATURE | CYBLE_LL_PRIVACY_FEATURE | 
 334              		.loc 1 448 0
 335 0062 1023     		mov	r3, #16
 336 0064 FB18     		add	r3, r7, r3
 337 0066 0022     		mov	r2, #0
 338 0068 1A81     		strh	r2, [r3, #8]
 449:.\Generated_Source\PSoC4/BLE_1.c ****                                        CYBLE_SECURE_CONN_FEATURE;
 450:.\Generated_Source\PSoC4/BLE_1.c **** 
 451:.\Generated_Source\PSoC4/BLE_1.c ****             /* Configure DLE */
 452:.\Generated_Source\PSoC4/BLE_1.c ****             dleConfigParams.dleMaxTxCapability = CYBLE_LL_MAX_TX_PAYLOAD_SIZE;
 339              		.loc 1 452 0
 340 006a 2023     		mov	r3, #32
 341 006c FB18     		add	r3, r7, r3
 342 006e 1B22     		mov	r2, #27
ARM GAS  C:\Users\Matthew\AppData\Local\Temp\cc2Cvq26.s 			page 15


 343 0070 1A80     		strh	r2, [r3]
 453:.\Generated_Source\PSoC4/BLE_1.c ****             dleConfigParams.dleMaxRxCapability = CYBLE_LL_MAX_RX_PAYLOAD_SIZE;
 344              		.loc 1 453 0
 345 0072 2023     		mov	r3, #32
 346 0074 FB18     		add	r3, r7, r3
 347 0076 1B22     		mov	r2, #27
 348 0078 5A80     		strh	r2, [r3, #2]
 454:.\Generated_Source\PSoC4/BLE_1.c ****             dleConfigParams.dleNumTxBuffer = CYBLE_LL_DEFAULT_NUM_ACL_TX_PACKETS;
 349              		.loc 1 454 0
 350 007a 2023     		mov	r3, #32
 351 007c FB18     		add	r3, r7, r3
 352 007e 0422     		mov	r2, #4
 353 0080 1A71     		strb	r2, [r3, #4]
 455:.\Generated_Source\PSoC4/BLE_1.c ****         #if(CYBLE_DLE_FEATURE_ENABLED)
 456:.\Generated_Source\PSoC4/BLE_1.c ****             CyBle_EnableDleFeature();              /* Enable DLE code in stack */
 457:.\Generated_Source\PSoC4/BLE_1.c ****         #endif /* CYBLE_DLE_FEATURE_ENABLED */
 458:.\Generated_Source\PSoC4/BLE_1.c ****         
 459:.\Generated_Source\PSoC4/BLE_1.c ****             /* Configure LL Privacy */
 460:.\Generated_Source\PSoC4/BLE_1.c ****             privacyConfigParams.resolvingListSize = CYBLE_MAX_RESOLVABLE_DEVICES;
 354              		.loc 1 460 0
 355 0082 1C23     		mov	r3, #28
 356 0084 FB18     		add	r3, r7, r3
 357 0086 0022     		mov	r2, #0
 358 0088 1A70     		strb	r2, [r3]
 461:.\Generated_Source\PSoC4/BLE_1.c ****         #if(CYBLE_LL_PRIVACY_FEATURE_ENABLED)
 462:.\Generated_Source\PSoC4/BLE_1.c ****             CyBle_EnablePrivacyFeature();          /* Enable LL Privacy code in stack */
 463:.\Generated_Source\PSoC4/BLE_1.c ****         #endif /* CYBLE_LL_PRIVACY_FEATURE_ENABLED */
 464:.\Generated_Source\PSoC4/BLE_1.c **** 
 465:.\Generated_Source\PSoC4/BLE_1.c ****             apiResult = CyBle_StackSetFeatureConfig(&stackConfig, &featureHeapReq);
 359              		.loc 1 465 0
 360 008a 3E23     		mov	r3, #62
 361 008c FC18     		add	r4, r7, r3
 362 008e 1023     		mov	r3, #16
 363 0090 FA18     		add	r2, r7, r3
 364 0092 0E23     		mov	r3, #14
 365 0094 FB18     		add	r3, r7, r3
 366 0096 101C     		mov	r0, r2
 367 0098 191C     		mov	r1, r3
 368 009a FFF7FEFF 		bl	CyBle_StackSetFeatureConfig
 369 009e 031C     		mov	r3, r0
 370 00a0 2380     		strh	r3, [r4]
 371              	.L8:
 372              	.LBE2:
 466:.\Generated_Source\PSoC4/BLE_1.c ****             }
 467:.\Generated_Source\PSoC4/BLE_1.c ****     
 468:.\Generated_Source\PSoC4/BLE_1.c ****         if(apiResult == CYBLE_ERROR_OK)
 373              		.loc 1 468 0
 374 00a2 3E23     		mov	r3, #62
 375 00a4 FB18     		add	r3, r7, r3
 376 00a6 1B88     		ldrh	r3, [r3]
 377 00a8 002B     		cmp	r3, #0
 378 00aa 29D1     		bne	.L10
 469:.\Generated_Source\PSoC4/BLE_1.c ****         {
 470:.\Generated_Source\PSoC4/BLE_1.c ****             
 471:.\Generated_Source\PSoC4/BLE_1.c ****         #if(CYBLE_MODE_PROFILE)
 472:.\Generated_Source\PSoC4/BLE_1.c ****             #if(CYBLE_BONDING_REQUIREMENT == CYBLE_BONDING_YES)
 473:.\Generated_Source\PSoC4/BLE_1.c ****                 apiResult = CyBle_StackInit(&CyBle_EventHandler, cyBle_stackMemoryRam, 
ARM GAS  C:\Users\Matthew\AppData\Local\Temp\cc2Cvq26.s 			page 16


 379              		.loc 1 473 0
 380 00ac 3E23     		mov	r3, #62
 381 00ae FC18     		add	r4, r7, r3
 382 00b0 1A48     		ldr	r0, .L12+12
 383 00b2 1B49     		ldr	r1, .L12+16
 384 00b4 AE23     		mov	r3, #174
 385 00b6 1A01     		lsl	r2, r3, #4
 386 00b8 2823     		mov	r3, #40
 387 00ba FD18     		add	r5, r7, r3
 388 00bc 0523     		mov	r3, #5
 389 00be 0093     		str	r3, [sp]
 390 00c0 184B     		ldr	r3, .L12+20
 391 00c2 0193     		str	r3, [sp, #4]
 392 00c4 184B     		ldr	r3, .L12+24
 393 00c6 0293     		str	r3, [sp, #8]
 394 00c8 2B1C     		mov	r3, r5
 395 00ca FFF7FEFF 		bl	CyBle_StackInit
 396 00ce 031C     		mov	r3, r0
 397 00d0 2380     		strh	r3, [r4]
 474:.\Generated_Source\PSoC4/BLE_1.c ****                     CYBLE_STACK_RAM_SIZE - CYBLE_GATT_PREPARE_WRITE_BUFF_LEN, cyBle_stackDataBuff, 
 475:.\Generated_Source\PSoC4/BLE_1.c ****                     CYBLE_STACK_APP_MIN_POOL, cyBle_flashStorage.stackFlashptr, CYBLE_STACK_FLASH_S
 476:.\Generated_Source\PSoC4/BLE_1.c ****             #else
 477:.\Generated_Source\PSoC4/BLE_1.c ****                 apiResult = CyBle_StackInit(&CyBle_EventHandler, cyBle_stackMemoryRam, 
 478:.\Generated_Source\PSoC4/BLE_1.c ****                     CYBLE_STACK_RAM_SIZE - CYBLE_GATT_PREPARE_WRITE_BUFF_LEN, cyBle_stackDataBuff, 
 479:.\Generated_Source\PSoC4/BLE_1.c ****                     CYBLE_STACK_APP_MIN_POOL, NULL, 0u);
 480:.\Generated_Source\PSoC4/BLE_1.c ****             #endif  /* CYBLE_BONDING_REQUIREMENT == CYBLE_BONDING_YES */
 481:.\Generated_Source\PSoC4/BLE_1.c ****         #else
 482:.\Generated_Source\PSoC4/BLE_1.c ****             apiResult = CyBle_StackInit(&CyBle_EventHandler, cyBle_stackMemoryRam, CYBLE_STACK_RAM_
 483:.\Generated_Source\PSoC4/BLE_1.c ****                 NULL, 0u, NULL, 0u);
 484:.\Generated_Source\PSoC4/BLE_1.c ****         #endif /* CYBLE_MODE_PROFILE */
 485:.\Generated_Source\PSoC4/BLE_1.c **** 
 486:.\Generated_Source\PSoC4/BLE_1.c ****             if(apiResult == CYBLE_ERROR_OK)
 398              		.loc 1 486 0
 399 00d2 3E23     		mov	r3, #62
 400 00d4 FB18     		add	r3, r7, r3
 401 00d6 1B88     		ldrh	r3, [r3]
 402 00d8 002B     		cmp	r3, #0
 403 00da 11D1     		bne	.L10
 487:.\Generated_Source\PSoC4/BLE_1.c ****             {
 488:.\Generated_Source\PSoC4/BLE_1.c ****                 CyBle_SetState(CYBLE_STATE_INITIALIZING);
 404              		.loc 1 488 0
 405 00dc 134B     		ldr	r3, .L12+28
 406 00de 0122     		mov	r2, #1
 407 00e0 1A70     		strb	r2, [r3]
 489:.\Generated_Source\PSoC4/BLE_1.c ****                 
 490:.\Generated_Source\PSoC4/BLE_1.c ****             #if (CYBLE_GATT_ROLE_CLIENT)
 491:.\Generated_Source\PSoC4/BLE_1.c ****                 CyBle_SetClientState(CYBLE_CLIENT_STATE_DISCONNECTED);
 492:.\Generated_Source\PSoC4/BLE_1.c ****             #endif /* CYBLE_GATT_ROLE_CLIENT */
 493:.\Generated_Source\PSoC4/BLE_1.c ****                 
 494:.\Generated_Source\PSoC4/BLE_1.c ****             #if(CYBLE_GATT_ROLE_SERVER)
 495:.\Generated_Source\PSoC4/BLE_1.c ****                 apiResult = CyBle_GattsDbRegister(cyBle_gattDB, CYBLE_GATT_DB_INDEX_COUNT, CYBLE_GA
 408              		.loc 1 495 0
 409 00e2 3E23     		mov	r3, #62
 410 00e4 FC18     		add	r4, r7, r3
 411 00e6 124B     		ldr	r3, .L12+32
 412 00e8 181C     		mov	r0, r3
 413 00ea 1D21     		mov	r1, #29
ARM GAS  C:\Users\Matthew\AppData\Local\Temp\cc2Cvq26.s 			page 17


 414 00ec 0822     		mov	r2, #8
 415 00ee FFF7FEFF 		bl	CyBle_GattsDbRegister
 416 00f2 031C     		mov	r3, r0
 417 00f4 2380     		strh	r3, [r4]
 418 00f6 03E0     		b	.L10
 419              	.L7:
 496:.\Generated_Source\PSoC4/BLE_1.c ****             #endif /* CYBLE_GATT_ROLE_SERVER */
 497:.\Generated_Source\PSoC4/BLE_1.c ****             }
 498:.\Generated_Source\PSoC4/BLE_1.c ****         }
 499:.\Generated_Source\PSoC4/BLE_1.c ****     }
 500:.\Generated_Source\PSoC4/BLE_1.c ****     else
 501:.\Generated_Source\PSoC4/BLE_1.c ****     {
 502:.\Generated_Source\PSoC4/BLE_1.c ****         apiResult = CYBLE_ERROR_INVALID_PARAMETER;
 420              		.loc 1 502 0
 421 00f8 3E23     		mov	r3, #62
 422 00fa FB18     		add	r3, r7, r3
 423 00fc 0122     		mov	r2, #1
 424 00fe 1A80     		strh	r2, [r3]
 425              	.L10:
 503:.\Generated_Source\PSoC4/BLE_1.c ****     }
 504:.\Generated_Source\PSoC4/BLE_1.c **** 
 505:.\Generated_Source\PSoC4/BLE_1.c ****     return (apiResult);
 426              		.loc 1 505 0
 427 0100 3E23     		mov	r3, #62
 428 0102 FB18     		add	r3, r7, r3
 429 0104 1B88     		ldrh	r3, [r3]
 506:.\Generated_Source\PSoC4/BLE_1.c **** }
 430              		.loc 1 506 0
 431 0106 181C     		mov	r0, r3
 432 0108 BD46     		mov	sp, r7
 433 010a 10B0     		add	sp, sp, #64
 434              		@ sp needed
 435 010c B0BD     		pop	{r4, r5, r7, pc}
 436              	.L13:
 437 010e C046     		.align	2
 438              	.L12:
 439 0110 00000000 		.word	.LC0
 440 0114 00000000 		.word	cyBle_initVar
 441 0118 00000000 		.word	CyBle_ApplCallback
 442 011c 00000000 		.word	CyBle_EventHandler
 443 0120 00000000 		.word	cyBle_stackMemoryRam
 444 0124 00000000 		.word	cyBle_flashStorage
 445 0128 79020000 		.word	633
 446 012c 00000000 		.word	cyBle_state
 447 0130 00000000 		.word	cyBle_gattDB
 448              		.cfi_endproc
 449              	.LFE4:
 450              		.size	CyBle_Start, .-CyBle_Start
 451              		.section	.text.CyBle_Stop,"ax",%progbits
 452              		.align	2
 453              		.global	CyBle_Stop
 454              		.code	16
 455              		.thumb_func
 456              		.type	CyBle_Stop, %function
 457              	CyBle_Stop:
 458              	.LFB5:
 507:.\Generated_Source\PSoC4/BLE_1.c **** 
ARM GAS  C:\Users\Matthew\AppData\Local\Temp\cc2Cvq26.s 			page 18


 508:.\Generated_Source\PSoC4/BLE_1.c **** 
 509:.\Generated_Source\PSoC4/BLE_1.c **** /******************************************************************************
 510:.\Generated_Source\PSoC4/BLE_1.c **** * Function Name: CyBle_Stop
 511:.\Generated_Source\PSoC4/BLE_1.c **** ***************************************************************************//**
 512:.\Generated_Source\PSoC4/BLE_1.c **** * 
 513:.\Generated_Source\PSoC4/BLE_1.c **** *  This function stops any ongoing operation in the BLE Stack and forces the 
 514:.\Generated_Source\PSoC4/BLE_1.c **** *  BLE Stack to shut down. The only function that can be called after calling
 515:.\Generated_Source\PSoC4/BLE_1.c **** *  this function is CyBle_Start(). 
 516:.\Generated_Source\PSoC4/BLE_1.c **** * 
 517:.\Generated_Source\PSoC4/BLE_1.c **** * \return
 518:.\Generated_Source\PSoC4/BLE_1.c **** *  None
 519:.\Generated_Source\PSoC4/BLE_1.c **** * 
 520:.\Generated_Source\PSoC4/BLE_1.c **** ******************************************************************************/
 521:.\Generated_Source\PSoC4/BLE_1.c **** void CyBle_Stop(void)
 522:.\Generated_Source\PSoC4/BLE_1.c **** {
 459              		.loc 1 522 0
 460              		.cfi_startproc
 461 0000 80B5     		push	{r7, lr}
 462              		.cfi_def_cfa_offset 8
 463              		.cfi_offset 7, -8
 464              		.cfi_offset 14, -4
 465 0002 00AF     		add	r7, sp, #0
 466              		.cfi_def_cfa_register 7
 523:.\Generated_Source\PSoC4/BLE_1.c ****     CyBle_Shutdown();                         /* Stop all ongoing activities */
 467              		.loc 1 523 0
 468 0004 FFF7FEFF 		bl	CyBle_Shutdown
 524:.\Generated_Source\PSoC4/BLE_1.c ****     CyBle_SetState(CYBLE_STATE_STOPPED);
 469              		.loc 1 524 0
 470 0008 024B     		ldr	r3, .L15
 471 000a 0022     		mov	r2, #0
 472 000c 1A70     		strb	r2, [r3]
 525:.\Generated_Source\PSoC4/BLE_1.c ****     #if(CYBLE_SHARING_MODE_EXPORT)
 526:.\Generated_Source\PSoC4/BLE_1.c ****         if(cyBle_stackMemoryRam != NULL)
 527:.\Generated_Source\PSoC4/BLE_1.c ****         {
 528:.\Generated_Source\PSoC4/BLE_1.c ****             free(cyBle_stackMemoryRam);
 529:.\Generated_Source\PSoC4/BLE_1.c ****         }
 530:.\Generated_Source\PSoC4/BLE_1.c ****     #endif /* CYBLE_SHARING_MODE_EXPORT */
 531:.\Generated_Source\PSoC4/BLE_1.c **** }
 473              		.loc 1 531 0
 474 000e BD46     		mov	sp, r7
 475              		@ sp needed
 476 0010 80BD     		pop	{r7, pc}
 477              	.L16:
 478 0012 C046     		.align	2
 479              	.L15:
 480 0014 00000000 		.word	cyBle_state
 481              		.cfi_endproc
 482              	.LFE5:
 483              		.size	CyBle_Stop, .-CyBle_Stop
 484              		.section	.text.CyBle_StoreBondingData,"ax",%progbits
 485              		.align	2
 486              		.global	CyBle_StoreBondingData
 487              		.code	16
 488              		.thumb_func
 489              		.type	CyBle_StoreBondingData, %function
 490              	CyBle_StoreBondingData:
 491              	.LFB6:
ARM GAS  C:\Users\Matthew\AppData\Local\Temp\cc2Cvq26.s 			page 19


 532:.\Generated_Source\PSoC4/BLE_1.c **** 
 533:.\Generated_Source\PSoC4/BLE_1.c **** 
 534:.\Generated_Source\PSoC4/BLE_1.c **** #if((CYBLE_GAP_ROLE_PERIPHERAL || CYBLE_GAP_ROLE_CENTRAL) && (CYBLE_BONDING_REQUIREMENT == CYBLE_BO
 535:.\Generated_Source\PSoC4/BLE_1.c **** 
 536:.\Generated_Source\PSoC4/BLE_1.c ****     
 537:.\Generated_Source\PSoC4/BLE_1.c **** /******************************************************************************
 538:.\Generated_Source\PSoC4/BLE_1.c **** * Function Name: CyBle_StoreBondingData
 539:.\Generated_Source\PSoC4/BLE_1.c **** ***************************************************************************//**
 540:.\Generated_Source\PSoC4/BLE_1.c **** * 
 541:.\Generated_Source\PSoC4/BLE_1.c **** *  This function writes the new bonding data from RAM to the dedicated Flash 
 542:.\Generated_Source\PSoC4/BLE_1.c **** *  location as defined by the component. It performs data comparing between RAM
 543:.\Generated_Source\PSoC4/BLE_1.c **** *  and Flash before writing to Flash. If there is no change between RAM and Flash
 544:.\Generated_Source\PSoC4/BLE_1.c **** *  data, then no write is performed. It writes only one flash row in one call.
 545:.\Generated_Source\PSoC4/BLE_1.c **** *  Application should keep calling this function till API return CYBLE_ERROR_OK. 
 546:.\Generated_Source\PSoC4/BLE_1.c **** *  This function is available only when Bonding requirement is selected in
 547:.\Generated_Source\PSoC4/BLE_1.c **** *  Security settings.    
 548:.\Generated_Source\PSoC4/BLE_1.c **** * 
 549:.\Generated_Source\PSoC4/BLE_1.c **** *  \param isForceWrite:  If value is set to 0, then stack will check if flash write 
 550:.\Generated_Source\PSoC4/BLE_1.c **** *                 is permissible. 
 551:.\Generated_Source\PSoC4/BLE_1.c **** *  
 552:.\Generated_Source\PSoC4/BLE_1.c **** * \return
 553:.\Generated_Source\PSoC4/BLE_1.c **** *  Return value is of type CYBLE_API_RESULT_T.
 554:.\Generated_Source\PSoC4/BLE_1.c **** *
 555:.\Generated_Source\PSoC4/BLE_1.c **** *   Errors codes                         | Description
 556:.\Generated_Source\PSoC4/BLE_1.c **** *   ----------------------------------   | ------------------------------------
 557:.\Generated_Source\PSoC4/BLE_1.c **** *   CYBLE_ERROR_OK                       | On successful operation
 558:.\Generated_Source\PSoC4/BLE_1.c **** *   CYBLE_ERROR_FLASH_WRITE_NOT_PERMITED | Flash Write is not complete
 559:.\Generated_Source\PSoC4/BLE_1.c **** *    
 560:.\Generated_Source\PSoC4/BLE_1.c **** *  \sideeffect
 561:.\Generated_Source\PSoC4/BLE_1.c **** *   For BLE devices with 128K of Flash memory this API will automatically 
 562:.\Generated_Source\PSoC4/BLE_1.c **** *   modify the clock settings for the device.
 563:.\Generated_Source\PSoC4/BLE_1.c **** *   Writing to flash requires changes to be done to the IMO (set to 48 MHz)
 564:.\Generated_Source\PSoC4/BLE_1.c **** *   and HFCLK (source set to IMO) settings. The configuration is restored before
 565:.\Generated_Source\PSoC4/BLE_1.c **** *   returning. This will impact the operation of most of the hardware in the
 566:.\Generated_Source\PSoC4/BLE_1.c **** *   device.
 567:.\Generated_Source\PSoC4/BLE_1.c **** * 
 568:.\Generated_Source\PSoC4/BLE_1.c **** *  \globalvars
 569:.\Generated_Source\PSoC4/BLE_1.c **** *   The cyBle_pendingFlashWrite variable is used to detect status
 570:.\Generated_Source\PSoC4/BLE_1.c **** *   of pending write to flash operation for stack data and CCCD.
 571:.\Generated_Source\PSoC4/BLE_1.c **** *   This API automatically clears pending bits after write operation complete.
 572:.\Generated_Source\PSoC4/BLE_1.c **** *     
 573:.\Generated_Source\PSoC4/BLE_1.c **** ******************************************************************************/
 574:.\Generated_Source\PSoC4/BLE_1.c **** CYBLE_API_RESULT_T CyBle_StoreBondingData(uint8 isForceWrite)
 575:.\Generated_Source\PSoC4/BLE_1.c **** {
 492              		.loc 1 575 0
 493              		.cfi_startproc
 494 0000 90B5     		push	{r4, r7, lr}
 495              		.cfi_def_cfa_offset 12
 496              		.cfi_offset 4, -12
 497              		.cfi_offset 7, -8
 498              		.cfi_offset 14, -4
 499 0002 97B0     		sub	sp, sp, #92
 500              		.cfi_def_cfa_offset 104
 501 0004 00AF     		add	r7, sp, #0
 502              		.cfi_def_cfa_register 7
 503 0006 021C     		mov	r2, r0
 504 0008 FB1D     		add	r3, r7, #7
ARM GAS  C:\Users\Matthew\AppData\Local\Temp\cc2Cvq26.s 			page 20


 505 000a 1A70     		strb	r2, [r3]
 576:.\Generated_Source\PSoC4/BLE_1.c ****     CYBLE_API_RESULT_T apiResult = CYBLE_ERROR_OK;
 506              		.loc 1 576 0
 507 000c 5623     		mov	r3, #86
 508 000e FB18     		add	r3, r7, r3
 509 0010 0022     		mov	r2, #0
 510 0012 1A80     		strh	r2, [r3]
 577:.\Generated_Source\PSoC4/BLE_1.c ****     
 578:.\Generated_Source\PSoC4/BLE_1.c ****     /* Store Stack data */
 579:.\Generated_Source\PSoC4/BLE_1.c ****     if((cyBle_pendingFlashWrite & CYBLE_PENDING_STACK_FLASH_WRITE_BIT) != 0u)
 511              		.loc 1 579 0
 512 0014 644B     		ldr	r3, .L27
 513 0016 1B78     		ldrb	r3, [r3]
 514 0018 1A1C     		mov	r2, r3
 515 001a 0123     		mov	r3, #1
 516 001c 1340     		and	r3, r2
 517 001e 1ED0     		beq	.L18
 580:.\Generated_Source\PSoC4/BLE_1.c ****     {
 581:.\Generated_Source\PSoC4/BLE_1.c ****         apiResult = CyBle_StoreStackData(isForceWrite);
 518              		.loc 1 581 0
 519 0020 5623     		mov	r3, #86
 520 0022 FC18     		add	r4, r7, r3
 521 0024 FB1D     		add	r3, r7, #7
 522 0026 1B78     		ldrb	r3, [r3]
 523 0028 181C     		mov	r0, r3
 524 002a FFF7FEFF 		bl	CyBle_StoreStackData
 525 002e 031C     		mov	r3, r0
 526 0030 2380     		strh	r3, [r4]
 582:.\Generated_Source\PSoC4/BLE_1.c ****         if(apiResult == CYBLE_ERROR_OK)
 527              		.loc 1 582 0
 528 0032 5623     		mov	r3, #86
 529 0034 FB18     		add	r3, r7, r3
 530 0036 1B88     		ldrh	r3, [r3]
 531 0038 002B     		cmp	r3, #0
 532 003a 10D1     		bne	.L18
 583:.\Generated_Source\PSoC4/BLE_1.c ****         {
 584:.\Generated_Source\PSoC4/BLE_1.c ****             cyBle_pendingFlashWrite &= (uint8)~CYBLE_PENDING_STACK_FLASH_WRITE_BIT;
 533              		.loc 1 584 0
 534 003c 5A4B     		ldr	r3, .L27
 535 003e 1B78     		ldrb	r3, [r3]
 536 0040 0122     		mov	r2, #1
 537 0042 9343     		bic	r3, r2
 538 0044 DAB2     		uxtb	r2, r3
 539 0046 584B     		ldr	r3, .L27
 540 0048 1A70     		strb	r2, [r3]
 585:.\Generated_Source\PSoC4/BLE_1.c ****             /* Change apiResult if there are more pending data to store */
 586:.\Generated_Source\PSoC4/BLE_1.c ****             if((cyBle_pendingFlashWrite & CYBLE_PENDING_CCCD_FLASH_WRITE_BIT) != 0u)
 541              		.loc 1 586 0
 542 004a 574B     		ldr	r3, .L27
 543 004c 1B78     		ldrb	r3, [r3]
 544 004e 1A1C     		mov	r2, r3
 545 0050 0223     		mov	r3, #2
 546 0052 1340     		and	r3, r2
 547 0054 03D0     		beq	.L18
 587:.\Generated_Source\PSoC4/BLE_1.c ****             {
 588:.\Generated_Source\PSoC4/BLE_1.c ****                 apiResult = CYBLE_ERROR_FLASH_WRITE_NOT_PERMITED;
 548              		.loc 1 588 0
ARM GAS  C:\Users\Matthew\AppData\Local\Temp\cc2Cvq26.s 			page 21


 549 0056 5623     		mov	r3, #86
 550 0058 FB18     		add	r3, r7, r3
 551 005a 2822     		mov	r2, #40
 552 005c 1A80     		strh	r2, [r3]
 553              	.L18:
 589:.\Generated_Source\PSoC4/BLE_1.c ****             }
 590:.\Generated_Source\PSoC4/BLE_1.c ****         }
 591:.\Generated_Source\PSoC4/BLE_1.c ****     }
 592:.\Generated_Source\PSoC4/BLE_1.c **** #if(CYBLE_GATT_DB_CCCD_COUNT != 0u)
 593:.\Generated_Source\PSoC4/BLE_1.c ****     /* Store CCCD values */
 594:.\Generated_Source\PSoC4/BLE_1.c ****     if( ((apiResult == CYBLE_ERROR_OK) || (isForceWrite != 0u)) && 
 554              		.loc 1 594 0
 555 005e 5623     		mov	r3, #86
 556 0060 FB18     		add	r3, r7, r3
 557 0062 1B88     		ldrh	r3, [r3]
 558 0064 002B     		cmp	r3, #0
 559 0066 03D0     		beq	.L19
 560              		.loc 1 594 0 is_stmt 0 discriminator 2
 561 0068 FB1D     		add	r3, r7, #7
 562 006a 1B78     		ldrb	r3, [r3]
 563 006c 002B     		cmp	r3, #0
 564 006e 2ED0     		beq	.L20
 565              	.L19:
 595:.\Generated_Source\PSoC4/BLE_1.c ****         ((cyBle_pendingFlashWrite & CYBLE_PENDING_CCCD_FLASH_WRITE_BIT) != 0u) &&
 566              		.loc 1 595 0 is_stmt 1 discriminator 3
 567 0070 4D4B     		ldr	r3, .L27
 568 0072 1B78     		ldrb	r3, [r3]
 569 0074 1A1C     		mov	r2, r3
 570 0076 0223     		mov	r3, #2
 571 0078 1340     		and	r3, r2
 594:.\Generated_Source\PSoC4/BLE_1.c ****         ((cyBle_pendingFlashWrite & CYBLE_PENDING_CCCD_FLASH_WRITE_BIT) != 0u) &&
 572              		.loc 1 594 0 discriminator 3
 573 007a 28D0     		beq	.L20
 596:.\Generated_Source\PSoC4/BLE_1.c ****         (cyBle_connHandle.bdHandle <= CYBLE_GAP_MAX_BONDED_DEVICE))
 574              		.loc 1 596 0
 575 007c 4B4B     		ldr	r3, .L27+4
 576 007e 1B78     		ldrb	r3, [r3]
 595:.\Generated_Source\PSoC4/BLE_1.c ****         ((cyBle_pendingFlashWrite & CYBLE_PENDING_CCCD_FLASH_WRITE_BIT) != 0u) &&
 577              		.loc 1 595 0
 578 0080 042B     		cmp	r3, #4
 579 0082 24D8     		bhi	.L20
 597:.\Generated_Source\PSoC4/BLE_1.c ****     {
 598:.\Generated_Source\PSoC4/BLE_1.c ****         apiResult = CyBle_StoreAppData(cyBle_attValuesCCCD, cyBle_flashStorage.attValuesCCCDFlashMe
 599:.\Generated_Source\PSoC4/BLE_1.c ****                         cyBle_connHandle.bdHandle], CYBLE_GATT_DB_CCCD_COUNT, isForceWrite);
 580              		.loc 1 599 0
 581 0084 494B     		ldr	r3, .L27+4
 582 0086 1B78     		ldrb	r3, [r3]
 598:.\Generated_Source\PSoC4/BLE_1.c ****                         cyBle_connHandle.bdHandle], CYBLE_GATT_DB_CCCD_COUNT, isForceWrite);
 583              		.loc 1 598 0
 584 0088 1A1C     		mov	r2, r3
 585 008a 131C     		mov	r3, r2
 586 008c 5B00     		lsl	r3, r3, #1
 587 008e 9B18     		add	r3, r3, r2
 588 0090 9B00     		lsl	r3, r3, #2
 589 0092 9E22     		mov	r2, #158
 590 0094 9200     		lsl	r2, r2, #2
 591 0096 9A18     		add	r2, r3, r2
ARM GAS  C:\Users\Matthew\AppData\Local\Temp\cc2Cvq26.s 			page 22


 592 0098 454B     		ldr	r3, .L27+8
 593 009a D318     		add	r3, r2, r3
 594 009c 5A1C     		add	r2, r3, #1
 595 009e 5623     		mov	r3, #86
 596 00a0 FC18     		add	r4, r7, r3
 597 00a2 4449     		ldr	r1, .L27+12
 598 00a4 FB1D     		add	r3, r7, #7
 599 00a6 1B78     		ldrb	r3, [r3]
 600 00a8 081C     		mov	r0, r1
 601 00aa 111C     		mov	r1, r2
 602 00ac 0C22     		mov	r2, #12
 603 00ae FFF7FEFF 		bl	CyBle_StoreAppData
 604 00b2 031C     		mov	r3, r0
 605 00b4 2380     		strh	r3, [r4]
 600:.\Generated_Source\PSoC4/BLE_1.c ****         if(apiResult == CYBLE_ERROR_OK)
 606              		.loc 1 600 0
 607 00b6 5623     		mov	r3, #86
 608 00b8 FB18     		add	r3, r7, r3
 609 00ba 1B88     		ldrh	r3, [r3]
 610 00bc 002B     		cmp	r3, #0
 611 00be 06D1     		bne	.L20
 601:.\Generated_Source\PSoC4/BLE_1.c ****         {
 602:.\Generated_Source\PSoC4/BLE_1.c ****             cyBle_pendingFlashWrite &= (uint8)~CYBLE_PENDING_CCCD_FLASH_WRITE_BIT;
 612              		.loc 1 602 0
 613 00c0 394B     		ldr	r3, .L27
 614 00c2 1B78     		ldrb	r3, [r3]
 615 00c4 0222     		mov	r2, #2
 616 00c6 9343     		bic	r3, r2
 617 00c8 DAB2     		uxtb	r2, r3
 618 00ca 374B     		ldr	r3, .L27
 619 00cc 1A70     		strb	r2, [r3]
 620              	.L20:
 603:.\Generated_Source\PSoC4/BLE_1.c ****         }
 604:.\Generated_Source\PSoC4/BLE_1.c ****     }
 605:.\Generated_Source\PSoC4/BLE_1.c ****     /* Clear requested CCCD values */
 606:.\Generated_Source\PSoC4/BLE_1.c ****     if( ((apiResult == CYBLE_ERROR_OK) || (isForceWrite != 0u)) && 
 621              		.loc 1 606 0
 622 00ce 5623     		mov	r3, #86
 623 00d0 FB18     		add	r3, r7, r3
 624 00d2 1B88     		ldrh	r3, [r3]
 625 00d4 002B     		cmp	r3, #0
 626 00d6 03D0     		beq	.L21
 627              		.loc 1 606 0 is_stmt 0 discriminator 2
 628 00d8 FB1D     		add	r3, r7, #7
 629 00da 1B78     		ldrb	r3, [r3]
 630 00dc 002B     		cmp	r3, #0
 631 00de 5CD0     		beq	.L22
 632              	.L21:
 607:.\Generated_Source\PSoC4/BLE_1.c ****         ((cyBle_pendingFlashWrite & CYBLE_PENDING_CCCD_FLASH_CLEAR_MASK) != 0u) )
 633              		.loc 1 607 0 is_stmt 1 discriminator 3
 634 00e0 314B     		ldr	r3, .L27
 635 00e2 1B78     		ldrb	r3, [r3]
 636 00e4 1A1C     		mov	r2, r3
 637 00e6 0C23     		mov	r3, #12
 638 00e8 1340     		and	r3, r2
 606:.\Generated_Source\PSoC4/BLE_1.c ****         ((cyBle_pendingFlashWrite & CYBLE_PENDING_CCCD_FLASH_CLEAR_MASK) != 0u) )
 639              		.loc 1 606 0 discriminator 3
ARM GAS  C:\Users\Matthew\AppData\Local\Temp\cc2Cvq26.s 			page 23


 640 00ea 56D0     		beq	.L22
 608:.\Generated_Source\PSoC4/BLE_1.c ****     {
 609:.\Generated_Source\PSoC4/BLE_1.c ****         if((cyBle_pendingFlashWrite & CYBLE_PENDING_CCCD_FLASH_CLEAR_ALL_BIT) != 0u)
 641              		.loc 1 609 0
 642 00ec 2E4B     		ldr	r3, .L27
 643 00ee 1B78     		ldrb	r3, [r3]
 644 00f0 1A1C     		mov	r2, r3
 645 00f2 0823     		mov	r3, #8
 646 00f4 1340     		and	r3, r2
 647 00f6 22D0     		beq	.L23
 648              	.LBB3:
 610:.\Generated_Source\PSoC4/BLE_1.c ****         {
 611:.\Generated_Source\PSoC4/BLE_1.c ****             /* Remove cccd values for all bonded devices */
 612:.\Generated_Source\PSoC4/BLE_1.c ****             uint8 defaultValuesCCCD[CYBLE_GAP_MAX_BONDED_DEVICE + 1u][CYBLE_GATT_DB_CCCD_COUNT];
 613:.\Generated_Source\PSoC4/BLE_1.c ****             
 614:.\Generated_Source\PSoC4/BLE_1.c ****             (void)memset(defaultValuesCCCD, 0, sizeof(defaultValuesCCCD));
 649              		.loc 1 614 0
 650 00f8 0C23     		mov	r3, #12
 651 00fa FB18     		add	r3, r7, r3
 652 00fc 181C     		mov	r0, r3
 653 00fe 0021     		mov	r1, #0
 654 0100 3C22     		mov	r2, #60
 655 0102 FFF7FEFF 		bl	memset
 615:.\Generated_Source\PSoC4/BLE_1.c **** 
 616:.\Generated_Source\PSoC4/BLE_1.c ****             apiResult = CyBle_StoreAppData((uint8 *)defaultValuesCCCD, 
 656              		.loc 1 616 0
 657 0106 5623     		mov	r3, #86
 658 0108 FC18     		add	r4, r7, r3
 659 010a 0C23     		mov	r3, #12
 660 010c F918     		add	r1, r7, r3
 661 010e 2A4A     		ldr	r2, .L27+16
 662 0110 FB1D     		add	r3, r7, #7
 663 0112 1B78     		ldrb	r3, [r3]
 664 0114 081C     		mov	r0, r1
 665 0116 111C     		mov	r1, r2
 666 0118 3C22     		mov	r2, #60
 667 011a FFF7FEFF 		bl	CyBle_StoreAppData
 668 011e 031C     		mov	r3, r0
 669 0120 2380     		strh	r3, [r4]
 617:.\Generated_Source\PSoC4/BLE_1.c ****                 (const uint8 *)cyBle_flashStorage.attValuesCCCDFlashMemory, sizeof(defaultValuesCCC
 618:.\Generated_Source\PSoC4/BLE_1.c ****             if(apiResult == CYBLE_ERROR_OK)
 670              		.loc 1 618 0
 671 0122 5623     		mov	r3, #86
 672 0124 FB18     		add	r3, r7, r3
 673 0126 1B88     		ldrh	r3, [r3]
 674 0128 002B     		cmp	r3, #0
 675 012a 07D1     		bne	.L24
 619:.\Generated_Source\PSoC4/BLE_1.c ****             {
 620:.\Generated_Source\PSoC4/BLE_1.c ****                 cyBle_pendingFlashWrite &= (uint8)~CYBLE_PENDING_CCCD_FLASH_CLEAR_ALL_BIT;
 676              		.loc 1 620 0
 677 012c 1E4B     		ldr	r3, .L27
 678 012e 1B78     		ldrb	r3, [r3]
 679 0130 0822     		mov	r2, #8
 680 0132 9343     		bic	r3, r2
 681 0134 DAB2     		uxtb	r2, r3
 682 0136 1C4B     		ldr	r3, .L27
 683 0138 1A70     		strb	r2, [r3]
ARM GAS  C:\Users\Matthew\AppData\Local\Temp\cc2Cvq26.s 			page 24


 684              	.LBE3:
 685 013a 2EE0     		b	.L22
 686              	.L24:
 687 013c 2DE0     		b	.L22
 688              	.L23:
 689              	.LBB4:
 621:.\Generated_Source\PSoC4/BLE_1.c ****             }
 622:.\Generated_Source\PSoC4/BLE_1.c ****         }
 623:.\Generated_Source\PSoC4/BLE_1.c ****         else /* Remove cccd values for particular device */
 624:.\Generated_Source\PSoC4/BLE_1.c ****         {
 625:.\Generated_Source\PSoC4/BLE_1.c ****             uint8 defaultValuesCCCD[CYBLE_GATT_DB_CCCD_COUNT] = {0u};
 690              		.loc 1 625 0
 691 013e 4823     		mov	r3, #72
 692 0140 FB18     		add	r3, r7, r3
 693 0142 0022     		mov	r2, #0
 694 0144 1A60     		str	r2, [r3]
 695 0146 0022     		mov	r2, #0
 696 0148 5A60     		str	r2, [r3, #4]
 697 014a 0022     		mov	r2, #0
 698 014c 9A60     		str	r2, [r3, #8]
 626:.\Generated_Source\PSoC4/BLE_1.c ****             
 627:.\Generated_Source\PSoC4/BLE_1.c ****             apiResult = CyBle_StoreAppData(defaultValuesCCCD, cyBle_flashStorage.attValuesCCCDFlash
 699              		.loc 1 627 0
 700 014e 1B4B     		ldr	r3, .L27+20
 701 0150 1B78     		ldrb	r3, [r3]
 702 0152 1A1C     		mov	r2, r3
 703 0154 131C     		mov	r3, r2
 704 0156 5B00     		lsl	r3, r3, #1
 705 0158 9B18     		add	r3, r3, r2
 706 015a 9B00     		lsl	r3, r3, #2
 707 015c 9E22     		mov	r2, #158
 708 015e 9200     		lsl	r2, r2, #2
 709 0160 9A18     		add	r2, r3, r2
 710 0162 134B     		ldr	r3, .L27+8
 711 0164 D318     		add	r3, r2, r3
 712 0166 5A1C     		add	r2, r3, #1
 713 0168 5623     		mov	r3, #86
 714 016a FC18     		add	r4, r7, r3
 715 016c 4823     		mov	r3, #72
 716 016e F918     		add	r1, r7, r3
 717 0170 FB1D     		add	r3, r7, #7
 718 0172 1B78     		ldrb	r3, [r3]
 719 0174 081C     		mov	r0, r1
 720 0176 111C     		mov	r1, r2
 721 0178 0C22     		mov	r2, #12
 722 017a FFF7FEFF 		bl	CyBle_StoreAppData
 723 017e 031C     		mov	r3, r0
 724 0180 2380     		strh	r3, [r4]
 628:.\Generated_Source\PSoC4/BLE_1.c ****                                     cyBle_pendingFlashClearCccdHandle], CYBLE_GATT_DB_CCCD_COUNT, i
 629:.\Generated_Source\PSoC4/BLE_1.c ****             if(apiResult == CYBLE_ERROR_OK)
 725              		.loc 1 629 0
 726 0182 5623     		mov	r3, #86
 727 0184 FB18     		add	r3, r7, r3
 728 0186 1B88     		ldrh	r3, [r3]
 729 0188 002B     		cmp	r3, #0
 730 018a 06D1     		bne	.L22
 630:.\Generated_Source\PSoC4/BLE_1.c ****             {
ARM GAS  C:\Users\Matthew\AppData\Local\Temp\cc2Cvq26.s 			page 25


 631:.\Generated_Source\PSoC4/BLE_1.c ****                 cyBle_pendingFlashWrite &= (uint8)~CYBLE_PENDING_CCCD_FLASH_CLEAR_BIT;
 731              		.loc 1 631 0
 732 018c 064B     		ldr	r3, .L27
 733 018e 1B78     		ldrb	r3, [r3]
 734 0190 0422     		mov	r2, #4
 735 0192 9343     		bic	r3, r2
 736 0194 DAB2     		uxtb	r2, r3
 737 0196 044B     		ldr	r3, .L27
 738 0198 1A70     		strb	r2, [r3]
 739              	.L22:
 740              	.LBE4:
 632:.\Generated_Source\PSoC4/BLE_1.c ****             }
 633:.\Generated_Source\PSoC4/BLE_1.c ****         }
 634:.\Generated_Source\PSoC4/BLE_1.c ****     }
 635:.\Generated_Source\PSoC4/BLE_1.c **** #endif /* CYBLE_GATT_DB_CCCD_COUNT != 0u */
 636:.\Generated_Source\PSoC4/BLE_1.c ****     return(apiResult);
 741              		.loc 1 636 0
 742 019a 5623     		mov	r3, #86
 743 019c FB18     		add	r3, r7, r3
 744 019e 1B88     		ldrh	r3, [r3]
 637:.\Generated_Source\PSoC4/BLE_1.c **** }
 745              		.loc 1 637 0
 746 01a0 181C     		mov	r0, r3
 747 01a2 BD46     		mov	sp, r7
 748 01a4 17B0     		add	sp, sp, #92
 749              		@ sp needed
 750 01a6 90BD     		pop	{r4, r7, pc}
 751              	.L28:
 752              		.align	2
 753              	.L27:
 754 01a8 00000000 		.word	cyBle_pendingFlashWrite
 755 01ac 00000000 		.word	cyBle_connHandle
 756 01b0 00000000 		.word	cyBle_flashStorage
 757 01b4 00000000 		.word	cyBle_attValuesCCCD
 758 01b8 79020000 		.word	cyBle_flashStorage+633
 759 01bc 01000000 		.word	cyBle_pendingFlashClearCccdHandle
 760              		.cfi_endproc
 761              	.LFE6:
 762              		.size	CyBle_StoreBondingData, .-CyBle_StoreBondingData
 763              		.section	.text.CyBle_GapRemoveBondedDevice,"ax",%progbits
 764              		.align	2
 765              		.global	CyBle_GapRemoveBondedDevice
 766              		.code	16
 767              		.thumb_func
 768              		.type	CyBle_GapRemoveBondedDevice, %function
 769              	CyBle_GapRemoveBondedDevice:
 770              	.LFB7:
 638:.\Generated_Source\PSoC4/BLE_1.c **** 
 639:.\Generated_Source\PSoC4/BLE_1.c **** 
 640:.\Generated_Source\PSoC4/BLE_1.c **** /******************************************************************************
 641:.\Generated_Source\PSoC4/BLE_1.c **** * Function Name: CyBle_GapRemoveBondedDevice
 642:.\Generated_Source\PSoC4/BLE_1.c **** ***************************************************************************//**
 643:.\Generated_Source\PSoC4/BLE_1.c **** * 
 644:.\Generated_Source\PSoC4/BLE_1.c **** *  This function marks the device untrusted. It removes the bonding information
 645:.\Generated_Source\PSoC4/BLE_1.c **** *  of the device including CCCD values. This function removes device from the
 646:.\Generated_Source\PSoC4/BLE_1.c **** *  white list also when autopopulate white list with bonded devices option is
 647:.\Generated_Source\PSoC4/BLE_1.c **** *  enabled.
ARM GAS  C:\Users\Matthew\AppData\Local\Temp\cc2Cvq26.s 			page 26


 648:.\Generated_Source\PSoC4/BLE_1.c **** * 
 649:.\Generated_Source\PSoC4/BLE_1.c **** *  This function is available only when Bonding requirement is selected in
 650:.\Generated_Source\PSoC4/BLE_1.c **** *  Security settings.    
 651:.\Generated_Source\PSoC4/BLE_1.c **** *
 652:.\Generated_Source\PSoC4/BLE_1.c **** *  \param bdAddr: Pointer to peer device address, of type CYBLE_GAP_BD_ADDR_T.
 653:.\Generated_Source\PSoC4/BLE_1.c **** *                 If device address is set to 0, then all devices shall be
 654:.\Generated_Source\PSoC4/BLE_1.c **** *                 removed from trusted list and white list.
 655:.\Generated_Source\PSoC4/BLE_1.c **** *
 656:.\Generated_Source\PSoC4/BLE_1.c **** * \return
 657:.\Generated_Source\PSoC4/BLE_1.c **** *  CYBLE_API_RESULT_T : Return value indicates if the function succeeded or
 658:.\Generated_Source\PSoC4/BLE_1.c **** *  failed. Following are the possible error codes.
 659:.\Generated_Source\PSoC4/BLE_1.c **** *
 660:.\Generated_Source\PSoC4/BLE_1.c **** *   Errors codes                     | Description
 661:.\Generated_Source\PSoC4/BLE_1.c **** *   ---------------------------------| ------------------------------------
 662:.\Generated_Source\PSoC4/BLE_1.c **** *   CYBLE_ERROR_OK                   | On successful operation.
 663:.\Generated_Source\PSoC4/BLE_1.c **** *   CYBLE_ERROR_INVALID_PARAMETER    | On specifying NULL as input parameter for 'bdAddr'.
 664:.\Generated_Source\PSoC4/BLE_1.c **** *   CYBLE_ERROR_INVALID_OPERATION    | Whitelist is already in use or there is pending write to fla
 665:.\Generated_Source\PSoC4/BLE_1.c **** *   CYBLE_ERROR_NO_DEVICE_ENTITY     | Device does not exist in the bond list.
 666:.\Generated_Source\PSoC4/BLE_1.c **** *
 667:.\Generated_Source\PSoC4/BLE_1.c **** *  \globalvars
 668:.\Generated_Source\PSoC4/BLE_1.c **** *   The bdHandle is set in cyBle_pendingFlashWrite variable to indicate that
 669:.\Generated_Source\PSoC4/BLE_1.c **** *   data should be stored to flash by CyBle_StoreBondingData afterwards. 
 670:.\Generated_Source\PSoC4/BLE_1.c **** *     
 671:.\Generated_Source\PSoC4/BLE_1.c **** ******************************************************************************/
 672:.\Generated_Source\PSoC4/BLE_1.c **** CYBLE_API_RESULT_T CyBle_GapRemoveBondedDevice(CYBLE_GAP_BD_ADDR_T* bdAddr)
 673:.\Generated_Source\PSoC4/BLE_1.c **** {
 771              		.loc 1 673 0
 772              		.cfi_startproc
 773 0000 90B5     		push	{r4, r7, lr}
 774              		.cfi_def_cfa_offset 12
 775              		.cfi_offset 4, -12
 776              		.cfi_offset 7, -8
 777              		.cfi_offset 14, -4
 778 0002 87B0     		sub	sp, sp, #28
 779              		.cfi_def_cfa_offset 40
 780 0004 00AF     		add	r7, sp, #0
 781              		.cfi_def_cfa_register 7
 782 0006 7860     		str	r0, [r7, #4]
 674:.\Generated_Source\PSoC4/BLE_1.c ****     CYBLE_API_RESULT_T apiResult = CYBLE_ERROR_OK;
 783              		.loc 1 674 0
 784 0008 1623     		mov	r3, #22
 785 000a FB18     		add	r3, r7, r3
 786 000c 0022     		mov	r2, #0
 787 000e 1A80     		strh	r2, [r3]
 675:.\Generated_Source\PSoC4/BLE_1.c ****     
 676:.\Generated_Source\PSoC4/BLE_1.c ****     if(cyBle_pendingFlashWrite == 0u)
 788              		.loc 1 676 0
 789 0010 334B     		ldr	r3, .L36
 790 0012 1B78     		ldrb	r3, [r3]
 791 0014 002B     		cmp	r3, #0
 792 0016 58D1     		bne	.L30
 793              	.LBB5:
 677:.\Generated_Source\PSoC4/BLE_1.c ****     {
 678:.\Generated_Source\PSoC4/BLE_1.c ****         
 679:.\Generated_Source\PSoC4/BLE_1.c ****     #if(CYBLE_GATT_DB_CCCD_COUNT != 0u)
 680:.\Generated_Source\PSoC4/BLE_1.c ****         /* Request to clear CCCD values which will be done by CyBle_StoreBondingData API */
 681:.\Generated_Source\PSoC4/BLE_1.c ****         uint8 bDevHandle;
ARM GAS  C:\Users\Matthew\AppData\Local\Temp\cc2Cvq26.s 			page 27


 682:.\Generated_Source\PSoC4/BLE_1.c ****         CYBLE_GAP_BD_ADDR_T invalidBdAddr = {{0u,0u,0u,0u,0u,0u}, 0u};
 794              		.loc 1 682 0
 795 0018 0C23     		mov	r3, #12
 796 001a FB18     		add	r3, r7, r3
 797 001c 0022     		mov	r2, #0
 798 001e 1A70     		strb	r2, [r3]
 799 0020 0C23     		mov	r3, #12
 800 0022 FB18     		add	r3, r7, r3
 801 0024 0022     		mov	r2, #0
 802 0026 5A70     		strb	r2, [r3, #1]
 803 0028 0C23     		mov	r3, #12
 804 002a FB18     		add	r3, r7, r3
 805 002c 0022     		mov	r2, #0
 806 002e 9A70     		strb	r2, [r3, #2]
 807 0030 0C23     		mov	r3, #12
 808 0032 FB18     		add	r3, r7, r3
 809 0034 0022     		mov	r2, #0
 810 0036 DA70     		strb	r2, [r3, #3]
 811 0038 0C23     		mov	r3, #12
 812 003a FB18     		add	r3, r7, r3
 813 003c 0022     		mov	r2, #0
 814 003e 1A71     		strb	r2, [r3, #4]
 815 0040 0C23     		mov	r3, #12
 816 0042 FB18     		add	r3, r7, r3
 817 0044 0022     		mov	r2, #0
 818 0046 5A71     		strb	r2, [r3, #5]
 819 0048 0C23     		mov	r3, #12
 820 004a FB18     		add	r3, r7, r3
 821 004c 0022     		mov	r2, #0
 822 004e 9A71     		strb	r2, [r3, #6]
 683:.\Generated_Source\PSoC4/BLE_1.c **** 
 684:.\Generated_Source\PSoC4/BLE_1.c ****         if(memcmp(((uint8 *) &(bdAddr->bdAddr)), ((uint8 *) &(invalidBdAddr.bdAddr)), CYBLE_GAP_BD_
 823              		.loc 1 684 0
 824 0050 7A68     		ldr	r2, [r7, #4]
 825 0052 0C23     		mov	r3, #12
 826 0054 FB18     		add	r3, r7, r3
 827 0056 101C     		mov	r0, r2
 828 0058 191C     		mov	r1, r3
 829 005a 0622     		mov	r2, #6
 830 005c FFF7FEFF 		bl	memcmp
 831 0060 031E     		sub	r3, r0, #0
 832 0062 07D1     		bne	.L31
 685:.\Generated_Source\PSoC4/BLE_1.c **** 	    {
 686:.\Generated_Source\PSoC4/BLE_1.c ****             /* Request to remove all bonded devices by cyBle_StoreBondingData API */
 687:.\Generated_Source\PSoC4/BLE_1.c ****             cyBle_pendingFlashWrite |= CYBLE_PENDING_CCCD_FLASH_CLEAR_ALL_BIT;
 833              		.loc 1 687 0
 834 0064 1E4B     		ldr	r3, .L36
 835 0066 1B78     		ldrb	r3, [r3]
 836 0068 0822     		mov	r2, #8
 837 006a 1343     		orr	r3, r2
 838 006c DAB2     		uxtb	r2, r3
 839 006e 1C4B     		ldr	r3, .L36
 840 0070 1A70     		strb	r2, [r3]
 841 0072 1BE0     		b	.L32
 842              	.L31:
 688:.\Generated_Source\PSoC4/BLE_1.c ****         }
 689:.\Generated_Source\PSoC4/BLE_1.c ****         else
ARM GAS  C:\Users\Matthew\AppData\Local\Temp\cc2Cvq26.s 			page 28


 690:.\Generated_Source\PSoC4/BLE_1.c ****         {
 691:.\Generated_Source\PSoC4/BLE_1.c ****             /* Get the BD handle from Address */
 692:.\Generated_Source\PSoC4/BLE_1.c ****             apiResult = CyBle_GapGetPeerBdHandle(&bDevHandle, bdAddr);
 843              		.loc 1 692 0
 844 0074 1623     		mov	r3, #22
 845 0076 FC18     		add	r4, r7, r3
 846 0078 1523     		mov	r3, #21
 847 007a FA18     		add	r2, r7, r3
 848 007c 7B68     		ldr	r3, [r7, #4]
 849 007e 101C     		mov	r0, r2
 850 0080 191C     		mov	r1, r3
 851 0082 FFF7FEFF 		bl	CyBle_GapGetPeerBdHandle
 852 0086 031C     		mov	r3, r0
 853 0088 2380     		strh	r3, [r4]
 693:.\Generated_Source\PSoC4/BLE_1.c ****             if(apiResult == CYBLE_ERROR_OK)
 854              		.loc 1 693 0
 855 008a 1623     		mov	r3, #22
 856 008c FB18     		add	r3, r7, r3
 857 008e 1B88     		ldrh	r3, [r3]
 858 0090 002B     		cmp	r3, #0
 859 0092 0BD1     		bne	.L32
 694:.\Generated_Source\PSoC4/BLE_1.c ****             {
 695:.\Generated_Source\PSoC4/BLE_1.c ****                 /* Store BD handle to clear cccd values by CyBle_StoreBondingData API */
 696:.\Generated_Source\PSoC4/BLE_1.c ****                 cyBle_pendingFlashWrite |= CYBLE_PENDING_CCCD_FLASH_CLEAR_BIT;
 860              		.loc 1 696 0
 861 0094 124B     		ldr	r3, .L36
 862 0096 1B78     		ldrb	r3, [r3]
 863 0098 0422     		mov	r2, #4
 864 009a 1343     		orr	r3, r2
 865 009c DAB2     		uxtb	r2, r3
 866 009e 104B     		ldr	r3, .L36
 867 00a0 1A70     		strb	r2, [r3]
 697:.\Generated_Source\PSoC4/BLE_1.c ****                 cyBle_pendingFlashClearCccdHandle = bDevHandle;
 868              		.loc 1 697 0
 869 00a2 1523     		mov	r3, #21
 870 00a4 FB18     		add	r3, r7, r3
 871 00a6 1A78     		ldrb	r2, [r3]
 872 00a8 0E4B     		ldr	r3, .L36+4
 873 00aa 1A70     		strb	r2, [r3]
 874              	.L32:
 698:.\Generated_Source\PSoC4/BLE_1.c ****             }
 699:.\Generated_Source\PSoC4/BLE_1.c ****         }
 700:.\Generated_Source\PSoC4/BLE_1.c ****         if(apiResult == CYBLE_ERROR_OK)
 875              		.loc 1 700 0
 876 00ac 1623     		mov	r3, #22
 877 00ae FB18     		add	r3, r7, r3
 878 00b0 1B88     		ldrh	r3, [r3]
 879 00b2 002B     		cmp	r3, #0
 880 00b4 08D1     		bne	.L33
 701:.\Generated_Source\PSoC4/BLE_1.c ****         {
 702:.\Generated_Source\PSoC4/BLE_1.c ****             #if(CYBLE_AUTO_POPULATE_WHITELIST != 0u)
 703:.\Generated_Source\PSoC4/BLE_1.c ****                 apiResult = CyBle_GapRemoveDeviceFromWhiteList(bdAddr);
 881              		.loc 1 703 0
 882 00b6 1623     		mov	r3, #22
 883 00b8 FC18     		add	r4, r7, r3
 884 00ba 7B68     		ldr	r3, [r7, #4]
 885 00bc 181C     		mov	r0, r3
ARM GAS  C:\Users\Matthew\AppData\Local\Temp\cc2Cvq26.s 			page 29


 886 00be FFF7FEFF 		bl	CyBle_GapRemoveDeviceFromWhiteList
 887 00c2 031C     		mov	r3, r0
 888 00c4 2380     		strh	r3, [r4]
 889              	.LBE5:
 890 00c6 04E0     		b	.L34
 891              	.L33:
 892 00c8 03E0     		b	.L34
 893              	.L30:
 704:.\Generated_Source\PSoC4/BLE_1.c ****             #else
 705:.\Generated_Source\PSoC4/BLE_1.c ****                 apiResult = CyBle_GapRemDeviceFromBondList(bdAddr);
 706:.\Generated_Source\PSoC4/BLE_1.c ****             #endif
 707:.\Generated_Source\PSoC4/BLE_1.c ****         }
 708:.\Generated_Source\PSoC4/BLE_1.c ****     #endif /* CYBLE_GATT_DB_CCCD_COUNT != 0u */
 709:.\Generated_Source\PSoC4/BLE_1.c ****     }
 710:.\Generated_Source\PSoC4/BLE_1.c ****     else
 711:.\Generated_Source\PSoC4/BLE_1.c ****     {
 712:.\Generated_Source\PSoC4/BLE_1.c ****         apiResult = CYBLE_ERROR_INVALID_OPERATION;
 894              		.loc 1 712 0
 895 00ca 1623     		mov	r3, #22
 896 00cc FB18     		add	r3, r7, r3
 897 00ce 0222     		mov	r2, #2
 898 00d0 1A80     		strh	r2, [r3]
 899              	.L34:
 713:.\Generated_Source\PSoC4/BLE_1.c ****     }
 714:.\Generated_Source\PSoC4/BLE_1.c ****     
 715:.\Generated_Source\PSoC4/BLE_1.c ****     return(apiResult);
 900              		.loc 1 715 0
 901 00d2 1623     		mov	r3, #22
 902 00d4 FB18     		add	r3, r7, r3
 903 00d6 1B88     		ldrh	r3, [r3]
 716:.\Generated_Source\PSoC4/BLE_1.c **** }
 904              		.loc 1 716 0
 905 00d8 181C     		mov	r0, r3
 906 00da BD46     		mov	sp, r7
 907 00dc 07B0     		add	sp, sp, #28
 908              		@ sp needed
 909 00de 90BD     		pop	{r4, r7, pc}
 910              	.L37:
 911              		.align	2
 912              	.L36:
 913 00e0 00000000 		.word	cyBle_pendingFlashWrite
 914 00e4 01000000 		.word	cyBle_pendingFlashClearCccdHandle
 915              		.cfi_endproc
 916              	.LFE7:
 917              		.size	CyBle_GapRemoveBondedDevice, .-CyBle_GapRemoveBondedDevice
 918              		.section	.text.CyBle_GappStartAdvertisement,"ax",%progbits
 919              		.align	2
 920              		.global	CyBle_GappStartAdvertisement
 921              		.code	16
 922              		.thumb_func
 923              		.type	CyBle_GappStartAdvertisement, %function
 924              	CyBle_GappStartAdvertisement:
 925              	.LFB8:
 717:.\Generated_Source\PSoC4/BLE_1.c **** 
 718:.\Generated_Source\PSoC4/BLE_1.c **** 
 719:.\Generated_Source\PSoC4/BLE_1.c **** #endif /* (CYBLE_GAP_ROLE_PERIPHERAL || CYBLE_GAP_ROLE_CENTRAL) && (CYBLE_BONDING_REQUIREMENT == CY
 720:.\Generated_Source\PSoC4/BLE_1.c **** 
ARM GAS  C:\Users\Matthew\AppData\Local\Temp\cc2Cvq26.s 			page 30


 721:.\Generated_Source\PSoC4/BLE_1.c **** 
 722:.\Generated_Source\PSoC4/BLE_1.c **** #if(CYBLE_GAP_ROLE_PERIPHERAL || CYBLE_GAP_ROLE_BROADCASTER)
 723:.\Generated_Source\PSoC4/BLE_1.c **** 
 724:.\Generated_Source\PSoC4/BLE_1.c ****     /******************************************************************************
 725:.\Generated_Source\PSoC4/BLE_1.c ****     *  Function Name: CyBle_GappStartAdvertisement
 726:.\Generated_Source\PSoC4/BLE_1.c ****     ***************************************************************************//**
 727:.\Generated_Source\PSoC4/BLE_1.c ****     *     
 728:.\Generated_Source\PSoC4/BLE_1.c ****     *  This function is used to start the advertisement using the advertisement data 
 729:.\Generated_Source\PSoC4/BLE_1.c ****     *  set in the component customizer's GUI. After invoking this API, the device 
 730:.\Generated_Source\PSoC4/BLE_1.c ****     *  will be available for connection by the devices configured for GAP central 
 731:.\Generated_Source\PSoC4/BLE_1.c ****     *  role. It is only included if the device is configured for GAP Peripheral or 
 732:.\Generated_Source\PSoC4/BLE_1.c ****     *  GAP Peripheral + Central role.
 733:.\Generated_Source\PSoC4/BLE_1.c ****     *  
 734:.\Generated_Source\PSoC4/BLE_1.c ****     *  On start of advertisement, GAP Peripheral receives the
 735:.\Generated_Source\PSoC4/BLE_1.c ****     *  CYBLE_EVT_GAPP_ADVERTISEMENT_START_STOP event. The following events are 
 736:.\Generated_Source\PSoC4/BLE_1.c ****     *  possible on invoking this function:
 737:.\Generated_Source\PSoC4/BLE_1.c ****     *  
 738:.\Generated_Source\PSoC4/BLE_1.c ****     *  * CYBLE_EVT_GAP_DEVICE_CONNECTED - If the device connects to a GAP Central and 
 739:.\Generated_Source\PSoC4/BLE_1.c ****     *    Link Layer Privacy is disabled in component customizer.
 740:.\Generated_Source\PSoC4/BLE_1.c ****     *  * CYBLE_EVT_GAP_ENHANCE_CONN_COMPLETE - If the device connects to a GAP Central and 
 741:.\Generated_Source\PSoC4/BLE_1.c ****     *    Link Layer Privacy is enabled in component customizer.
 742:.\Generated_Source\PSoC4/BLE_1.c ****     *  * CYBLE_EVT_TIMEOUT: If no device in GAP Central mode connects to this 
 743:.\Generated_Source\PSoC4/BLE_1.c ****     *                       device within the specified timeout limit. Stack 
 744:.\Generated_Source\PSoC4/BLE_1.c ****     *                       automatically initiate stop advertising when Slow 
 745:.\Generated_Source\PSoC4/BLE_1.c ****     *                       advertising was initiated, or starts Slow advertising
 746:.\Generated_Source\PSoC4/BLE_1.c ****     *                       after Fast advertising timeout occur.
 747:.\Generated_Source\PSoC4/BLE_1.c ****     *  * CYBLE_EVT_GAPP_ADVERTISEMENT_START_STOP: If device started or stopped
 748:.\Generated_Source\PSoC4/BLE_1.c ****     *                                               advertising. Use CyBle_GetState()
 749:.\Generated_Source\PSoC4/BLE_1.c ****     *                                               to determine the state. Sequential 
 750:.\Generated_Source\PSoC4/BLE_1.c ****     *                                               advertising could be started when
 751:.\Generated_Source\PSoC4/BLE_1.c ****     *                                               CYBLE_STATE_DISCONNECTED state is
 752:.\Generated_Source\PSoC4/BLE_1.c ****     *                                               returned.
 753:.\Generated_Source\PSoC4/BLE_1.c ****     * 
 754:.\Generated_Source\PSoC4/BLE_1.c ****     *  \param advertisingIntervalType: Fast or slow advertising interval with timings
 755:.\Generated_Source\PSoC4/BLE_1.c ****     *                                 entered in Advertising settings section of the
 756:.\Generated_Source\PSoC4/BLE_1.c ****     *                                 customizer.
 757:.\Generated_Source\PSoC4/BLE_1.c ****     *  * CYBLE_ADVERTISING_FAST   0x00u
 758:.\Generated_Source\PSoC4/BLE_1.c ****     *  * CYBLE_ADVERTISING_SLOW   0x01u
 759:.\Generated_Source\PSoC4/BLE_1.c ****     *  * CYBLE_ADVERTISING_CUSTOM 0x02u
 760:.\Generated_Source\PSoC4/BLE_1.c ****     * 
 761:.\Generated_Source\PSoC4/BLE_1.c ****     * \return
 762:.\Generated_Source\PSoC4/BLE_1.c ****     *  CYBLE_API_RESULT_T : Return value indicates if the function succeeded or
 763:.\Generated_Source\PSoC4/BLE_1.c ****     *  failed. Following are the possible error codes.
 764:.\Generated_Source\PSoC4/BLE_1.c ****     * 
 765:.\Generated_Source\PSoC4/BLE_1.c ****     *   Errors codes                      |  Description
 766:.\Generated_Source\PSoC4/BLE_1.c ****     *   --------------------------------- |  --------------------------------
 767:.\Generated_Source\PSoC4/BLE_1.c ****     *   CYBLE_ERROR_OK                    |  On successful operation.
 768:.\Generated_Source\PSoC4/BLE_1.c ****     *   CYBLE_ERROR_INVALID_PARAMETER     |  On passing an invalid parameter.
 769:.\Generated_Source\PSoC4/BLE_1.c ****     *   CYBLE_ERROR_INVALID_STATE         |  On calling this API not in Disconnected state.
 770:.\Generated_Source\PSoC4/BLE_1.c ****     *
 771:.\Generated_Source\PSoC4/BLE_1.c ****     * 
 772:.\Generated_Source\PSoC4/BLE_1.c ****     *******************************************************************************/
 773:.\Generated_Source\PSoC4/BLE_1.c ****     CYBLE_API_RESULT_T CyBle_GappStartAdvertisement(uint8 advertisingIntervalType)
 774:.\Generated_Source\PSoC4/BLE_1.c ****     {
 926              		.loc 1 774 0
 927              		.cfi_startproc
 928 0000 90B5     		push	{r4, r7, lr}
ARM GAS  C:\Users\Matthew\AppData\Local\Temp\cc2Cvq26.s 			page 31


 929              		.cfi_def_cfa_offset 12
 930              		.cfi_offset 4, -12
 931              		.cfi_offset 7, -8
 932              		.cfi_offset 14, -4
 933 0002 85B0     		sub	sp, sp, #20
 934              		.cfi_def_cfa_offset 32
 935 0004 00AF     		add	r7, sp, #0
 936              		.cfi_def_cfa_register 7
 937 0006 021C     		mov	r2, r0
 938 0008 FB1D     		add	r3, r7, #7
 939 000a 1A70     		strb	r2, [r3]
 775:.\Generated_Source\PSoC4/BLE_1.c ****         CYBLE_API_RESULT_T apiResult;
 776:.\Generated_Source\PSoC4/BLE_1.c ****         
 777:.\Generated_Source\PSoC4/BLE_1.c ****         if(advertisingIntervalType > CYBLE_ADVERTISING_CUSTOM)
 940              		.loc 1 777 0
 941 000c FB1D     		add	r3, r7, #7
 942 000e 1B78     		ldrb	r3, [r3]
 943 0010 022B     		cmp	r3, #2
 944 0012 04D9     		bls	.L39
 778:.\Generated_Source\PSoC4/BLE_1.c ****         {
 779:.\Generated_Source\PSoC4/BLE_1.c ****             apiResult = CYBLE_ERROR_INVALID_PARAMETER;
 945              		.loc 1 779 0
 946 0014 0E23     		mov	r3, #14
 947 0016 FB18     		add	r3, r7, r3
 948 0018 0122     		mov	r2, #1
 949 001a 1A80     		strh	r2, [r3]
 950 001c 4BE0     		b	.L40
 951              	.L39:
 780:.\Generated_Source\PSoC4/BLE_1.c ****         }
 781:.\Generated_Source\PSoC4/BLE_1.c ****         else if((CYBLE_STATE_DISCONNECTED == CyBle_GetState()) && ((cyBle_eventHandlerFlag & CYBLE_
 952              		.loc 1 781 0
 953 001e 294B     		ldr	r3, .L46
 954 0020 1B78     		ldrb	r3, [r3]
 955 0022 042B     		cmp	r3, #4
 956 0024 42D1     		bne	.L41
 957              		.loc 1 781 0 is_stmt 0 discriminator 1
 958 0026 284B     		ldr	r3, .L46+4
 959 0028 1B78     		ldrb	r3, [r3]
 960 002a DBB2     		uxtb	r3, r3
 961 002c 1A1C     		mov	r2, r3
 962 002e 0423     		mov	r3, #4
 963 0030 1340     		and	r3, r2
 964 0032 3BD1     		bne	.L41
 782:.\Generated_Source\PSoC4/BLE_1.c ****         {   
 783:.\Generated_Source\PSoC4/BLE_1.c ****             if(advertisingIntervalType == CYBLE_ADVERTISING_FAST)
 965              		.loc 1 783 0 is_stmt 1
 966 0034 FB1D     		add	r3, r7, #7
 967 0036 1B78     		ldrb	r3, [r3]
 968 0038 002B     		cmp	r3, #0
 969 003a 0BD1     		bne	.L42
 784:.\Generated_Source\PSoC4/BLE_1.c ****             {
 785:.\Generated_Source\PSoC4/BLE_1.c ****                 cyBle_discoveryModeInfo.advTo = CYBLE_FAST_ADV_TIMEOUT;
 970              		.loc 1 785 0
 971 003c 234B     		ldr	r3, .L46+8
 972 003e 1E22     		mov	r2, #30
 973 0040 1A82     		strh	r2, [r3, #16]
 786:.\Generated_Source\PSoC4/BLE_1.c ****                 cyBle_discoveryModeInfo.advParam->advIntvMin = CYBLE_FAST_ADV_INT_MIN;
ARM GAS  C:\Users\Matthew\AppData\Local\Temp\cc2Cvq26.s 			page 32


 974              		.loc 1 786 0
 975 0042 224B     		ldr	r3, .L46+8
 976 0044 5B68     		ldr	r3, [r3, #4]
 977 0046 2022     		mov	r2, #32
 978 0048 1A80     		strh	r2, [r3]
 787:.\Generated_Source\PSoC4/BLE_1.c ****                 cyBle_discoveryModeInfo.advParam->advIntvMax = CYBLE_FAST_ADV_INT_MAX;
 979              		.loc 1 787 0
 980 004a 204B     		ldr	r3, .L46+8
 981 004c 5B68     		ldr	r3, [r3, #4]
 982 004e 3022     		mov	r2, #48
 983 0050 5A80     		strh	r2, [r3, #2]
 984 0052 10E0     		b	.L43
 985              	.L42:
 788:.\Generated_Source\PSoC4/BLE_1.c ****             }
 789:.\Generated_Source\PSoC4/BLE_1.c ****             else if(advertisingIntervalType == CYBLE_ADVERTISING_SLOW)
 986              		.loc 1 789 0
 987 0054 FB1D     		add	r3, r7, #7
 988 0056 1B78     		ldrb	r3, [r3]
 989 0058 012B     		cmp	r3, #1
 990 005a 0CD1     		bne	.L43
 790:.\Generated_Source\PSoC4/BLE_1.c ****             {
 791:.\Generated_Source\PSoC4/BLE_1.c ****                 cyBle_discoveryModeInfo.advTo = CYBLE_SLOW_ADV_TIMEOUT;
 991              		.loc 1 791 0
 992 005c 1B4B     		ldr	r3, .L46+8
 993 005e 9622     		mov	r2, #150
 994 0060 1A82     		strh	r2, [r3, #16]
 792:.\Generated_Source\PSoC4/BLE_1.c ****                 cyBle_discoveryModeInfo.advParam->advIntvMin = CYBLE_SLOW_ADV_INT_MIN;
 995              		.loc 1 792 0
 996 0062 1A4B     		ldr	r3, .L46+8
 997 0064 5B68     		ldr	r3, [r3, #4]
 998 0066 C822     		mov	r2, #200
 999 0068 D200     		lsl	r2, r2, #3
 1000 006a 1A80     		strh	r2, [r3]
 793:.\Generated_Source\PSoC4/BLE_1.c ****                 cyBle_discoveryModeInfo.advParam->advIntvMax = CYBLE_SLOW_ADV_INT_MAX;
 1001              		.loc 1 793 0
 1002 006c 174B     		ldr	r3, .L46+8
 1003 006e 5B68     		ldr	r3, [r3, #4]
 1004 0070 8022     		mov	r2, #128
 1005 0072 D201     		lsl	r2, r2, #7
 1006 0074 5A80     		strh	r2, [r3, #2]
 1007              	.L43:
 794:.\Generated_Source\PSoC4/BLE_1.c ****             }       
 795:.\Generated_Source\PSoC4/BLE_1.c ****             else /* Do not update advertising intervals */
 796:.\Generated_Source\PSoC4/BLE_1.c ****             {
 797:.\Generated_Source\PSoC4/BLE_1.c ****             }
 798:.\Generated_Source\PSoC4/BLE_1.c ****             cyBle_advertisingIntervalType = advertisingIntervalType;
 1008              		.loc 1 798 0
 1009 0076 164B     		ldr	r3, .L46+12
 1010 0078 FA1D     		add	r2, r7, #7
 1011 007a 1278     		ldrb	r2, [r2]
 1012 007c 1A70     		strb	r2, [r3]
 799:.\Generated_Source\PSoC4/BLE_1.c ****             apiResult = CyBle_GappEnterDiscoveryMode(&cyBle_discoveryModeInfo);
 1013              		.loc 1 799 0
 1014 007e 0E23     		mov	r3, #14
 1015 0080 FC18     		add	r4, r7, r3
 1016 0082 124B     		ldr	r3, .L46+8
 1017 0084 181C     		mov	r0, r3
ARM GAS  C:\Users\Matthew\AppData\Local\Temp\cc2Cvq26.s 			page 33


 1018 0086 FFF7FEFF 		bl	CyBle_GappEnterDiscoveryMode
 1019 008a 031C     		mov	r3, r0
 1020 008c 2380     		strh	r3, [r4]
 800:.\Generated_Source\PSoC4/BLE_1.c ****         
 801:.\Generated_Source\PSoC4/BLE_1.c ****             if(CYBLE_ERROR_OK == apiResult)
 1021              		.loc 1 801 0
 1022 008e 0E23     		mov	r3, #14
 1023 0090 FB18     		add	r3, r7, r3
 1024 0092 1B88     		ldrh	r3, [r3]
 1025 0094 002B     		cmp	r3, #0
 1026 0096 08D1     		bne	.L44
 802:.\Generated_Source\PSoC4/BLE_1.c ****             {
 803:.\Generated_Source\PSoC4/BLE_1.c ****                 cyBle_eventHandlerFlag |= CYBLE_START_FLAG;
 1027              		.loc 1 803 0
 1028 0098 0B4B     		ldr	r3, .L46+4
 1029 009a 1B78     		ldrb	r3, [r3]
 1030 009c DBB2     		uxtb	r3, r3
 1031 009e 0422     		mov	r2, #4
 1032 00a0 1343     		orr	r3, r2
 1033 00a2 DAB2     		uxtb	r2, r3
 1034 00a4 084B     		ldr	r3, .L46+4
 1035 00a6 1A70     		strb	r2, [r3]
 801:.\Generated_Source\PSoC4/BLE_1.c ****             {
 1036              		.loc 1 801 0
 1037 00a8 05E0     		b	.L40
 1038              	.L44:
 1039 00aa 04E0     		b	.L40
 1040              	.L41:
 804:.\Generated_Source\PSoC4/BLE_1.c ****             }
 805:.\Generated_Source\PSoC4/BLE_1.c ****         }
 806:.\Generated_Source\PSoC4/BLE_1.c ****         else
 807:.\Generated_Source\PSoC4/BLE_1.c ****         {
 808:.\Generated_Source\PSoC4/BLE_1.c ****             apiResult = CYBLE_ERROR_INVALID_STATE;
 1041              		.loc 1 808 0
 1042 00ac 0E23     		mov	r3, #14
 1043 00ae FB18     		add	r3, r7, r3
 1044 00b0 0422     		mov	r2, #4
 1045 00b2 FF32     		add	r2, r2, #255
 1046 00b4 1A80     		strh	r2, [r3]
 1047              	.L40:
 809:.\Generated_Source\PSoC4/BLE_1.c ****         }
 810:.\Generated_Source\PSoC4/BLE_1.c **** 
 811:.\Generated_Source\PSoC4/BLE_1.c ****         return (apiResult);
 1048              		.loc 1 811 0
 1049 00b6 0E23     		mov	r3, #14
 1050 00b8 FB18     		add	r3, r7, r3
 1051 00ba 1B88     		ldrh	r3, [r3]
 812:.\Generated_Source\PSoC4/BLE_1.c ****     }
 1052              		.loc 1 812 0
 1053 00bc 181C     		mov	r0, r3
 1054 00be BD46     		mov	sp, r7
 1055 00c0 05B0     		add	sp, sp, #20
 1056              		@ sp needed
 1057 00c2 90BD     		pop	{r4, r7, pc}
 1058              	.L47:
 1059              		.align	2
 1060              	.L46:
ARM GAS  C:\Users\Matthew\AppData\Local\Temp\cc2Cvq26.s 			page 34


 1061 00c4 00000000 		.word	cyBle_state
 1062 00c8 00000000 		.word	cyBle_eventHandlerFlag
 1063 00cc 00000000 		.word	cyBle_discoveryModeInfo
 1064 00d0 00000000 		.word	cyBle_advertisingIntervalType
 1065              		.cfi_endproc
 1066              	.LFE8:
 1067              		.size	CyBle_GappStartAdvertisement, .-CyBle_GappStartAdvertisement
 1068              		.section	.text.CyBle_GappStopAdvertisement,"ax",%progbits
 1069              		.align	2
 1070              		.global	CyBle_GappStopAdvertisement
 1071              		.code	16
 1072              		.thumb_func
 1073              		.type	CyBle_GappStopAdvertisement, %function
 1074              	CyBle_GappStopAdvertisement:
 1075              	.LFB9:
 813:.\Generated_Source\PSoC4/BLE_1.c **** 
 814:.\Generated_Source\PSoC4/BLE_1.c ****     
 815:.\Generated_Source\PSoC4/BLE_1.c ****     /******************************************************************************
 816:.\Generated_Source\PSoC4/BLE_1.c ****     * Function Name: CyBle_GappStopAdvertisement
 817:.\Generated_Source\PSoC4/BLE_1.c ****     ***************************************************************************//**
 818:.\Generated_Source\PSoC4/BLE_1.c ****     * 
 819:.\Generated_Source\PSoC4/BLE_1.c ****     *   This function can be used to exit from discovery mode. After the execution 
 820:.\Generated_Source\PSoC4/BLE_1.c ****     *   of this function, there will no longer be any advertisements. On stopping 
 821:.\Generated_Source\PSoC4/BLE_1.c ****     *   advertising, GAP Peripheral receives CYBLE_EVT_GAPP_ADVERTISEMENT_START_STOP
 822:.\Generated_Source\PSoC4/BLE_1.c ****     *   event. It is expected that the application layer tracks the function call 
 823:.\Generated_Source\PSoC4/BLE_1.c ****     *   performed before occurrence of this event as this event can occur on making 
 824:.\Generated_Source\PSoC4/BLE_1.c ****     *   a call to Cy_BleGappStartAdvertisement(), CyBle_GappEnterDiscoveryMode(), 
 825:.\Generated_Source\PSoC4/BLE_1.c ****     *   or CyBle_GappStartAdvertisement() functions as well.
 826:.\Generated_Source\PSoC4/BLE_1.c ****     *   
 827:.\Generated_Source\PSoC4/BLE_1.c ****     *   The following event occurs on invoking this function:
 828:.\Generated_Source\PSoC4/BLE_1.c ****     *   * CYBLE_EVT_GAPP_ADVERTISEMENT_START_STOP
 829:.\Generated_Source\PSoC4/BLE_1.c ****     * 
 830:.\Generated_Source\PSoC4/BLE_1.c ****     *  \return
 831:.\Generated_Source\PSoC4/BLE_1.c ****     *   None
 832:.\Generated_Source\PSoC4/BLE_1.c ****     * 
 833:.\Generated_Source\PSoC4/BLE_1.c ****     *******************************************************************************/
 834:.\Generated_Source\PSoC4/BLE_1.c ****     void CyBle_GappStopAdvertisement(void)
 835:.\Generated_Source\PSoC4/BLE_1.c ****     {
 1076              		.loc 1 835 0
 1077              		.cfi_startproc
 1078 0000 80B5     		push	{r7, lr}
 1079              		.cfi_def_cfa_offset 8
 1080              		.cfi_offset 7, -8
 1081              		.cfi_offset 14, -4
 1082 0002 00AF     		add	r7, sp, #0
 1083              		.cfi_def_cfa_register 7
 836:.\Generated_Source\PSoC4/BLE_1.c ****         CyBle_GappExitDiscoveryMode();
 1084              		.loc 1 836 0
 1085 0004 FFF7FEFF 		bl	CyBle_GappExitDiscoveryMode
 837:.\Generated_Source\PSoC4/BLE_1.c ****         cyBle_eventHandlerFlag |= CYBLE_STOP_FLAG;
 1086              		.loc 1 837 0
 1087 0008 044B     		ldr	r3, .L49
 1088 000a 1B78     		ldrb	r3, [r3]
 1089 000c DBB2     		uxtb	r3, r3
 1090 000e 0822     		mov	r2, #8
 1091 0010 1343     		orr	r3, r2
 1092 0012 DAB2     		uxtb	r2, r3
ARM GAS  C:\Users\Matthew\AppData\Local\Temp\cc2Cvq26.s 			page 35


 1093 0014 014B     		ldr	r3, .L49
 1094 0016 1A70     		strb	r2, [r3]
 838:.\Generated_Source\PSoC4/BLE_1.c ****     }
 1095              		.loc 1 838 0
 1096 0018 BD46     		mov	sp, r7
 1097              		@ sp needed
 1098 001a 80BD     		pop	{r7, pc}
 1099              	.L50:
 1100              		.align	2
 1101              	.L49:
 1102 001c 00000000 		.word	cyBle_eventHandlerFlag
 1103              		.cfi_endproc
 1104              	.LFE9:
 1105              		.size	CyBle_GappStopAdvertisement, .-CyBle_GappStopAdvertisement
 1106              		.section	.text.CyBle_ChangeAdDeviceAddress,"ax",%progbits
 1107              		.align	2
 1108              		.global	CyBle_ChangeAdDeviceAddress
 1109              		.code	16
 1110              		.thumb_func
 1111              		.type	CyBle_ChangeAdDeviceAddress, %function
 1112              	CyBle_ChangeAdDeviceAddress:
 1113              	.LFB10:
 839:.\Generated_Source\PSoC4/BLE_1.c ****     
 840:.\Generated_Source\PSoC4/BLE_1.c ****     
 841:.\Generated_Source\PSoC4/BLE_1.c ****     /******************************************************************************
 842:.\Generated_Source\PSoC4/BLE_1.c ****     * Function Name: CyBle_ChangeAdDeviceAddress
 843:.\Generated_Source\PSoC4/BLE_1.c ****     ***************************************************************************//**
 844:.\Generated_Source\PSoC4/BLE_1.c ****     * 
 845:.\Generated_Source\PSoC4/BLE_1.c ****     *  This API is used to set the Bluetooth device address into the advertisement 
 846:.\Generated_Source\PSoC4/BLE_1.c ****     *  or scan response data structure.
 847:.\Generated_Source\PSoC4/BLE_1.c ****     * 
 848:.\Generated_Source\PSoC4/BLE_1.c ****     *  \param bdAddr: Bluetooth Device address. The variable is of type CYBLE_GAP_BD_ADDR_T
 849:.\Generated_Source\PSoC4/BLE_1.c ****     *  \param dest: 0 - selects advertisement structure, not zero value selects scan 
 850:.\Generated_Source\PSoC4/BLE_1.c ****     *               response structure.
 851:.\Generated_Source\PSoC4/BLE_1.c ****     * 
 852:.\Generated_Source\PSoC4/BLE_1.c ****     * \return
 853:.\Generated_Source\PSoC4/BLE_1.c ****     *  None
 854:.\Generated_Source\PSoC4/BLE_1.c ****     *  
 855:.\Generated_Source\PSoC4/BLE_1.c ****     *******************************************************************************/
 856:.\Generated_Source\PSoC4/BLE_1.c ****     void CyBle_ChangeAdDeviceAddress(const CYBLE_GAP_BD_ADDR_T* bdAddr, uint8 dest)
 857:.\Generated_Source\PSoC4/BLE_1.c ****     {
 1114              		.loc 1 857 0
 1115              		.cfi_startproc
 1116 0000 80B5     		push	{r7, lr}
 1117              		.cfi_def_cfa_offset 8
 1118              		.cfi_offset 7, -8
 1119              		.cfi_offset 14, -4
 1120 0002 84B0     		sub	sp, sp, #16
 1121              		.cfi_def_cfa_offset 24
 1122 0004 00AF     		add	r7, sp, #0
 1123              		.cfi_def_cfa_register 7
 1124 0006 7860     		str	r0, [r7, #4]
 1125 0008 0A1C     		mov	r2, r1
 1126 000a FB1C     		add	r3, r7, #3
 1127 000c 1A70     		strb	r2, [r3]
 858:.\Generated_Source\PSoC4/BLE_1.c ****         uint8 i;
 859:.\Generated_Source\PSoC4/BLE_1.c ****         uint8 *destBuffer = NULL;
ARM GAS  C:\Users\Matthew\AppData\Local\Temp\cc2Cvq26.s 			page 36


 1128              		.loc 1 859 0
 1129 000e 0023     		mov	r3, #0
 1130 0010 BB60     		str	r3, [r7, #8]
 860:.\Generated_Source\PSoC4/BLE_1.c ****         
 861:.\Generated_Source\PSoC4/BLE_1.c ****         if(dest == 0u)      /* Destination - advertising structure */
 862:.\Generated_Source\PSoC4/BLE_1.c ****         {
 863:.\Generated_Source\PSoC4/BLE_1.c ****             #ifdef CYBLE_ADV_PKT_INDEX_BLUETOOTH_DEVICE_ADDRESS
 864:.\Generated_Source\PSoC4/BLE_1.c ****                 destBuffer = &cyBle_discoveryData.advData[CYBLE_ADV_PKT_INDEX_BLUETOOTH_DEVICE_ADDR
 865:.\Generated_Source\PSoC4/BLE_1.c ****             #endif /* CYBLE_ADV_PKT_INDEX_BLUETOOTH_DEVICE_ADDRESS */
 866:.\Generated_Source\PSoC4/BLE_1.c ****         }
 867:.\Generated_Source\PSoC4/BLE_1.c ****         else                /* Destination - scan response structure */
 868:.\Generated_Source\PSoC4/BLE_1.c ****         {
 869:.\Generated_Source\PSoC4/BLE_1.c ****             #ifdef CYBLE_SCN_PKT_INDEX_BLUETOOTH_DEVICE_ADDRESS
 870:.\Generated_Source\PSoC4/BLE_1.c ****                 destBuffer = &cyBle_scanRspData.scanRspData[CYBLE_SCN_PKT_INDEX_BLUETOOTH_DEVICE_AD
 871:.\Generated_Source\PSoC4/BLE_1.c ****             #endif /* CYBLE_SCN_PKT_INDEX_BLUETOOTH_DEVICE_ADDRESS */    
 872:.\Generated_Source\PSoC4/BLE_1.c ****         }
 873:.\Generated_Source\PSoC4/BLE_1.c ****         
 874:.\Generated_Source\PSoC4/BLE_1.c ****         if(destBuffer != NULL)
 1131              		.loc 1 874 0
 1132 0012 BB68     		ldr	r3, [r7, #8]
 1133 0014 002B     		cmp	r3, #0
 1134 0016 20D0     		beq	.L51
 875:.\Generated_Source\PSoC4/BLE_1.c ****         {
 876:.\Generated_Source\PSoC4/BLE_1.c ****             /* Update Device Address type */
 877:.\Generated_Source\PSoC4/BLE_1.c ****             destBuffer[0u] = bdAddr->type;
 1135              		.loc 1 877 0
 1136 0018 7B68     		ldr	r3, [r7, #4]
 1137 001a 9A79     		ldrb	r2, [r3, #6]
 1138 001c BB68     		ldr	r3, [r7, #8]
 1139 001e 1A70     		strb	r2, [r3]
 878:.\Generated_Source\PSoC4/BLE_1.c ****             
 879:.\Generated_Source\PSoC4/BLE_1.c ****             for(i = 0u; i < CYBLE_GAP_BD_ADDR_SIZE; i++)
 1140              		.loc 1 879 0
 1141 0020 0F23     		mov	r3, #15
 1142 0022 FB18     		add	r3, r7, r3
 1143 0024 0022     		mov	r2, #0
 1144 0026 1A70     		strb	r2, [r3]
 1145 0028 12E0     		b	.L53
 1146              	.L54:
 880:.\Generated_Source\PSoC4/BLE_1.c ****             {
 881:.\Generated_Source\PSoC4/BLE_1.c ****                 destBuffer[i + 1u] = bdAddr->bdAddr[i];
 1147              		.loc 1 881 0 discriminator 3
 1148 002a 0F23     		mov	r3, #15
 1149 002c FB18     		add	r3, r7, r3
 1150 002e 1B78     		ldrb	r3, [r3]
 1151 0030 0133     		add	r3, r3, #1
 1152 0032 BA68     		ldr	r2, [r7, #8]
 1153 0034 D318     		add	r3, r2, r3
 1154 0036 0F22     		mov	r2, #15
 1155 0038 BA18     		add	r2, r7, r2
 1156 003a 1278     		ldrb	r2, [r2]
 1157 003c 7968     		ldr	r1, [r7, #4]
 1158 003e 8A5C     		ldrb	r2, [r1, r2]
 1159 0040 1A70     		strb	r2, [r3]
 879:.\Generated_Source\PSoC4/BLE_1.c ****             {
 1160              		.loc 1 879 0 discriminator 3
 1161 0042 0F23     		mov	r3, #15
ARM GAS  C:\Users\Matthew\AppData\Local\Temp\cc2Cvq26.s 			page 37


 1162 0044 FB18     		add	r3, r7, r3
 1163 0046 1A78     		ldrb	r2, [r3]
 1164 0048 0F23     		mov	r3, #15
 1165 004a FB18     		add	r3, r7, r3
 1166 004c 0132     		add	r2, r2, #1
 1167 004e 1A70     		strb	r2, [r3]
 1168              	.L53:
 879:.\Generated_Source\PSoC4/BLE_1.c ****             {
 1169              		.loc 1 879 0 is_stmt 0 discriminator 1
 1170 0050 0F23     		mov	r3, #15
 1171 0052 FB18     		add	r3, r7, r3
 1172 0054 1B78     		ldrb	r3, [r3]
 1173 0056 052B     		cmp	r3, #5
 1174 0058 E7D9     		bls	.L54
 1175              	.L51:
 882:.\Generated_Source\PSoC4/BLE_1.c ****             }
 883:.\Generated_Source\PSoC4/BLE_1.c ****         }
 884:.\Generated_Source\PSoC4/BLE_1.c ****     }
 1176              		.loc 1 884 0 is_stmt 1
 1177 005a BD46     		mov	sp, r7
 1178 005c 04B0     		add	sp, sp, #16
 1179              		@ sp needed
 1180 005e 80BD     		pop	{r7, pc}
 1181              		.cfi_endproc
 1182              	.LFE10:
 1183              		.size	CyBle_ChangeAdDeviceAddress, .-CyBle_ChangeAdDeviceAddress
 1184              		.section	.text.CyBle_ChangeAdLocalName,"ax",%progbits
 1185              		.align	2
 1186              		.code	16
 1187              		.thumb_func
 1188              		.type	CyBle_ChangeAdLocalName, %function
 1189              	CyBle_ChangeAdLocalName:
 1190              	.LFB11:
 885:.\Generated_Source\PSoC4/BLE_1.c ****   
 886:.\Generated_Source\PSoC4/BLE_1.c **** #endif /* CYBLE_GAP_ROLE_PERIPHERAL || CYBLE_GAP_ROLE_BROADCASTER */
 887:.\Generated_Source\PSoC4/BLE_1.c **** 
 888:.\Generated_Source\PSoC4/BLE_1.c **** 
 889:.\Generated_Source\PSoC4/BLE_1.c **** #if(CYBLE_GAP_ROLE_CENTRAL || CYBLE_GAP_ROLE_OBSERVER)
 890:.\Generated_Source\PSoC4/BLE_1.c **** 
 891:.\Generated_Source\PSoC4/BLE_1.c ****     /******************************************************************************
 892:.\Generated_Source\PSoC4/BLE_1.c ****     * Function Name: CyBle_GapcStartScan
 893:.\Generated_Source\PSoC4/BLE_1.c ****     ***************************************************************************//**
 894:.\Generated_Source\PSoC4/BLE_1.c ****     * 
 895:.\Generated_Source\PSoC4/BLE_1.c ****     *   This function is used for discovering GAP peripheral devices that are 
 896:.\Generated_Source\PSoC4/BLE_1.c ****     *   available for connection. It performs the scanning routine using the 
 897:.\Generated_Source\PSoC4/BLE_1.c ****     *   parameters entered in the component's customizer.
 898:.\Generated_Source\PSoC4/BLE_1.c ****     *   
 899:.\Generated_Source\PSoC4/BLE_1.c ****     *   As soon as the discovery operation starts, CYBLE_EVT_GAPC_SCAN_START_STOP 
 900:.\Generated_Source\PSoC4/BLE_1.c ****     *   event is generated. The CYBLE_EVT_GAPC_SCAN_PROGRESS_RESULT event is 
 901:.\Generated_Source\PSoC4/BLE_1.c ****     *   generated when a GAP peripheral device is located. There are three discovery
 902:.\Generated_Source\PSoC4/BLE_1.c ****     *   procedures can be selected in the customizer's GUI:
 903:.\Generated_Source\PSoC4/BLE_1.c ****     *   
 904:.\Generated_Source\PSoC4/BLE_1.c ****     *   * Observation procedure: A device performing the observer role receives only
 905:.\Generated_Source\PSoC4/BLE_1.c ****     *                            advertisement data from devices irrespective of 
 906:.\Generated_Source\PSoC4/BLE_1.c ****     *                            their discoverable mode settings. Advertisement 
 907:.\Generated_Source\PSoC4/BLE_1.c ****     *                            data received is provided by the event,      
 908:.\Generated_Source\PSoC4/BLE_1.c ****     *                            CYBLE_EVT_GAPC_SCAN_PROGRESS_RESULT. This procedure
ARM GAS  C:\Users\Matthew\AppData\Local\Temp\cc2Cvq26.s 			page 38


 909:.\Generated_Source\PSoC4/BLE_1.c ****     *                            requires the scanType sub parameter to be passive
 910:.\Generated_Source\PSoC4/BLE_1.c ****     *                            scanning. 
 911:.\Generated_Source\PSoC4/BLE_1.c ****     *   
 912:.\Generated_Source\PSoC4/BLE_1.c ****     *   * Limited Discovery procedure: A device performing the limited discovery
 913:.\Generated_Source\PSoC4/BLE_1.c ****     *                                  procedure receives advertisement data and 
 914:.\Generated_Source\PSoC4/BLE_1.c ****     *                                  scan# response data from devices in the 
 915:.\Generated_Source\PSoC4/BLE_1.c ****     *                                  limited discoverable mode only. Received data
 916:.\Generated_Source\PSoC4/BLE_1.c ****     *                                  is provided by the event, 
 917:.\Generated_Source\PSoC4/BLE_1.c ****     *                                  CYBLE_EVT_GAPC_SCAN_PROGRESS_RESULT. This 
 918:.\Generated_Source\PSoC4/BLE_1.c ****     *                                  procedure requires the scanType sub-parameter 
 919:.\Generated_Source\PSoC4/BLE_1.c ****     *                                  to be active scanning.
 920:.\Generated_Source\PSoC4/BLE_1.c ****     *   
 921:.\Generated_Source\PSoC4/BLE_1.c ****     *   * General Discovery procedure: A device performing the general discovery 
 922:.\Generated_Source\PSoC4/BLE_1.c ****     *                                  procedure receives the advertisement data and
 923:.\Generated_Source\PSoC4/BLE_1.c ****     *                                  scan response data from devices in both 
 924:.\Generated_Source\PSoC4/BLE_1.c ****     *                                  limited discoverable mode and the general 
 925:.\Generated_Source\PSoC4/BLE_1.c ****     *                                  discoverable mode. Received data is provided
 926:.\Generated_Source\PSoC4/BLE_1.c ****     *                                  by the event,
 927:.\Generated_Source\PSoC4/BLE_1.c ****     *                                  CYBLE_EVT_GAPC_SCAN_PROGRESS_RESULT. This 
 928:.\Generated_Source\PSoC4/BLE_1.c ****     *                                  procedure requires the scanType sub-parameter
 929:.\Generated_Source\PSoC4/BLE_1.c ****     *                                  to be active scanning.
 930:.\Generated_Source\PSoC4/BLE_1.c ****     *   
 931:.\Generated_Source\PSoC4/BLE_1.c ****     *   Every Advertisement / Scan response packet received results in a new event, 
 932:.\Generated_Source\PSoC4/BLE_1.c ****     *   CYBLE_EVT_GAPC_SCAN_PROGRESS_RESULT.
 933:.\Generated_Source\PSoC4/BLE_1.c ****     *   If 'scanTo' sub-parameter is a non-zero value, then upon commencement of 
 934:.\Generated_Source\PSoC4/BLE_1.c ****     *   discovery procedure and elapsed time = 'scanTo', CYBLE_EVT_TIMEOUT event
 935:.\Generated_Source\PSoC4/BLE_1.c ****     *   is generated with the event parameter indicating CYBLE_GAP_SCAN_TO.
 936:.\Generated_Source\PSoC4/BLE_1.c ****     *   Possible generated events are:
 937:.\Generated_Source\PSoC4/BLE_1.c ****     *   * CYBLE_EVT_GAPC_SCAN_START_STOP: If a device started or stopped scanning. 
 938:.\Generated_Source\PSoC4/BLE_1.c ****     *                                     Use CyBle_GetState() to determine the 
 939:.\Generated_Source\PSoC4/BLE_1.c ****     *                                     state. Sequential scanning could be 
 940:.\Generated_Source\PSoC4/BLE_1.c ****     *                                     started when CYBLE_STATE_DISCONNECTED 
 941:.\Generated_Source\PSoC4/BLE_1.c ****     *                                     state is returned. 
 942:.\Generated_Source\PSoC4/BLE_1.c ****     *   * CYBLE_EVT_GAPC_SCAN_PROGRESS_RESULT 
 943:.\Generated_Source\PSoC4/BLE_1.c ****     *   * CYBLE_EVT_TIMEOUT (CYBLE_GAP_SCAN_TO)
 944:.\Generated_Source\PSoC4/BLE_1.c ****     * 
 945:.\Generated_Source\PSoC4/BLE_1.c ****     *   \param scanningIntervalType:  Fast or slow scanning interval with
 946:.\Generated_Source\PSoC4/BLE_1.c ****     *       timings entered in Scan settings section of the customizer.
 947:.\Generated_Source\PSoC4/BLE_1.c ****     * 	  * CYBLE_SCANNING_FAST   0x00u
 948:.\Generated_Source\PSoC4/BLE_1.c ****     * 	  * CYBLE_SCANNING_SLOW   0x01u
 949:.\Generated_Source\PSoC4/BLE_1.c ****     * 	  * CYBLE_SCANNING_CUSTOM 0x02u
 950:.\Generated_Source\PSoC4/BLE_1.c ****     * 
 951:.\Generated_Source\PSoC4/BLE_1.c ****     * \return
 952:.\Generated_Source\PSoC4/BLE_1.c ****     *  CYBLE_API_RESULT_T : Return value indicates if the function succeeded or
 953:.\Generated_Source\PSoC4/BLE_1.c ****     *  failed. Following are the possible error codes.
 954:.\Generated_Source\PSoC4/BLE_1.c ****     *
 955:.\Generated_Source\PSoC4/BLE_1.c ****     *   Errors codes                       | Description
 956:.\Generated_Source\PSoC4/BLE_1.c ****     *   ---------------------------------- | -----------------------------------
 957:.\Generated_Source\PSoC4/BLE_1.c ****     *   CYBLE_ERROR_OK                     | On successful operation.
 958:.\Generated_Source\PSoC4/BLE_1.c ****     *   CYBLE_ERROR_STACK_INTERNAL         | An error occurred in the BLE stack.
 959:.\Generated_Source\PSoC4/BLE_1.c ****     *   CYBLE_ERROR_INVALID_PARAMETER      | On passing an invalid parameter.
 960:.\Generated_Source\PSoC4/BLE_1.c ****     *  
 961:.\Generated_Source\PSoC4/BLE_1.c ****     *******************************************************************************/
 962:.\Generated_Source\PSoC4/BLE_1.c ****     CYBLE_API_RESULT_T CyBle_GapcStartScan(uint8 scanningIntervalType)
 963:.\Generated_Source\PSoC4/BLE_1.c ****     {
 964:.\Generated_Source\PSoC4/BLE_1.c ****         CYBLE_API_RESULT_T apiResult;
 965:.\Generated_Source\PSoC4/BLE_1.c **** 
ARM GAS  C:\Users\Matthew\AppData\Local\Temp\cc2Cvq26.s 			page 39


 966:.\Generated_Source\PSoC4/BLE_1.c ****         if(scanningIntervalType > CYBLE_SCANNING_CUSTOM)
 967:.\Generated_Source\PSoC4/BLE_1.c ****         {
 968:.\Generated_Source\PSoC4/BLE_1.c ****             apiResult = CYBLE_ERROR_INVALID_PARAMETER;
 969:.\Generated_Source\PSoC4/BLE_1.c ****         }
 970:.\Generated_Source\PSoC4/BLE_1.c ****         else
 971:.\Generated_Source\PSoC4/BLE_1.c ****         {
 972:.\Generated_Source\PSoC4/BLE_1.c ****             if(scanningIntervalType == CYBLE_SCANNING_FAST)
 973:.\Generated_Source\PSoC4/BLE_1.c ****             {
 974:.\Generated_Source\PSoC4/BLE_1.c ****                 cyBle_discoveryInfo.scanTo = CYBLE_FAST_SCAN_TIMEOUT;
 975:.\Generated_Source\PSoC4/BLE_1.c ****                 cyBle_discoveryInfo.scanIntv = CYBLE_FAST_SCAN_INTERVAL;
 976:.\Generated_Source\PSoC4/BLE_1.c ****                 cyBle_discoveryInfo.scanWindow = CYBLE_FAST_SCAN_WINDOW;
 977:.\Generated_Source\PSoC4/BLE_1.c ****             }
 978:.\Generated_Source\PSoC4/BLE_1.c ****             else if(scanningIntervalType == CYBLE_SCANNING_SLOW)
 979:.\Generated_Source\PSoC4/BLE_1.c ****             {
 980:.\Generated_Source\PSoC4/BLE_1.c ****                 cyBle_discoveryInfo.scanTo = CYBLE_SLOW_SCAN_TIMEOUT;
 981:.\Generated_Source\PSoC4/BLE_1.c ****                 cyBle_discoveryInfo.scanIntv = CYBLE_SLOW_SCAN_INTERVAL;
 982:.\Generated_Source\PSoC4/BLE_1.c ****                 cyBle_discoveryInfo.scanWindow = CYBLE_SLOW_SCAN_WINDOW;
 983:.\Generated_Source\PSoC4/BLE_1.c ****             }       
 984:.\Generated_Source\PSoC4/BLE_1.c ****             else /* Do not update scanning intervals */
 985:.\Generated_Source\PSoC4/BLE_1.c ****             {
 986:.\Generated_Source\PSoC4/BLE_1.c ****             }
 987:.\Generated_Source\PSoC4/BLE_1.c ****             
 988:.\Generated_Source\PSoC4/BLE_1.c ****             cyBle_scanningIntervalType = scanningIntervalType;
 989:.\Generated_Source\PSoC4/BLE_1.c ****             apiResult = CyBle_GapcStartDiscovery(&cyBle_discoveryInfo);
 990:.\Generated_Source\PSoC4/BLE_1.c ****         
 991:.\Generated_Source\PSoC4/BLE_1.c ****             if(CYBLE_ERROR_OK == apiResult)
 992:.\Generated_Source\PSoC4/BLE_1.c ****             {
 993:.\Generated_Source\PSoC4/BLE_1.c ****                 cyBle_eventHandlerFlag |= CYBLE_START_FLAG;
 994:.\Generated_Source\PSoC4/BLE_1.c ****             }
 995:.\Generated_Source\PSoC4/BLE_1.c ****         }
 996:.\Generated_Source\PSoC4/BLE_1.c ****        
 997:.\Generated_Source\PSoC4/BLE_1.c ****         return (apiResult);
 998:.\Generated_Source\PSoC4/BLE_1.c ****     }
 999:.\Generated_Source\PSoC4/BLE_1.c ****     
1000:.\Generated_Source\PSoC4/BLE_1.c ****     
1001:.\Generated_Source\PSoC4/BLE_1.c ****     /******************************************************************************
1002:.\Generated_Source\PSoC4/BLE_1.c ****     * Function Name: CyBle_GapcStopScan
1003:.\Generated_Source\PSoC4/BLE_1.c ****     ***************************************************************************//**
1004:.\Generated_Source\PSoC4/BLE_1.c ****     * 
1005:.\Generated_Source\PSoC4/BLE_1.c ****     *   This function used to stop the discovery of devices. On stopping discovery
1006:.\Generated_Source\PSoC4/BLE_1.c ****     *   operation, CYBLE_EVT_GAPC_SCAN_START_STOP event is generated. Application
1007:.\Generated_Source\PSoC4/BLE_1.c ****     *   layer needs to keep track of the function call made before receiving this
1008:.\Generated_Source\PSoC4/BLE_1.c ****     *   event to associate this event with either the start or stop discovery
1009:.\Generated_Source\PSoC4/BLE_1.c ****     *   function.
1010:.\Generated_Source\PSoC4/BLE_1.c ****     * 
1011:.\Generated_Source\PSoC4/BLE_1.c ****     *   Possible events generated are:
1012:.\Generated_Source\PSoC4/BLE_1.c ****     *    * CYBLE_EVT_GAPC_SCAN_START_STOP
1013:.\Generated_Source\PSoC4/BLE_1.c ****     * 
1014:.\Generated_Source\PSoC4/BLE_1.c ****     *  \return
1015:.\Generated_Source\PSoC4/BLE_1.c ****     *   None
1016:.\Generated_Source\PSoC4/BLE_1.c ****     * 
1017:.\Generated_Source\PSoC4/BLE_1.c ****     *******************************************************************************/
1018:.\Generated_Source\PSoC4/BLE_1.c ****     void CyBle_GapcStopScan(void)
1019:.\Generated_Source\PSoC4/BLE_1.c ****     {
1020:.\Generated_Source\PSoC4/BLE_1.c ****         CyBle_GapcStopDiscovery();
1021:.\Generated_Source\PSoC4/BLE_1.c ****         
1022:.\Generated_Source\PSoC4/BLE_1.c ****         cyBle_eventHandlerFlag |= CYBLE_STOP_FLAG;
ARM GAS  C:\Users\Matthew\AppData\Local\Temp\cc2Cvq26.s 			page 40


1023:.\Generated_Source\PSoC4/BLE_1.c ****     }
1024:.\Generated_Source\PSoC4/BLE_1.c **** 
1025:.\Generated_Source\PSoC4/BLE_1.c ****     
1026:.\Generated_Source\PSoC4/BLE_1.c **** #endif /* CYBLE_GAP_ROLE_CENTRAL || CYBLE_GAP_ROLE_OBSERVER */
1027:.\Generated_Source\PSoC4/BLE_1.c **** 
1028:.\Generated_Source\PSoC4/BLE_1.c **** 
1029:.\Generated_Source\PSoC4/BLE_1.c **** #if(CYBLE_GAP_ROLE_CENTRAL)
1030:.\Generated_Source\PSoC4/BLE_1.c **** 
1031:.\Generated_Source\PSoC4/BLE_1.c ****     /******************************************************************************
1032:.\Generated_Source\PSoC4/BLE_1.c ****     * Function Name: CyBle_GapcConnectDevice
1033:.\Generated_Source\PSoC4/BLE_1.c ****     ***************************************************************************//**
1034:.\Generated_Source\PSoC4/BLE_1.c ****     * 
1035:.\Generated_Source\PSoC4/BLE_1.c ****     *  This function is used to send a connection request to the remote device with
1036:.\Generated_Source\PSoC4/BLE_1.c ****     *  the connection parameters set in the component customizer. This function needs
1037:.\Generated_Source\PSoC4/BLE_1.c ****     *  to be called only once after the target device is discovered by 
1038:.\Generated_Source\PSoC4/BLE_1.c ****     *  CyBle_GapcStartScan() and further scanning has stopped. Scanning is 
1039:.\Generated_Source\PSoC4/BLE_1.c ****     *  successfully stopped on invoking CyBle_GapcStopScan() and then receiving the
1040:.\Generated_Source\PSoC4/BLE_1.c ****     *  event CYBLE_EVT_GAPC_SCAN_START_STOP with sub-parameter 'success' = 0x01u.
1041:.\Generated_Source\PSoC4/BLE_1.c ****     *  
1042:.\Generated_Source\PSoC4/BLE_1.c ****     *  On successful connection, the following events are generated at the GAP 
1043:.\Generated_Source\PSoC4/BLE_1.c ****     *  Central device (as well as the GAP Peripheral device), in the following order.
1044:.\Generated_Source\PSoC4/BLE_1.c ****     *  * CYBLE_EVT_GATT_CONNECT_IND
1045:.\Generated_Source\PSoC4/BLE_1.c ****     *  * CYBLE_EVT_GAP_DEVICE_CONNECTED - If the device connects to a GAP Central and 
1046:.\Generated_Source\PSoC4/BLE_1.c ****     *    Link Layer Privacy is disabled in component customizer.
1047:.\Generated_Source\PSoC4/BLE_1.c ****     *  * CYBLE_EVT_GAP_ENHANCE_CONN_COMPLETE - If the device connects to a GAP Central and 
1048:.\Generated_Source\PSoC4/BLE_1.c ****     *    Link Layer Privacy is enabled in component customizer.
1049:.\Generated_Source\PSoC4/BLE_1.c ****     *  * CYBLE_EVT_GAP_DEVICE_CONNECTED
1050:.\Generated_Source\PSoC4/BLE_1.c ****     *  
1051:.\Generated_Source\PSoC4/BLE_1.c ****     *  A procedure is considered to have timed out if a connection response packet is 
1052:.\Generated_Source\PSoC4/BLE_1.c ****     *  not received within time set by cyBle_connectingTimeout global variable
1053:.\Generated_Source\PSoC4/BLE_1.c ****     *  (30 seconds by default). CYBLE_EVT_TIMEOUT event with CYBLE_GENERIC_TO parameter
1054:.\Generated_Source\PSoC4/BLE_1.c ****     *  will indicate about connection procedure timeout. Connection will automatically
1055:.\Generated_Source\PSoC4/BLE_1.c ****     *  be canceled and state will be changed to CYBLE_STATE_DISCONNECTED.
1056:.\Generated_Source\PSoC4/BLE_1.c ****     * 
1057:.\Generated_Source\PSoC4/BLE_1.c ****     *  \param address: The device address of the remote device to connect to. 
1058:.\Generated_Source\PSoC4/BLE_1.c ****     *  
1059:.\Generated_Source\PSoC4/BLE_1.c ****     * \return
1060:.\Generated_Source\PSoC4/BLE_1.c ****     *  CYBLE_API_RESULT_T : Return value indicates if the function succeeded or 
1061:.\Generated_Source\PSoC4/BLE_1.c ****     *  failed. Following are the possible error codes.
1062:.\Generated_Source\PSoC4/BLE_1.c ****     *
1063:.\Generated_Source\PSoC4/BLE_1.c ****     *   Errors codes                       | Description
1064:.\Generated_Source\PSoC4/BLE_1.c ****     *   ------------                       | -----------
1065:.\Generated_Source\PSoC4/BLE_1.c ****     *   CYBLE_ERROR_OK                     | On successful operation.
1066:.\Generated_Source\PSoC4/BLE_1.c ****     *   CYBLE_ERROR_STACK_INTERNAL         | On error occurred in the BLE stack.
1067:.\Generated_Source\PSoC4/BLE_1.c ****     *   CYBLE_ERROR_INVALID_PARAMETER      | On passing an invalid parameter.
1068:.\Generated_Source\PSoC4/BLE_1.c ****     *   CYBLE_ERROR_INVALID_STATE          | On calling this API not in Disconnected state.
1069:.\Generated_Source\PSoC4/BLE_1.c ****     *  
1070:.\Generated_Source\PSoC4/BLE_1.c ****     ******************************************************************************/
1071:.\Generated_Source\PSoC4/BLE_1.c ****     CYBLE_API_RESULT_T CyBle_GapcConnectDevice(const CYBLE_GAP_BD_ADDR_T * address)
1072:.\Generated_Source\PSoC4/BLE_1.c ****     {
1073:.\Generated_Source\PSoC4/BLE_1.c ****         CYBLE_API_RESULT_T apiResult;
1074:.\Generated_Source\PSoC4/BLE_1.c ****         uint8 i;
1075:.\Generated_Source\PSoC4/BLE_1.c **** 
1076:.\Generated_Source\PSoC4/BLE_1.c ****         if(CyBle_GetState() != CYBLE_STATE_DISCONNECTED)
1077:.\Generated_Source\PSoC4/BLE_1.c ****         {
1078:.\Generated_Source\PSoC4/BLE_1.c ****             apiResult = CYBLE_ERROR_INVALID_STATE;
1079:.\Generated_Source\PSoC4/BLE_1.c ****         }
ARM GAS  C:\Users\Matthew\AppData\Local\Temp\cc2Cvq26.s 			page 41


1080:.\Generated_Source\PSoC4/BLE_1.c ****         else if(address == NULL)
1081:.\Generated_Source\PSoC4/BLE_1.c ****         {
1082:.\Generated_Source\PSoC4/BLE_1.c ****             apiResult = CYBLE_ERROR_INVALID_PARAMETER;
1083:.\Generated_Source\PSoC4/BLE_1.c ****         }
1084:.\Generated_Source\PSoC4/BLE_1.c ****         else
1085:.\Generated_Source\PSoC4/BLE_1.c ****         {
1086:.\Generated_Source\PSoC4/BLE_1.c ****             for(i = 0u; i < CYBLE_GAP_BD_ADDR_SIZE; i++)
1087:.\Generated_Source\PSoC4/BLE_1.c ****             {
1088:.\Generated_Source\PSoC4/BLE_1.c ****                 cyBle_connectionParameters.peerBdAddr[i] = address->bdAddr[i];
1089:.\Generated_Source\PSoC4/BLE_1.c ****             }
1090:.\Generated_Source\PSoC4/BLE_1.c ****             cyBle_connectionParameters.peerAddrType = address -> type;
1091:.\Generated_Source\PSoC4/BLE_1.c ****             apiResult = CyBle_GapcInitConnection(&cyBle_connectionParameters);
1092:.\Generated_Source\PSoC4/BLE_1.c ****             
1093:.\Generated_Source\PSoC4/BLE_1.c ****             if(apiResult == CYBLE_ERROR_OK)
1094:.\Generated_Source\PSoC4/BLE_1.c ****             {
1095:.\Generated_Source\PSoC4/BLE_1.c ****                 CyBle_SetState(CYBLE_STATE_CONNECTING);
1096:.\Generated_Source\PSoC4/BLE_1.c ****                 if(cyBle_connectingTimeout != 0u)
1097:.\Generated_Source\PSoC4/BLE_1.c ****                 {
1098:.\Generated_Source\PSoC4/BLE_1.c ****                     (void)CyBle_StartTimer(cyBle_connectingTimeout);
1099:.\Generated_Source\PSoC4/BLE_1.c ****                 }
1100:.\Generated_Source\PSoC4/BLE_1.c ****             }
1101:.\Generated_Source\PSoC4/BLE_1.c ****         }
1102:.\Generated_Source\PSoC4/BLE_1.c ****         return (apiResult);
1103:.\Generated_Source\PSoC4/BLE_1.c ****     }
1104:.\Generated_Source\PSoC4/BLE_1.c ****     
1105:.\Generated_Source\PSoC4/BLE_1.c **** 
1106:.\Generated_Source\PSoC4/BLE_1.c ****     /******************************************************************************
1107:.\Generated_Source\PSoC4/BLE_1.c ****     * Function Name: CyBle_GapcCancelDeviceConnection
1108:.\Generated_Source\PSoC4/BLE_1.c ****     ***************************************************************************//**
1109:.\Generated_Source\PSoC4/BLE_1.c ****     * 
1110:.\Generated_Source\PSoC4/BLE_1.c ****     *  This function cancels a previously initiated connection with the remote 
1111:.\Generated_Source\PSoC4/BLE_1.c ****     *  device. It is a blocking function. No event is generated on calling this 
1112:.\Generated_Source\PSoC4/BLE_1.c ****     *  function. If the devices are already connected then this function should not
1113:.\Generated_Source\PSoC4/BLE_1.c ****     *  be used. If you intend to disconnect from an existing connection, the function
1114:.\Generated_Source\PSoC4/BLE_1.c ****     *  CyBle_GapDisconnect() should be used.
1115:.\Generated_Source\PSoC4/BLE_1.c ****     * 
1116:.\Generated_Source\PSoC4/BLE_1.c ****     * \return
1117:.\Generated_Source\PSoC4/BLE_1.c ****     *  CYBLE_API_RESULT_T : Return value indicates if the function succeeded or 
1118:.\Generated_Source\PSoC4/BLE_1.c ****     *  failed. Following are the possible error codes.
1119:.\Generated_Source\PSoC4/BLE_1.c ****     *
1120:.\Generated_Source\PSoC4/BLE_1.c ****     *   Errors codes                       | Description
1121:.\Generated_Source\PSoC4/BLE_1.c ****     *   ---------------------------------- | --------------------------------------
1122:.\Generated_Source\PSoC4/BLE_1.c ****     *   CYBLE_ERROR_OK                     | On successful operation.
1123:.\Generated_Source\PSoC4/BLE_1.c ****     *   CYBLE_ERROR_STACK_INTERNAL         | An error occurred in the BLE stack.
1124:.\Generated_Source\PSoC4/BLE_1.c ****     *   CYBLE_ERROR_INVALID_STATE          | On calling this API not in Connecting state.
1125:.\Generated_Source\PSoC4/BLE_1.c ****     *  
1126:.\Generated_Source\PSoC4/BLE_1.c ****     *******************************************************************************/
1127:.\Generated_Source\PSoC4/BLE_1.c ****     CYBLE_API_RESULT_T CyBle_GapcCancelDeviceConnection(void)
1128:.\Generated_Source\PSoC4/BLE_1.c ****     {
1129:.\Generated_Source\PSoC4/BLE_1.c ****         CYBLE_API_RESULT_T apiResult;
1130:.\Generated_Source\PSoC4/BLE_1.c ****         
1131:.\Generated_Source\PSoC4/BLE_1.c ****         if(CyBle_GetState() != CYBLE_STATE_CONNECTING)
1132:.\Generated_Source\PSoC4/BLE_1.c ****         {
1133:.\Generated_Source\PSoC4/BLE_1.c ****             apiResult = CYBLE_ERROR_INVALID_STATE;
1134:.\Generated_Source\PSoC4/BLE_1.c ****         }
1135:.\Generated_Source\PSoC4/BLE_1.c ****         else 
1136:.\Generated_Source\PSoC4/BLE_1.c ****         {
ARM GAS  C:\Users\Matthew\AppData\Local\Temp\cc2Cvq26.s 			page 42


1137:.\Generated_Source\PSoC4/BLE_1.c ****             apiResult = CyBle_GapcCancelConnection();
1138:.\Generated_Source\PSoC4/BLE_1.c ****             
1139:.\Generated_Source\PSoC4/BLE_1.c ****             if(cyBle_connectingTimeout != 0u)
1140:.\Generated_Source\PSoC4/BLE_1.c ****             {
1141:.\Generated_Source\PSoC4/BLE_1.c ****                 (void)CyBle_StopTimer();
1142:.\Generated_Source\PSoC4/BLE_1.c ****             }
1143:.\Generated_Source\PSoC4/BLE_1.c **** 
1144:.\Generated_Source\PSoC4/BLE_1.c ****             if(apiResult == CYBLE_ERROR_OK)
1145:.\Generated_Source\PSoC4/BLE_1.c ****             {
1146:.\Generated_Source\PSoC4/BLE_1.c ****                 CyBle_SetState(CYBLE_STATE_DISCONNECTED);
1147:.\Generated_Source\PSoC4/BLE_1.c ****             }
1148:.\Generated_Source\PSoC4/BLE_1.c ****         }
1149:.\Generated_Source\PSoC4/BLE_1.c ****         return (apiResult);
1150:.\Generated_Source\PSoC4/BLE_1.c ****     }    
1151:.\Generated_Source\PSoC4/BLE_1.c **** 
1152:.\Generated_Source\PSoC4/BLE_1.c ****     
1153:.\Generated_Source\PSoC4/BLE_1.c **** #endif /* CYBLE_GAP_ROLE_CENTRAL */
1154:.\Generated_Source\PSoC4/BLE_1.c **** 
1155:.\Generated_Source\PSoC4/BLE_1.c **** 
1156:.\Generated_Source\PSoC4/BLE_1.c **** #if(CYBLE_GATT_ROLE_SERVER)
1157:.\Generated_Source\PSoC4/BLE_1.c **** 
1158:.\Generated_Source\PSoC4/BLE_1.c **** #if(CYBLE_GAP_ROLE_PERIPHERAL)
1159:.\Generated_Source\PSoC4/BLE_1.c **** 
1160:.\Generated_Source\PSoC4/BLE_1.c ****         /******************************************************************************
1161:.\Generated_Source\PSoC4/BLE_1.c ****         * Function Name: CyBle_ChangeAdLocalName
1162:.\Generated_Source\PSoC4/BLE_1.c ****         ***************************************************************************//**
1163:.\Generated_Source\PSoC4/BLE_1.c ****         *  This API is used to set the local device name in the advertisement or scan 
1164:.\Generated_Source\PSoC4/BLE_1.c ****         *  response data structure.
1165:.\Generated_Source\PSoC4/BLE_1.c ****         * 
1166:.\Generated_Source\PSoC4/BLE_1.c ****         *  \param name: The local device name string to be set in advertisement data 
1167:.\Generated_Source\PSoC4/BLE_1.c ****         *            structure.
1168:.\Generated_Source\PSoC4/BLE_1.c ****         *  \param dest: 0 - advertisement structure, not zero value selects scan response
1169:.\Generated_Source\PSoC4/BLE_1.c ****         *              structure.
1170:.\Generated_Source\PSoC4/BLE_1.c ****         * 
1171:.\Generated_Source\PSoC4/BLE_1.c ****         * \return
1172:.\Generated_Source\PSoC4/BLE_1.c ****         *  None
1173:.\Generated_Source\PSoC4/BLE_1.c ****         *  
1174:.\Generated_Source\PSoC4/BLE_1.c ****         *******************************************************************************/
1175:.\Generated_Source\PSoC4/BLE_1.c ****         static void CyBle_ChangeAdLocalName(const char8 name[], uint8 dest)
1176:.\Generated_Source\PSoC4/BLE_1.c ****         {
 1191              		.loc 1 1176 0
 1192              		.cfi_startproc
 1193 0000 80B5     		push	{r7, lr}
 1194              		.cfi_def_cfa_offset 8
 1195              		.cfi_offset 7, -8
 1196              		.cfi_offset 14, -4
 1197 0002 86B0     		sub	sp, sp, #24
 1198              		.cfi_def_cfa_offset 32
 1199 0004 00AF     		add	r7, sp, #0
 1200              		.cfi_def_cfa_register 7
 1201 0006 7860     		str	r0, [r7, #4]
 1202 0008 0A1C     		mov	r2, r1
 1203 000a FB1C     		add	r3, r7, #3
 1204 000c 1A70     		strb	r2, [r3]
1177:.\Generated_Source\PSoC4/BLE_1.c ****             uint8 i;
1178:.\Generated_Source\PSoC4/BLE_1.c ****             uint8 flag = 0u;
 1205              		.loc 1 1178 0
ARM GAS  C:\Users\Matthew\AppData\Local\Temp\cc2Cvq26.s 			page 43


 1206 000e 1623     		mov	r3, #22
 1207 0010 FB18     		add	r3, r7, r3
 1208 0012 0022     		mov	r2, #0
 1209 0014 1A70     		strb	r2, [r3]
1179:.\Generated_Source\PSoC4/BLE_1.c ****             uint8 adLength = 0u;
 1210              		.loc 1 1179 0
 1211 0016 1523     		mov	r3, #21
 1212 0018 FB18     		add	r3, r7, r3
 1213 001a 0022     		mov	r2, #0
 1214 001c 1A70     		strb	r2, [r3]
1180:.\Generated_Source\PSoC4/BLE_1.c ****             uint8 byteCounter = 0u;
 1215              		.loc 1 1180 0
 1216 001e 1423     		mov	r3, #20
 1217 0020 FB18     		add	r3, r7, r3
 1218 0022 0022     		mov	r2, #0
 1219 0024 1A70     		strb	r2, [r3]
1181:.\Generated_Source\PSoC4/BLE_1.c ****             uint8 *destBuffer;
1182:.\Generated_Source\PSoC4/BLE_1.c ****             uint8 maxLength;
1183:.\Generated_Source\PSoC4/BLE_1.c ****             
1184:.\Generated_Source\PSoC4/BLE_1.c ****             if(dest == 0u)      /* Destination - advertising structure */
 1220              		.loc 1 1184 0
 1221 0026 FB1C     		add	r3, r7, #3
 1222 0028 1B78     		ldrb	r3, [r3]
 1223 002a 002B     		cmp	r3, #0
 1224 002c 07D1     		bne	.L56
1185:.\Generated_Source\PSoC4/BLE_1.c ****             {
1186:.\Generated_Source\PSoC4/BLE_1.c ****                 destBuffer = cyBle_discoveryData.advData;
 1225              		.loc 1 1186 0
 1226 002e 5B4B     		ldr	r3, .L71
 1227 0030 3B61     		str	r3, [r7, #16]
1187:.\Generated_Source\PSoC4/BLE_1.c ****                 maxLength = cyBle_discoveryData.advDataLen;
 1228              		.loc 1 1187 0
 1229 0032 0F23     		mov	r3, #15
 1230 0034 FB18     		add	r3, r7, r3
 1231 0036 594A     		ldr	r2, .L71
 1232 0038 D27F     		ldrb	r2, [r2, #31]
 1233 003a 1A70     		strb	r2, [r3]
 1234 003c 06E0     		b	.L57
 1235              	.L56:
1188:.\Generated_Source\PSoC4/BLE_1.c ****             }
1189:.\Generated_Source\PSoC4/BLE_1.c ****             else                /* Destination - scan response structure */
1190:.\Generated_Source\PSoC4/BLE_1.c ****             {
1191:.\Generated_Source\PSoC4/BLE_1.c ****                 destBuffer = cyBle_scanRspData.scanRspData;
 1236              		.loc 1 1191 0
 1237 003e 584B     		ldr	r3, .L71+4
 1238 0040 3B61     		str	r3, [r7, #16]
1192:.\Generated_Source\PSoC4/BLE_1.c ****                 maxLength = cyBle_scanRspData.scanRspDataLen;
 1239              		.loc 1 1192 0
 1240 0042 0F23     		mov	r3, #15
 1241 0044 FB18     		add	r3, r7, r3
 1242 0046 564A     		ldr	r2, .L71+4
 1243 0048 D27F     		ldrb	r2, [r2, #31]
 1244 004a 1A70     		strb	r2, [r3]
 1245              	.L57:
1193:.\Generated_Source\PSoC4/BLE_1.c ****             }
1194:.\Generated_Source\PSoC4/BLE_1.c ****             
1195:.\Generated_Source\PSoC4/BLE_1.c ****             while((byteCounter < maxLength) && (0u == flag))
ARM GAS  C:\Users\Matthew\AppData\Local\Temp\cc2Cvq26.s 			page 44


 1246              		.loc 1 1195 0
 1247 004c 35E0     		b	.L58
 1248              	.L64:
1196:.\Generated_Source\PSoC4/BLE_1.c ****             {
1197:.\Generated_Source\PSoC4/BLE_1.c ****                 adLength = destBuffer[byteCounter];
 1249              		.loc 1 1197 0
 1250 004e 1423     		mov	r3, #20
 1251 0050 FB18     		add	r3, r7, r3
 1252 0052 1B78     		ldrb	r3, [r3]
 1253 0054 3A69     		ldr	r2, [r7, #16]
 1254 0056 D218     		add	r2, r2, r3
 1255 0058 1523     		mov	r3, #21
 1256 005a FB18     		add	r3, r7, r3
 1257 005c 1278     		ldrb	r2, [r2]
 1258 005e 1A70     		strb	r2, [r3]
1198:.\Generated_Source\PSoC4/BLE_1.c ****                 
1199:.\Generated_Source\PSoC4/BLE_1.c ****                 if(0u != adLength)
 1259              		.loc 1 1199 0
 1260 0060 1523     		mov	r3, #21
 1261 0062 FB18     		add	r3, r7, r3
 1262 0064 1B78     		ldrb	r3, [r3]
 1263 0066 002B     		cmp	r3, #0
 1264 0068 26D0     		beq	.L59
1200:.\Generated_Source\PSoC4/BLE_1.c ****                 {
1201:.\Generated_Source\PSoC4/BLE_1.c ****                     /* Increment byte counter so it can point to AD type */
1202:.\Generated_Source\PSoC4/BLE_1.c ****                     byteCounter++;
 1265              		.loc 1 1202 0
 1266 006a 1423     		mov	r3, #20
 1267 006c FB18     		add	r3, r7, r3
 1268 006e 1A78     		ldrb	r2, [r3]
 1269 0070 1423     		mov	r3, #20
 1270 0072 FB18     		add	r3, r7, r3
 1271 0074 0132     		add	r2, r2, #1
 1272 0076 1A70     		strb	r2, [r3]
1203:.\Generated_Source\PSoC4/BLE_1.c ****                     
1204:.\Generated_Source\PSoC4/BLE_1.c ****                     if((CYBLE_SHORT_LOCAL_NAME == destBuffer[byteCounter]) || 
 1273              		.loc 1 1204 0
 1274 0078 1423     		mov	r3, #20
 1275 007a FB18     		add	r3, r7, r3
 1276 007c 1B78     		ldrb	r3, [r3]
 1277 007e 3A69     		ldr	r2, [r7, #16]
 1278 0080 D318     		add	r3, r2, r3
 1279 0082 1B78     		ldrb	r3, [r3]
 1280 0084 082B     		cmp	r3, #8
 1281 0086 07D0     		beq	.L60
1205:.\Generated_Source\PSoC4/BLE_1.c ****                        (CYBLE_COMPLETE_LOCAL_NAME == destBuffer[byteCounter]))
 1282              		.loc 1 1205 0 discriminator 1
 1283 0088 1423     		mov	r3, #20
 1284 008a FB18     		add	r3, r7, r3
 1285 008c 1B78     		ldrb	r3, [r3]
 1286 008e 3A69     		ldr	r2, [r7, #16]
 1287 0090 D318     		add	r3, r2, r3
 1288 0092 1B78     		ldrb	r3, [r3]
1204:.\Generated_Source\PSoC4/BLE_1.c ****                        (CYBLE_COMPLETE_LOCAL_NAME == destBuffer[byteCounter]))
 1289              		.loc 1 1204 0 discriminator 1
 1290 0094 092B     		cmp	r3, #9
 1291 0096 04D1     		bne	.L61
ARM GAS  C:\Users\Matthew\AppData\Local\Temp\cc2Cvq26.s 			page 45


 1292              	.L60:
1206:.\Generated_Source\PSoC4/BLE_1.c ****                     {
1207:.\Generated_Source\PSoC4/BLE_1.c ****                         /* Start of the Local Name AD type was fount. Set flag and exit the loop. *
1208:.\Generated_Source\PSoC4/BLE_1.c ****                         flag = 1u;
 1293              		.loc 1 1208 0
 1294 0098 1623     		mov	r3, #22
 1295 009a FB18     		add	r3, r7, r3
 1296 009c 0122     		mov	r2, #1
 1297 009e 1A70     		strb	r2, [r3]
 1298 00a0 09E0     		b	.L62
 1299              	.L61:
1209:.\Generated_Source\PSoC4/BLE_1.c ****                     }
1210:.\Generated_Source\PSoC4/BLE_1.c ****                     else
1211:.\Generated_Source\PSoC4/BLE_1.c ****                     {
1212:.\Generated_Source\PSoC4/BLE_1.c ****                         byteCounter += adLength;
 1300              		.loc 1 1212 0
 1301 00a2 1423     		mov	r3, #20
 1302 00a4 FB18     		add	r3, r7, r3
 1303 00a6 1422     		mov	r2, #20
 1304 00a8 B918     		add	r1, r7, r2
 1305 00aa 1522     		mov	r2, #21
 1306 00ac BA18     		add	r2, r7, r2
 1307 00ae 0978     		ldrb	r1, [r1]
 1308 00b0 1278     		ldrb	r2, [r2]
 1309 00b2 8A18     		add	r2, r1, r2
 1310 00b4 1A70     		strb	r2, [r3]
 1311              	.L62:
 1312 00b6 00E0     		b	.L58
 1313              	.L59:
1213:.\Generated_Source\PSoC4/BLE_1.c ****                     }
1214:.\Generated_Source\PSoC4/BLE_1.c ****                 }
1215:.\Generated_Source\PSoC4/BLE_1.c ****                 else
1216:.\Generated_Source\PSoC4/BLE_1.c ****                 {
1217:.\Generated_Source\PSoC4/BLE_1.c ****                     /* The end of advertisement data structure was encountered though exit the loop
1218:.\Generated_Source\PSoC4/BLE_1.c ****                     break;
 1314              		.loc 1 1218 0
 1315 00b8 0CE0     		b	.L63
 1316              	.L58:
1195:.\Generated_Source\PSoC4/BLE_1.c ****             {
 1317              		.loc 1 1195 0
 1318 00ba 1423     		mov	r3, #20
 1319 00bc FA18     		add	r2, r7, r3
 1320 00be 0F23     		mov	r3, #15
 1321 00c0 FB18     		add	r3, r7, r3
 1322 00c2 1278     		ldrb	r2, [r2]
 1323 00c4 1B78     		ldrb	r3, [r3]
 1324 00c6 9A42     		cmp	r2, r3
 1325 00c8 04D2     		bcs	.L63
1195:.\Generated_Source\PSoC4/BLE_1.c ****             {
 1326              		.loc 1 1195 0 is_stmt 0 discriminator 1
 1327 00ca 1623     		mov	r3, #22
 1328 00cc FB18     		add	r3, r7, r3
 1329 00ce 1B78     		ldrb	r3, [r3]
 1330 00d0 002B     		cmp	r3, #0
 1331 00d2 BCD0     		beq	.L64
 1332              	.L63:
1219:.\Generated_Source\PSoC4/BLE_1.c ****                 }
ARM GAS  C:\Users\Matthew\AppData\Local\Temp\cc2Cvq26.s 			page 46


1220:.\Generated_Source\PSoC4/BLE_1.c ****             }
1221:.\Generated_Source\PSoC4/BLE_1.c ****             
1222:.\Generated_Source\PSoC4/BLE_1.c ****             if(0u != flag)
 1333              		.loc 1 1222 0 is_stmt 1
 1334 00d4 1623     		mov	r3, #22
 1335 00d6 FB18     		add	r3, r7, r3
 1336 00d8 1B78     		ldrb	r3, [r3]
 1337 00da 002B     		cmp	r3, #0
 1338 00dc 5BD0     		beq	.L55
1223:.\Generated_Source\PSoC4/BLE_1.c ****             {
1224:.\Generated_Source\PSoC4/BLE_1.c ****                 /* Reuse "adLength" to hold location of the last character of local name in 
1225:.\Generated_Source\PSoC4/BLE_1.c ****                    AD structure. */
1226:.\Generated_Source\PSoC4/BLE_1.c ****                 adLength += byteCounter;
 1339              		.loc 1 1226 0
 1340 00de 1523     		mov	r3, #21
 1341 00e0 FB18     		add	r3, r7, r3
 1342 00e2 1522     		mov	r2, #21
 1343 00e4 B918     		add	r1, r7, r2
 1344 00e6 1422     		mov	r2, #20
 1345 00e8 BA18     		add	r2, r7, r2
 1346 00ea 0978     		ldrb	r1, [r1]
 1347 00ec 1278     		ldrb	r2, [r2]
 1348 00ee 8A18     		add	r2, r1, r2
 1349 00f0 1A70     		strb	r2, [r3]
1227:.\Generated_Source\PSoC4/BLE_1.c ****                 
1228:.\Generated_Source\PSoC4/BLE_1.c ****                 /* Increment byte counter to point to start of the local Name string */
1229:.\Generated_Source\PSoC4/BLE_1.c ****                 byteCounter++;
 1350              		.loc 1 1229 0
 1351 00f2 1423     		mov	r3, #20
 1352 00f4 FB18     		add	r3, r7, r3
 1353 00f6 1A78     		ldrb	r2, [r3]
 1354 00f8 1423     		mov	r3, #20
 1355 00fa FB18     		add	r3, r7, r3
 1356 00fc 0132     		add	r2, r2, #1
 1357 00fe 1A70     		strb	r2, [r3]
1230:.\Generated_Source\PSoC4/BLE_1.c ****                 
1231:.\Generated_Source\PSoC4/BLE_1.c ****                 for(i = byteCounter; ((i < (adLength)) && (CYBLE_NULL_CHARCTER != name[i - byteCoun
 1358              		.loc 1 1231 0
 1359 0100 1723     		mov	r3, #23
 1360 0102 FB18     		add	r3, r7, r3
 1361 0104 1422     		mov	r2, #20
 1362 0106 BA18     		add	r2, r7, r2
 1363 0108 1278     		ldrb	r2, [r2]
 1364 010a 1A70     		strb	r2, [r3]
 1365 010c 17E0     		b	.L66
 1366              	.L68:
1232:.\Generated_Source\PSoC4/BLE_1.c ****                 {
1233:.\Generated_Source\PSoC4/BLE_1.c ****                     destBuffer[i] = (uint8)name[i - byteCounter];
 1367              		.loc 1 1233 0 discriminator 4
 1368 010e 1723     		mov	r3, #23
 1369 0110 FB18     		add	r3, r7, r3
 1370 0112 1B78     		ldrb	r3, [r3]
 1371 0114 3A69     		ldr	r2, [r7, #16]
 1372 0116 D318     		add	r3, r2, r3
 1373 0118 1722     		mov	r2, #23
 1374 011a BA18     		add	r2, r7, r2
 1375 011c 1178     		ldrb	r1, [r2]
ARM GAS  C:\Users\Matthew\AppData\Local\Temp\cc2Cvq26.s 			page 47


 1376 011e 1422     		mov	r2, #20
 1377 0120 BA18     		add	r2, r7, r2
 1378 0122 1278     		ldrb	r2, [r2]
 1379 0124 8A1A     		sub	r2, r1, r2
 1380 0126 111C     		mov	r1, r2
 1381 0128 7A68     		ldr	r2, [r7, #4]
 1382 012a 5218     		add	r2, r2, r1
 1383 012c 1278     		ldrb	r2, [r2]
 1384 012e 1A70     		strb	r2, [r3]
1231:.\Generated_Source\PSoC4/BLE_1.c ****                 {
 1385              		.loc 1 1231 0 discriminator 4
 1386 0130 1723     		mov	r3, #23
 1387 0132 FB18     		add	r3, r7, r3
 1388 0134 1A78     		ldrb	r2, [r3]
 1389 0136 1723     		mov	r3, #23
 1390 0138 FB18     		add	r3, r7, r3
 1391 013a 0132     		add	r2, r2, #1
 1392 013c 1A70     		strb	r2, [r3]
 1393              	.L66:
1231:.\Generated_Source\PSoC4/BLE_1.c ****                 {
 1394              		.loc 1 1231 0 is_stmt 0 discriminator 1
 1395 013e 1723     		mov	r3, #23
 1396 0140 FA18     		add	r2, r7, r3
 1397 0142 1523     		mov	r3, #21
 1398 0144 FB18     		add	r3, r7, r3
 1399 0146 1278     		ldrb	r2, [r2]
 1400 0148 1B78     		ldrb	r3, [r3]
 1401 014a 9A42     		cmp	r2, r3
 1402 014c 0CD2     		bcs	.L67
1231:.\Generated_Source\PSoC4/BLE_1.c ****                 {
 1403              		.loc 1 1231 0 discriminator 3
 1404 014e 1723     		mov	r3, #23
 1405 0150 FB18     		add	r3, r7, r3
 1406 0152 1A78     		ldrb	r2, [r3]
 1407 0154 1423     		mov	r3, #20
 1408 0156 FB18     		add	r3, r7, r3
 1409 0158 1B78     		ldrb	r3, [r3]
 1410 015a D31A     		sub	r3, r2, r3
 1411 015c 1A1C     		mov	r2, r3
 1412 015e 7B68     		ldr	r3, [r7, #4]
 1413 0160 9B18     		add	r3, r3, r2
 1414 0162 1B78     		ldrb	r3, [r3]
 1415 0164 002B     		cmp	r3, #0
 1416 0166 D2D1     		bne	.L68
 1417              	.L67:
1234:.\Generated_Source\PSoC4/BLE_1.c ****                 }
1235:.\Generated_Source\PSoC4/BLE_1.c ****                 
1236:.\Generated_Source\PSoC4/BLE_1.c ****                 /* This loop handles the case when new local name is shorted than old one.
1237:.\Generated_Source\PSoC4/BLE_1.c ****                    In this case all remaining characters should be null characters. */
1238:.\Generated_Source\PSoC4/BLE_1.c ****                 while(adLength > i)
 1418              		.loc 1 1238 0 is_stmt 1
 1419 0168 0DE0     		b	.L69
 1420              	.L70:
1239:.\Generated_Source\PSoC4/BLE_1.c ****                 {
1240:.\Generated_Source\PSoC4/BLE_1.c ****                     /* Terminate string */
1241:.\Generated_Source\PSoC4/BLE_1.c ****                     destBuffer[i] = (uint8)CYBLE_NULL_CHARCTER;
 1421              		.loc 1 1241 0
ARM GAS  C:\Users\Matthew\AppData\Local\Temp\cc2Cvq26.s 			page 48


 1422 016a 1723     		mov	r3, #23
 1423 016c FB18     		add	r3, r7, r3
 1424 016e 1B78     		ldrb	r3, [r3]
 1425 0170 3A69     		ldr	r2, [r7, #16]
 1426 0172 D318     		add	r3, r2, r3
 1427 0174 0022     		mov	r2, #0
 1428 0176 1A70     		strb	r2, [r3]
1242:.\Generated_Source\PSoC4/BLE_1.c ****                     i++;
 1429              		.loc 1 1242 0
 1430 0178 1723     		mov	r3, #23
 1431 017a FB18     		add	r3, r7, r3
 1432 017c 1A78     		ldrb	r2, [r3]
 1433 017e 1723     		mov	r3, #23
 1434 0180 FB18     		add	r3, r7, r3
 1435 0182 0132     		add	r2, r2, #1
 1436 0184 1A70     		strb	r2, [r3]
 1437              	.L69:
1238:.\Generated_Source\PSoC4/BLE_1.c ****                 {
 1438              		.loc 1 1238 0
 1439 0186 1523     		mov	r3, #21
 1440 0188 FA18     		add	r2, r7, r3
 1441 018a 1723     		mov	r3, #23
 1442 018c FB18     		add	r3, r7, r3
 1443 018e 1278     		ldrb	r2, [r2]
 1444 0190 1B78     		ldrb	r3, [r3]
 1445 0192 9A42     		cmp	r2, r3
 1446 0194 E9D8     		bhi	.L70
 1447              	.L55:
1243:.\Generated_Source\PSoC4/BLE_1.c ****                 }
1244:.\Generated_Source\PSoC4/BLE_1.c ****             }
1245:.\Generated_Source\PSoC4/BLE_1.c ****         }
 1448              		.loc 1 1245 0
 1449 0196 BD46     		mov	sp, r7
 1450 0198 06B0     		add	sp, sp, #24
 1451              		@ sp needed
 1452 019a 80BD     		pop	{r7, pc}
 1453              	.L72:
 1454              		.align	2
 1455              	.L71:
 1456 019c 00000000 		.word	cyBle_discoveryData
 1457 01a0 00000000 		.word	cyBle_scanRspData
 1458              		.cfi_endproc
 1459              	.LFE11:
 1460              		.size	CyBle_ChangeAdLocalName, .-CyBle_ChangeAdLocalName
 1461              		.section	.text.CyBle_GapSetLocalName,"ax",%progbits
 1462              		.align	2
 1463              		.global	CyBle_GapSetLocalName
 1464              		.code	16
 1465              		.thumb_func
 1466              		.type	CyBle_GapSetLocalName, %function
 1467              	CyBle_GapSetLocalName:
 1468              	.LFB12:
1246:.\Generated_Source\PSoC4/BLE_1.c ****         
1247:.\Generated_Source\PSoC4/BLE_1.c **** #endif /* (CYBLE_GAP_ROLE_PERIPHERAL) */  
1248:.\Generated_Source\PSoC4/BLE_1.c ****     
1249:.\Generated_Source\PSoC4/BLE_1.c ****     
1250:.\Generated_Source\PSoC4/BLE_1.c ****     /******************************************************************************
ARM GAS  C:\Users\Matthew\AppData\Local\Temp\cc2Cvq26.s 			page 49


1251:.\Generated_Source\PSoC4/BLE_1.c ****     * Function Name: CyBle_GapSetLocalName
1252:.\Generated_Source\PSoC4/BLE_1.c ****     ***************************************************************************//**
1253:.\Generated_Source\PSoC4/BLE_1.c ****     *  This API is used to set the local device name - a Characteristic of the 
1254:.\Generated_Source\PSoC4/BLE_1.c ****     *  GAP Service. If the characteristic length entered in the component customizer
1255:.\Generated_Source\PSoC4/BLE_1.c ****     *  is shorter than the string specified by the "name" parameter, the local device
1256:.\Generated_Source\PSoC4/BLE_1.c ****     *  name will be cut to the length specified in the customizer.
1257:.\Generated_Source\PSoC4/BLE_1.c ****     * 
1258:.\Generated_Source\PSoC4/BLE_1.c ****     *  \param name: The local device name string. The name string to be written as
1259:.\Generated_Source\PSoC4/BLE_1.c ****     *              the local device name. It represents a UTF-8 encoded User
1260:.\Generated_Source\PSoC4/BLE_1.c ****     *              Friendly Descriptive Name for the device. The length of the local
1261:.\Generated_Source\PSoC4/BLE_1.c ****     *              device string is entered into the component customizer and it can
1262:.\Generated_Source\PSoC4/BLE_1.c ****     *              be set to a value from 0 to 248 bytes. If the name contained in
1263:.\Generated_Source\PSoC4/BLE_1.c ****     *              the parameter is shorter than the length from the customizer, the
1264:.\Generated_Source\PSoC4/BLE_1.c ****     *              end of the name is indicated by a NULL octet (0x00).
1265:.\Generated_Source\PSoC4/BLE_1.c ****     * 
1266:.\Generated_Source\PSoC4/BLE_1.c ****     * \return
1267:.\Generated_Source\PSoC4/BLE_1.c ****     *  CYBLE_API_RESULT_T : Return value indicates if the function succeeded or 
1268:.\Generated_Source\PSoC4/BLE_1.c ****     *  failed. Following are the possible error codes.
1269:.\Generated_Source\PSoC4/BLE_1.c ****     *
1270:.\Generated_Source\PSoC4/BLE_1.c ****     *   Errors codes                       | Description
1271:.\Generated_Source\PSoC4/BLE_1.c ****     *   ------------                       | -----------
1272:.\Generated_Source\PSoC4/BLE_1.c ****     *   CYBLE_ERROR_OK                     | Function completed successfully.
1273:.\Generated_Source\PSoC4/BLE_1.c ****     *   CYBLE_ERROR_INVALID_PARAMETER      | On specifying NULL as input parameter
1274:.\Generated_Source\PSoC4/BLE_1.c ****     *  
1275:.\Generated_Source\PSoC4/BLE_1.c ****     *******************************************************************************/
1276:.\Generated_Source\PSoC4/BLE_1.c ****     CYBLE_API_RESULT_T CyBle_GapSetLocalName(const char8 name[])
1277:.\Generated_Source\PSoC4/BLE_1.c ****     {
 1469              		.loc 1 1277 0
 1470              		.cfi_startproc
 1471 0000 80B5     		push	{r7, lr}
 1472              		.cfi_def_cfa_offset 8
 1473              		.cfi_offset 7, -8
 1474              		.cfi_offset 14, -4
 1475 0002 86B0     		sub	sp, sp, #24
 1476              		.cfi_def_cfa_offset 32
 1477 0004 00AF     		add	r7, sp, #0
 1478              		.cfi_def_cfa_register 7
 1479 0006 7860     		str	r0, [r7, #4]
1278:.\Generated_Source\PSoC4/BLE_1.c ****         CYBLE_API_RESULT_T apiResult = CYBLE_ERROR_OK;
 1480              		.loc 1 1278 0
 1481 0008 1623     		mov	r3, #22
 1482 000a FB18     		add	r3, r7, r3
 1483 000c 0022     		mov	r2, #0
 1484 000e 1A80     		strh	r2, [r3]
1279:.\Generated_Source\PSoC4/BLE_1.c ****         uint8 i;
1280:.\Generated_Source\PSoC4/BLE_1.c ****         char8 *ptr;
1281:.\Generated_Source\PSoC4/BLE_1.c ****         uint8 charLen;
1282:.\Generated_Source\PSoC4/BLE_1.c **** 
1283:.\Generated_Source\PSoC4/BLE_1.c ****         if(NULL != name)
 1485              		.loc 1 1283 0
 1486 0010 7B68     		ldr	r3, [r7, #4]
 1487 0012 002B     		cmp	r3, #0
 1488 0014 4AD0     		beq	.L74
1284:.\Generated_Source\PSoC4/BLE_1.c ****         {
1285:.\Generated_Source\PSoC4/BLE_1.c ****             /* Get the pointer to the Device Name characteristic  */
1286:.\Generated_Source\PSoC4/BLE_1.c ****             ptr = (char8 *) CYBLE_GATT_DB_ATTR_GET_ATTR_GEN_PTR(CYBLE_GAP_DEVICE_NAME_INDEX + 1u);
 1489              		.loc 1 1286 0
ARM GAS  C:\Users\Matthew\AppData\Local\Temp\cc2Cvq26.s 			page 50


 1490 0016 2B4B     		ldr	r3, .L81
 1491 0018 9B6B     		ldr	r3, [r3, #56]
 1492 001a 5B68     		ldr	r3, [r3, #4]
 1493 001c 3B61     		str	r3, [r7, #16]
1287:.\Generated_Source\PSoC4/BLE_1.c **** 
1288:.\Generated_Source\PSoC4/BLE_1.c ****             /* First need to get the maximum length of the characteristic data in the GATT
1289:.\Generated_Source\PSoC4/BLE_1.c ****                 database to make sure there is enough place for the data. The length
1290:.\Generated_Source\PSoC4/BLE_1.c ****                 can't be longer than 248, so only the LSB of 16 bit of length is to
1291:.\Generated_Source\PSoC4/BLE_1.c ****                 be used. */
1292:.\Generated_Source\PSoC4/BLE_1.c ****             charLen = (uint8)CYBLE_GATT_DB_ATTR_GET_ATTR_GEN_MAX_LEN(CYBLE_GAP_DEVICE_NAME_INDEX + 
 1494              		.loc 1 1292 0
 1495 001e 294B     		ldr	r3, .L81
 1496 0020 9A8E     		ldrh	r2, [r3, #52]
 1497 0022 0F23     		mov	r3, #15
 1498 0024 FB18     		add	r3, r7, r3
 1499 0026 1A70     		strb	r2, [r3]
1293:.\Generated_Source\PSoC4/BLE_1.c **** 
1294:.\Generated_Source\PSoC4/BLE_1.c ****             /* Copy name into characteristic */
1295:.\Generated_Source\PSoC4/BLE_1.c ****             for(i = 0u; ((i < charLen) && (CYBLE_NULL_CHARCTER != name[i])); i++)
 1500              		.loc 1 1295 0
 1501 0028 1523     		mov	r3, #21
 1502 002a FB18     		add	r3, r7, r3
 1503 002c 0022     		mov	r2, #0
 1504 002e 1A70     		strb	r2, [r3]
 1505 0030 12E0     		b	.L75
 1506              	.L77:
1296:.\Generated_Source\PSoC4/BLE_1.c ****             {
1297:.\Generated_Source\PSoC4/BLE_1.c ****                 ptr[i] = name[i];
 1507              		.loc 1 1297 0 discriminator 4
 1508 0032 1523     		mov	r3, #21
 1509 0034 FB18     		add	r3, r7, r3
 1510 0036 1B78     		ldrb	r3, [r3]
 1511 0038 3A69     		ldr	r2, [r7, #16]
 1512 003a D318     		add	r3, r2, r3
 1513 003c 1522     		mov	r2, #21
 1514 003e BA18     		add	r2, r7, r2
 1515 0040 1278     		ldrb	r2, [r2]
 1516 0042 7968     		ldr	r1, [r7, #4]
 1517 0044 8A18     		add	r2, r1, r2
 1518 0046 1278     		ldrb	r2, [r2]
 1519 0048 1A70     		strb	r2, [r3]
1295:.\Generated_Source\PSoC4/BLE_1.c ****             {
 1520              		.loc 1 1295 0 discriminator 4
 1521 004a 1523     		mov	r3, #21
 1522 004c FB18     		add	r3, r7, r3
 1523 004e 1A78     		ldrb	r2, [r3]
 1524 0050 1523     		mov	r3, #21
 1525 0052 FB18     		add	r3, r7, r3
 1526 0054 0132     		add	r2, r2, #1
 1527 0056 1A70     		strb	r2, [r3]
 1528              	.L75:
1295:.\Generated_Source\PSoC4/BLE_1.c ****             {
 1529              		.loc 1 1295 0 is_stmt 0 discriminator 1
 1530 0058 1523     		mov	r3, #21
 1531 005a FA18     		add	r2, r7, r3
 1532 005c 0F23     		mov	r3, #15
 1533 005e FB18     		add	r3, r7, r3
ARM GAS  C:\Users\Matthew\AppData\Local\Temp\cc2Cvq26.s 			page 51


 1534 0060 1278     		ldrb	r2, [r2]
 1535 0062 1B78     		ldrb	r3, [r3]
 1536 0064 9A42     		cmp	r2, r3
 1537 0066 07D2     		bcs	.L76
1295:.\Generated_Source\PSoC4/BLE_1.c ****             {
 1538              		.loc 1 1295 0 discriminator 3
 1539 0068 1523     		mov	r3, #21
 1540 006a FB18     		add	r3, r7, r3
 1541 006c 1B78     		ldrb	r3, [r3]
 1542 006e 7A68     		ldr	r2, [r7, #4]
 1543 0070 D318     		add	r3, r2, r3
 1544 0072 1B78     		ldrb	r3, [r3]
 1545 0074 002B     		cmp	r3, #0
 1546 0076 DCD1     		bne	.L77
 1547              	.L76:
1298:.\Generated_Source\PSoC4/BLE_1.c ****             }
1299:.\Generated_Source\PSoC4/BLE_1.c **** 
1300:.\Generated_Source\PSoC4/BLE_1.c ****             if(i < charLen)
 1548              		.loc 1 1300 0 is_stmt 1
 1549 0078 1523     		mov	r3, #21
 1550 007a FA18     		add	r2, r7, r3
 1551 007c 0F23     		mov	r3, #15
 1552 007e FB18     		add	r3, r7, r3
 1553 0080 1278     		ldrb	r2, [r2]
 1554 0082 1B78     		ldrb	r3, [r3]
 1555 0084 9A42     		cmp	r2, r3
 1556 0086 06D2     		bcs	.L78
1301:.\Generated_Source\PSoC4/BLE_1.c ****             {
1302:.\Generated_Source\PSoC4/BLE_1.c ****                 /* Terminate string */
1303:.\Generated_Source\PSoC4/BLE_1.c ****                 ptr[i] = CYBLE_NULL_CHARCTER;
 1557              		.loc 1 1303 0
 1558 0088 1523     		mov	r3, #21
 1559 008a FB18     		add	r3, r7, r3
 1560 008c 1B78     		ldrb	r3, [r3]
 1561 008e 3A69     		ldr	r2, [r7, #16]
 1562 0090 D318     		add	r3, r2, r3
 1563 0092 0022     		mov	r2, #0
 1564 0094 1A70     		strb	r2, [r3]
 1565              	.L78:
1304:.\Generated_Source\PSoC4/BLE_1.c ****             }
1305:.\Generated_Source\PSoC4/BLE_1.c ****             
1306:.\Generated_Source\PSoC4/BLE_1.c ****             /* Set new actual length */
1307:.\Generated_Source\PSoC4/BLE_1.c ****             
1308:.\Generated_Source\PSoC4/BLE_1.c ****             /* Update device name in advertising and scan response structure */
1309:.\Generated_Source\PSoC4/BLE_1.c ****             #if(CYBLE_GAP_ROLE_PERIPHERAL)
1310:.\Generated_Source\PSoC4/BLE_1.c ****                 CyBle_ChangeAdLocalName(name, 0u);
 1566              		.loc 1 1310 0
 1567 0096 7B68     		ldr	r3, [r7, #4]
 1568 0098 181C     		mov	r0, r3
 1569 009a 0021     		mov	r1, #0
 1570 009c FFF7FEFF 		bl	CyBle_ChangeAdLocalName
1311:.\Generated_Source\PSoC4/BLE_1.c ****                 CyBle_ChangeAdLocalName(name, 1u);
 1571              		.loc 1 1311 0
 1572 00a0 7B68     		ldr	r3, [r7, #4]
 1573 00a2 181C     		mov	r0, r3
 1574 00a4 0121     		mov	r1, #1
 1575 00a6 FFF7FEFF 		bl	CyBle_ChangeAdLocalName
ARM GAS  C:\Users\Matthew\AppData\Local\Temp\cc2Cvq26.s 			page 52


 1576 00aa 03E0     		b	.L79
 1577              	.L74:
1312:.\Generated_Source\PSoC4/BLE_1.c ****             #endif /* (CYBLE_GAP_ROLE_PERIPHERAL) */
1313:.\Generated_Source\PSoC4/BLE_1.c ****         }
1314:.\Generated_Source\PSoC4/BLE_1.c ****         else
1315:.\Generated_Source\PSoC4/BLE_1.c ****         {
1316:.\Generated_Source\PSoC4/BLE_1.c ****             apiResult = CYBLE_ERROR_INVALID_PARAMETER;
 1578              		.loc 1 1316 0
 1579 00ac 1623     		mov	r3, #22
 1580 00ae FB18     		add	r3, r7, r3
 1581 00b0 0122     		mov	r2, #1
 1582 00b2 1A80     		strh	r2, [r3]
 1583              	.L79:
1317:.\Generated_Source\PSoC4/BLE_1.c ****         }
1318:.\Generated_Source\PSoC4/BLE_1.c ****         
1319:.\Generated_Source\PSoC4/BLE_1.c ****         return(apiResult);
 1584              		.loc 1 1319 0
 1585 00b4 1623     		mov	r3, #22
 1586 00b6 FB18     		add	r3, r7, r3
 1587 00b8 1B88     		ldrh	r3, [r3]
1320:.\Generated_Source\PSoC4/BLE_1.c ****     }
 1588              		.loc 1 1320 0
 1589 00ba 181C     		mov	r0, r3
 1590 00bc BD46     		mov	sp, r7
 1591 00be 06B0     		add	sp, sp, #24
 1592              		@ sp needed
 1593 00c0 80BD     		pop	{r7, pc}
 1594              	.L82:
 1595 00c2 C046     		.align	2
 1596              	.L81:
 1597 00c4 00000000 		.word	cyBle_gattDB
 1598              		.cfi_endproc
 1599              	.LFE12:
 1600              		.size	CyBle_GapSetLocalName, .-CyBle_GapSetLocalName
 1601              		.section	.text.CyBle_GapGetLocalName,"ax",%progbits
 1602              		.align	2
 1603              		.global	CyBle_GapGetLocalName
 1604              		.code	16
 1605              		.thumb_func
 1606              		.type	CyBle_GapGetLocalName, %function
 1607              	CyBle_GapGetLocalName:
 1608              	.LFB13:
1321:.\Generated_Source\PSoC4/BLE_1.c **** 
1322:.\Generated_Source\PSoC4/BLE_1.c **** 
1323:.\Generated_Source\PSoC4/BLE_1.c ****     /******************************************************************************
1324:.\Generated_Source\PSoC4/BLE_1.c ****     * Function Name: CyBle_GapGetLocalName
1325:.\Generated_Source\PSoC4/BLE_1.c ****     ***************************************************************************//**
1326:.\Generated_Source\PSoC4/BLE_1.c ****     *  
1327:.\Generated_Source\PSoC4/BLE_1.c ****     *  This API is used to read the local device name - a Characteristic of the 
1328:.\Generated_Source\PSoC4/BLE_1.c ****     *  GAP Service.
1329:.\Generated_Source\PSoC4/BLE_1.c ****     * 
1330:.\Generated_Source\PSoC4/BLE_1.c ****     * \param name: The local device name string. Used to read the local name to the
1331:.\Generated_Source\PSoC4/BLE_1.c ****     *             given string array. It represents a UTF-8 encoded User Friendly 
1332:.\Generated_Source\PSoC4/BLE_1.c ****     *             Descriptive Name for the device. The length of the local device
1333:.\Generated_Source\PSoC4/BLE_1.c ****     *             string is entered into the component customizer and it can be set
1334:.\Generated_Source\PSoC4/BLE_1.c ****     *             to a value from 0 to 248 bytes. If the name contained in the
1335:.\Generated_Source\PSoC4/BLE_1.c ****     *             parameter is shorter than the length from the customizer, the end
ARM GAS  C:\Users\Matthew\AppData\Local\Temp\cc2Cvq26.s 			page 53


1336:.\Generated_Source\PSoC4/BLE_1.c ****     *             of the name is indicated by a NULL octet (0x00).
1337:.\Generated_Source\PSoC4/BLE_1.c ****     * 
1338:.\Generated_Source\PSoC4/BLE_1.c ****     * \return
1339:.\Generated_Source\PSoC4/BLE_1.c ****     *  CYBLE_API_RESULT_T : Return value indicates if the function succeeded or 
1340:.\Generated_Source\PSoC4/BLE_1.c ****     *  failed. Following are the possible error codes.
1341:.\Generated_Source\PSoC4/BLE_1.c ****     *
1342:.\Generated_Source\PSoC4/BLE_1.c ****     *   Errors codes                       | Description
1343:.\Generated_Source\PSoC4/BLE_1.c ****     *   ------------                       | -----------
1344:.\Generated_Source\PSoC4/BLE_1.c ****     *   CYBLE_ERROR_OK                     | Function completed successfully.
1345:.\Generated_Source\PSoC4/BLE_1.c ****     *   CYBLE_ERROR_INVALID_PARAMETER      | On specifying NULL as input parameter
1346:.\Generated_Source\PSoC4/BLE_1.c ****     *
1347:.\Generated_Source\PSoC4/BLE_1.c ****     *******************************************************************************/
1348:.\Generated_Source\PSoC4/BLE_1.c ****     CYBLE_API_RESULT_T CyBle_GapGetLocalName(char8 name[])
1349:.\Generated_Source\PSoC4/BLE_1.c ****     {
 1609              		.loc 1 1349 0
 1610              		.cfi_startproc
 1611 0000 80B5     		push	{r7, lr}
 1612              		.cfi_def_cfa_offset 8
 1613              		.cfi_offset 7, -8
 1614              		.cfi_offset 14, -4
 1615 0002 86B0     		sub	sp, sp, #24
 1616              		.cfi_def_cfa_offset 32
 1617 0004 00AF     		add	r7, sp, #0
 1618              		.cfi_def_cfa_register 7
 1619 0006 7860     		str	r0, [r7, #4]
1350:.\Generated_Source\PSoC4/BLE_1.c ****         CYBLE_API_RESULT_T apiResult = CYBLE_ERROR_OK;
 1620              		.loc 1 1350 0
 1621 0008 1623     		mov	r3, #22
 1622 000a FB18     		add	r3, r7, r3
 1623 000c 0022     		mov	r2, #0
 1624 000e 1A80     		strh	r2, [r3]
1351:.\Generated_Source\PSoC4/BLE_1.c ****         uint8 charLen;
1352:.\Generated_Source\PSoC4/BLE_1.c ****         uint8 i;
1353:.\Generated_Source\PSoC4/BLE_1.c ****         char8 *ptr;
1354:.\Generated_Source\PSoC4/BLE_1.c **** 
1355:.\Generated_Source\PSoC4/BLE_1.c ****         if(NULL != name)
 1625              		.loc 1 1355 0
 1626 0010 7B68     		ldr	r3, [r7, #4]
 1627 0012 002B     		cmp	r3, #0
 1628 0014 39D0     		beq	.L84
1356:.\Generated_Source\PSoC4/BLE_1.c ****         {
1357:.\Generated_Source\PSoC4/BLE_1.c ****             /* Get the pointer to the Device Name characteristic  */
1358:.\Generated_Source\PSoC4/BLE_1.c ****             ptr = (char8 *) CYBLE_GATT_DB_ATTR_GET_ATTR_GEN_PTR(CYBLE_GAP_DEVICE_NAME_INDEX + 1u);
 1629              		.loc 1 1358 0
 1630 0016 224B     		ldr	r3, .L90
 1631 0018 9B6B     		ldr	r3, [r3, #56]
 1632 001a 5B68     		ldr	r3, [r3, #4]
 1633 001c 3B61     		str	r3, [r7, #16]
1359:.\Generated_Source\PSoC4/BLE_1.c **** 
1360:.\Generated_Source\PSoC4/BLE_1.c ****             /* First need to get the length of the characteristic data in the GATT
1361:.\Generated_Source\PSoC4/BLE_1.c ****                 database to make sure there is enough place for the data. The length
1362:.\Generated_Source\PSoC4/BLE_1.c ****                 can't be longer than 248, so only the LSB of 16 bit of length is to
1363:.\Generated_Source\PSoC4/BLE_1.c ****                 be used. */
1364:.\Generated_Source\PSoC4/BLE_1.c ****             charLen = (uint8)CYBLE_GATT_DB_ATTR_GET_ATTR_GEN_LEN(CYBLE_GAP_DEVICE_NAME_INDEX + 1u);
 1634              		.loc 1 1364 0
 1635 001e 204B     		ldr	r3, .L90
 1636 0020 9B6B     		ldr	r3, [r3, #56]
ARM GAS  C:\Users\Matthew\AppData\Local\Temp\cc2Cvq26.s 			page 54


 1637 0022 1A88     		ldrh	r2, [r3]
 1638 0024 0F23     		mov	r3, #15
 1639 0026 FB18     		add	r3, r7, r3
 1640 0028 1A70     		strb	r2, [r3]
1365:.\Generated_Source\PSoC4/BLE_1.c **** 
1366:.\Generated_Source\PSoC4/BLE_1.c ****             /* Copy name from characteristic */
1367:.\Generated_Source\PSoC4/BLE_1.c ****             for(i = 0u; ((i < charLen) && (CYBLE_NULL_CHARCTER != ptr[i])); i++)
 1641              		.loc 1 1367 0
 1642 002a 1523     		mov	r3, #21
 1643 002c FB18     		add	r3, r7, r3
 1644 002e 0022     		mov	r2, #0
 1645 0030 1A70     		strb	r2, [r3]
 1646 0032 12E0     		b	.L85
 1647              	.L87:
1368:.\Generated_Source\PSoC4/BLE_1.c ****             {
1369:.\Generated_Source\PSoC4/BLE_1.c ****                 name[i] = ptr[i];
 1648              		.loc 1 1369 0 discriminator 4
 1649 0034 1523     		mov	r3, #21
 1650 0036 FB18     		add	r3, r7, r3
 1651 0038 1B78     		ldrb	r3, [r3]
 1652 003a 7A68     		ldr	r2, [r7, #4]
 1653 003c D318     		add	r3, r2, r3
 1654 003e 1522     		mov	r2, #21
 1655 0040 BA18     		add	r2, r7, r2
 1656 0042 1278     		ldrb	r2, [r2]
 1657 0044 3969     		ldr	r1, [r7, #16]
 1658 0046 8A18     		add	r2, r1, r2
 1659 0048 1278     		ldrb	r2, [r2]
 1660 004a 1A70     		strb	r2, [r3]
1367:.\Generated_Source\PSoC4/BLE_1.c ****             {
 1661              		.loc 1 1367 0 discriminator 4
 1662 004c 1523     		mov	r3, #21
 1663 004e FB18     		add	r3, r7, r3
 1664 0050 1A78     		ldrb	r2, [r3]
 1665 0052 1523     		mov	r3, #21
 1666 0054 FB18     		add	r3, r7, r3
 1667 0056 0132     		add	r2, r2, #1
 1668 0058 1A70     		strb	r2, [r3]
 1669              	.L85:
1367:.\Generated_Source\PSoC4/BLE_1.c ****             {
 1670              		.loc 1 1367 0 is_stmt 0 discriminator 1
 1671 005a 1523     		mov	r3, #21
 1672 005c FA18     		add	r2, r7, r3
 1673 005e 0F23     		mov	r3, #15
 1674 0060 FB18     		add	r3, r7, r3
 1675 0062 1278     		ldrb	r2, [r2]
 1676 0064 1B78     		ldrb	r3, [r3]
 1677 0066 9A42     		cmp	r2, r3
 1678 0068 07D2     		bcs	.L86
1367:.\Generated_Source\PSoC4/BLE_1.c ****             {
 1679              		.loc 1 1367 0 discriminator 3
 1680 006a 1523     		mov	r3, #21
 1681 006c FB18     		add	r3, r7, r3
 1682 006e 1B78     		ldrb	r3, [r3]
 1683 0070 3A69     		ldr	r2, [r7, #16]
 1684 0072 D318     		add	r3, r2, r3
 1685 0074 1B78     		ldrb	r3, [r3]
ARM GAS  C:\Users\Matthew\AppData\Local\Temp\cc2Cvq26.s 			page 55


 1686 0076 002B     		cmp	r3, #0
 1687 0078 DCD1     		bne	.L87
 1688              	.L86:
1370:.\Generated_Source\PSoC4/BLE_1.c ****             }
1371:.\Generated_Source\PSoC4/BLE_1.c **** 
1372:.\Generated_Source\PSoC4/BLE_1.c ****             /* Terminate string */
1373:.\Generated_Source\PSoC4/BLE_1.c ****             name[i] = CYBLE_NULL_CHARCTER;
 1689              		.loc 1 1373 0 is_stmt 1
 1690 007a 1523     		mov	r3, #21
 1691 007c FB18     		add	r3, r7, r3
 1692 007e 1B78     		ldrb	r3, [r3]
 1693 0080 7A68     		ldr	r2, [r7, #4]
 1694 0082 D318     		add	r3, r2, r3
 1695 0084 0022     		mov	r2, #0
 1696 0086 1A70     		strb	r2, [r3]
 1697 0088 03E0     		b	.L88
 1698              	.L84:
1374:.\Generated_Source\PSoC4/BLE_1.c ****         }
1375:.\Generated_Source\PSoC4/BLE_1.c ****         else
1376:.\Generated_Source\PSoC4/BLE_1.c ****         {
1377:.\Generated_Source\PSoC4/BLE_1.c ****             apiResult = CYBLE_ERROR_INVALID_PARAMETER;
 1699              		.loc 1 1377 0
 1700 008a 1623     		mov	r3, #22
 1701 008c FB18     		add	r3, r7, r3
 1702 008e 0122     		mov	r2, #1
 1703 0090 1A80     		strh	r2, [r3]
 1704              	.L88:
1378:.\Generated_Source\PSoC4/BLE_1.c ****         }
1379:.\Generated_Source\PSoC4/BLE_1.c ****         
1380:.\Generated_Source\PSoC4/BLE_1.c ****         return(apiResult);
 1705              		.loc 1 1380 0
 1706 0092 1623     		mov	r3, #22
 1707 0094 FB18     		add	r3, r7, r3
 1708 0096 1B88     		ldrh	r3, [r3]
1381:.\Generated_Source\PSoC4/BLE_1.c ****     }
 1709              		.loc 1 1381 0
 1710 0098 181C     		mov	r0, r3
 1711 009a BD46     		mov	sp, r7
 1712 009c 06B0     		add	sp, sp, #24
 1713              		@ sp needed
 1714 009e 80BD     		pop	{r7, pc}
 1715              	.L91:
 1716              		.align	2
 1717              	.L90:
 1718 00a0 00000000 		.word	cyBle_gattDB
 1719              		.cfi_endproc
 1720              	.LFE13:
 1721              		.size	CyBle_GapGetLocalName, .-CyBle_GapGetLocalName
 1722              		.section	.text.CyBle_Get16ByPtr,"ax",%progbits
 1723              		.align	2
 1724              		.global	CyBle_Get16ByPtr
 1725              		.code	16
 1726              		.thumb_func
 1727              		.type	CyBle_Get16ByPtr, %function
 1728              	CyBle_Get16ByPtr:
 1729              	.LFB14:
1382:.\Generated_Source\PSoC4/BLE_1.c **** 
ARM GAS  C:\Users\Matthew\AppData\Local\Temp\cc2Cvq26.s 			page 56


1383:.\Generated_Source\PSoC4/BLE_1.c **** #endif /* (CYBLE_GATT_ROLE_SERVER) */
1384:.\Generated_Source\PSoC4/BLE_1.c **** 
1385:.\Generated_Source\PSoC4/BLE_1.c **** 
1386:.\Generated_Source\PSoC4/BLE_1.c **** /******************************************************************************
1387:.\Generated_Source\PSoC4/BLE_1.c **** * Function Name: CyBle_Get16ByPtr
1388:.\Generated_Source\PSoC4/BLE_1.c **** ***************************************************************************//**
1389:.\Generated_Source\PSoC4/BLE_1.c **** * 
1390:.\Generated_Source\PSoC4/BLE_1.c **** *  Returns the two-bytes value by using a pointer to the LSB.
1391:.\Generated_Source\PSoC4/BLE_1.c **** * 
1392:.\Generated_Source\PSoC4/BLE_1.c **** *  \param ptr: Pointer to the LSB of two-bytes data (little endian).
1393:.\Generated_Source\PSoC4/BLE_1.c **** * 
1394:.\Generated_Source\PSoC4/BLE_1.c **** *  \return
1395:.\Generated_Source\PSoC4/BLE_1.c **** *  uint16: Two-bytes data.
1396:.\Generated_Source\PSoC4/BLE_1.c **** * 
1397:.\Generated_Source\PSoC4/BLE_1.c **** ******************************************************************************/
1398:.\Generated_Source\PSoC4/BLE_1.c **** uint16 CyBle_Get16ByPtr(const uint8 ptr[])
1399:.\Generated_Source\PSoC4/BLE_1.c **** {
 1730              		.loc 1 1399 0
 1731              		.cfi_startproc
 1732 0000 80B5     		push	{r7, lr}
 1733              		.cfi_def_cfa_offset 8
 1734              		.cfi_offset 7, -8
 1735              		.cfi_offset 14, -4
 1736 0002 82B0     		sub	sp, sp, #8
 1737              		.cfi_def_cfa_offset 16
 1738 0004 00AF     		add	r7, sp, #0
 1739              		.cfi_def_cfa_register 7
 1740 0006 7860     		str	r0, [r7, #4]
1400:.\Generated_Source\PSoC4/BLE_1.c ****     return ((uint16) ptr[0u] | ((uint16) (((uint16) ptr[1u]) << 8u)));
 1741              		.loc 1 1400 0
 1742 0008 7B68     		ldr	r3, [r7, #4]
 1743 000a 1B78     		ldrb	r3, [r3]
 1744 000c 9AB2     		uxth	r2, r3
 1745 000e 7B68     		ldr	r3, [r7, #4]
 1746 0010 0133     		add	r3, r3, #1
 1747 0012 1B78     		ldrb	r3, [r3]
 1748 0014 9BB2     		uxth	r3, r3
 1749 0016 1B02     		lsl	r3, r3, #8
 1750 0018 9BB2     		uxth	r3, r3
 1751 001a 1343     		orr	r3, r2
 1752 001c 9BB2     		uxth	r3, r3
1401:.\Generated_Source\PSoC4/BLE_1.c **** }
 1753              		.loc 1 1401 0
 1754 001e 181C     		mov	r0, r3
 1755 0020 BD46     		mov	sp, r7
 1756 0022 02B0     		add	sp, sp, #8
 1757              		@ sp needed
 1758 0024 80BD     		pop	{r7, pc}
 1759              		.cfi_endproc
 1760              	.LFE14:
 1761              		.size	CyBle_Get16ByPtr, .-CyBle_Get16ByPtr
 1762 0026 C046     		.section	.text.CyBle_Set16ByPtr,"ax",%progbits
 1763              		.align	2
 1764              		.global	CyBle_Set16ByPtr
 1765              		.code	16
 1766              		.thumb_func
 1767              		.type	CyBle_Set16ByPtr, %function
ARM GAS  C:\Users\Matthew\AppData\Local\Temp\cc2Cvq26.s 			page 57


 1768              	CyBle_Set16ByPtr:
 1769              	.LFB15:
1402:.\Generated_Source\PSoC4/BLE_1.c **** 
1403:.\Generated_Source\PSoC4/BLE_1.c **** 
1404:.\Generated_Source\PSoC4/BLE_1.c **** /******************************************************************************
1405:.\Generated_Source\PSoC4/BLE_1.c **** * Function Name: CyBle_Set16ByPtr
1406:.\Generated_Source\PSoC4/BLE_1.c **** ***************************************************************************//**
1407:.\Generated_Source\PSoC4/BLE_1.c **** * 
1408:.\Generated_Source\PSoC4/BLE_1.c **** *  Sets the two-bytes value by using a pointer to the LSB.
1409:.\Generated_Source\PSoC4/BLE_1.c **** * 
1410:.\Generated_Source\PSoC4/BLE_1.c **** *  \param ptr:    Pointer to the LSB of two-bytes data (little endian).
1411:.\Generated_Source\PSoC4/BLE_1.c **** *  \param value:  Two-bytes data to be written.
1412:.\Generated_Source\PSoC4/BLE_1.c **** * 
1413:.\Generated_Source\PSoC4/BLE_1.c **** *  \return
1414:.\Generated_Source\PSoC4/BLE_1.c **** *  None
1415:.\Generated_Source\PSoC4/BLE_1.c **** * 
1416:.\Generated_Source\PSoC4/BLE_1.c **** ******************************************************************************/
1417:.\Generated_Source\PSoC4/BLE_1.c **** void CyBle_Set16ByPtr(uint8 ptr[], uint16 value)
1418:.\Generated_Source\PSoC4/BLE_1.c **** {
 1770              		.loc 1 1418 0
 1771              		.cfi_startproc
 1772 0000 80B5     		push	{r7, lr}
 1773              		.cfi_def_cfa_offset 8
 1774              		.cfi_offset 7, -8
 1775              		.cfi_offset 14, -4
 1776 0002 82B0     		sub	sp, sp, #8
 1777              		.cfi_def_cfa_offset 16
 1778 0004 00AF     		add	r7, sp, #0
 1779              		.cfi_def_cfa_register 7
 1780 0006 7860     		str	r0, [r7, #4]
 1781 0008 0A1C     		mov	r2, r1
 1782 000a BB1C     		add	r3, r7, #2
 1783 000c 1A80     		strh	r2, [r3]
1419:.\Generated_Source\PSoC4/BLE_1.c ****     ptr[0u] = (uint8) value;
 1784              		.loc 1 1419 0
 1785 000e BB1C     		add	r3, r7, #2
 1786 0010 1B88     		ldrh	r3, [r3]
 1787 0012 DAB2     		uxtb	r2, r3
 1788 0014 7B68     		ldr	r3, [r7, #4]
 1789 0016 1A70     		strb	r2, [r3]
1420:.\Generated_Source\PSoC4/BLE_1.c ****     ptr[1u] = (uint8) (value >> 8u);
 1790              		.loc 1 1420 0
 1791 0018 7B68     		ldr	r3, [r7, #4]
 1792 001a 0133     		add	r3, r3, #1
 1793 001c BA1C     		add	r2, r7, #2
 1794 001e 1288     		ldrh	r2, [r2]
 1795 0020 120A     		lsr	r2, r2, #8
 1796 0022 92B2     		uxth	r2, r2
 1797 0024 D2B2     		uxtb	r2, r2
 1798 0026 1A70     		strb	r2, [r3]
1421:.\Generated_Source\PSoC4/BLE_1.c **** }
 1799              		.loc 1 1421 0
 1800 0028 BD46     		mov	sp, r7
 1801 002a 02B0     		add	sp, sp, #8
 1802              		@ sp needed
 1803 002c 80BD     		pop	{r7, pc}
 1804              		.cfi_endproc
ARM GAS  C:\Users\Matthew\AppData\Local\Temp\cc2Cvq26.s 			page 58


 1805              	.LFE15:
 1806              		.size	CyBle_Set16ByPtr, .-CyBle_Set16ByPtr
 1807 002e C046     		.text
 1808              	.Letext0:
 1809              		.file 2 ".\\Generated_Source\\PSoC4\\cytypes.h"
 1810              		.file 3 ".\\Generated_Source\\PSoC4\\BLE_1_Stack.h"
 1811              		.file 4 ".\\Generated_Source\\PSoC4\\BLE_1_StackGap.h"
 1812              		.file 5 ".\\Generated_Source\\PSoC4\\BLE_1_StackGatt.h"
 1813              		.file 6 ".\\Generated_Source\\PSoC4\\BLE_1_StackGattDb.h"
 1814              		.file 7 ".\\Generated_Source\\PSoC4\\BLE_1.h"
 1815              		.file 8 ".\\Generated_Source\\PSoC4\\BLE_1_gatt.h"
 1816              		.file 9 ".\\Generated_Source\\PSoC4\\BLE_1_eventHandler.h"