ARM GAS  C:\Users\Davit\AppData\Local\Temp\ccKHaXiP.s 			page 1


   1              		.cpu cortex-m0
   2              		.fpu softvfp
   3              		.eabi_attribute 20, 1
   4              		.eabi_attribute 21, 1
   5              		.eabi_attribute 23, 3
   6              		.eabi_attribute 24, 1
   7              		.eabi_attribute 25, 1
   8              		.eabi_attribute 26, 1
   9              		.eabi_attribute 30, 6
  10              		.eabi_attribute 34, 0
  11              		.eabi_attribute 18, 4
  12              		.code	16
  13              		.file	"main.c"
  14              		.text
  15              	.Ltext0:
  16              		.cfi_sections	.debug_frame
  17              		.comm	pulseOximeter,64,8
  18              		.comm	globalBeatDetector,20,4
  19              		.comm	globalIrDCRemover,8,4
  20              		.comm	globalRedDCRemover,8,4
  21              		.comm	globalLpf,8,4
  22              		.comm	globalSpO2calculator,64,4
  23              		.comm	globalHrm,4,4
  24              		.comm	numBeats,4,4
  25              		.global	NOTIFY
  26              		.bss
  27              		.align	2
  28              		.type	NOTIFY, %object
  29              		.size	NOTIFY, 20
  30              	NOTIFY:
  31 0000 00000000 		.space	20
  31      00000000 
  31      00000000 
  31      00000000 
  31      00000000 
  32              		.comm	deviceConnected,1,1
  33              		.comm	restartAdvertisement,1,1
  34              		.comm	busyStatus,1,1
  35              		.comm	whatToDo,1,1
  36              		.comm	started,1,1
  37              		.comm	charCode,4,4
  38              		.comm	connectionHandle,2,4
  39              		.global	tsLastReport
  40              		.align	2
  41              		.type	tsLastReport, %object
  42              		.size	tsLastReport, 4
  43              	tsLastReport:
  44 0014 00000000 		.space	4
  45              		.comm	otherLastReport,4,4
  46              		.global	ACCELEROMETER
  47              		.section	.rodata
  48              		.align	2
  49              		.type	ACCELEROMETER, %object
  50              		.size	ACCELEROMETER, 4
  51              	ACCELEROMETER:
  52 0000 00000000 		.space	4
  53              		.global	BATTERY
ARM GAS  C:\Users\Davit\AppData\Local\Temp\ccKHaXiP.s 			page 2


  54              		.align	2
  55              		.type	BATTERY, %object
  56              		.size	BATTERY, 4
  57              	BATTERY:
  58 0004 01000000 		.word	1
  59              		.global	HEART
  60              		.align	2
  61              		.type	HEART, %object
  62              		.size	HEART, 4
  63              	HEART:
  64 0008 02000000 		.word	2
  65              		.global	OXYGEN
  66              		.align	2
  67              		.type	OXYGEN, %object
  68              		.size	OXYGEN, 4
  69              	OXYGEN:
  70 000c 03000000 		.word	3
  71              		.global	TEMPERATURE
  72              		.align	2
  73              		.type	TEMPERATURE, %object
  74              		.size	TEMPERATURE, 4
  75              	TEMPERATURE:
  76 0010 04000000 		.word	4
  77              		.section	.text.Minute_Handler,"ax",%progbits
  78              		.align	2
  79              		.global	Minute_Handler
  80              		.code	16
  81              		.thumb_func
  82              		.type	Minute_Handler, %function
  83              	Minute_Handler:
  84              	.LFB37:
  85              		.file 1 "main.c"
   1:main.c        **** /* ========================================
   2:main.c        ****  *
   3:main.c        ****  * Copyright YOUR COMPANY, THE YEAR
   4:main.c        ****  * All Rights Reserved
   5:main.c        ****  * UNPUBLISHED, LICENSED SOFTWARE.
   6:main.c        ****  *
   7:main.c        ****  * CONFIDENTIAL AND PROPRIETARY INFORMATION
   8:main.c        ****  * WHICH IS THE PROPERTY OF your company.
   9:main.c        ****  *
  10:main.c        ****  * ========================================
  11:main.c        **** */
  12:main.c        **** #include <project.h>
  13:main.c        **** #include <accelerometer.h>
  14:main.c        **** #include <tempAndBat.h>
  15:main.c        **** #include <MAX30100_All.h>
  16:main.c        **** 
  17:main.c        **** #define REPORTING_PERIOD_MS     1000
  18:main.c        **** 
  19:main.c        **** int NOTIFY[] = {0, 0, 0, 0, 0};
  20:main.c        **** 
  21:main.c        **** uint8 deviceConnected ; 
  22:main.c        **** uint8 restartAdvertisement; 
  23:main.c        **** uint8 busyStatus; 
  24:main.c        **** uint8 whatToDo;
  25:main.c        **** uint8 started;
ARM GAS  C:\Users\Davit\AppData\Local\Temp\ccKHaXiP.s 			page 3


  26:main.c        **** int charCode;
  27:main.c        **** CYBLE_CONN_HANDLE_T connectionHandle; 
  28:main.c        **** 
  29:main.c        **** uint32 tsLastReport = 0;
  30:main.c        **** uint32 otherLastReport; 
  31:main.c        **** 
  32:main.c        **** const int ACCELEROMETER = 0;
  33:main.c        **** const int BATTERY = 1;
  34:main.c        **** const int HEART = 2;
  35:main.c        **** const int OXYGEN = 3;
  36:main.c        **** const int TEMPERATURE = 4;
  37:main.c        **** 
  38:main.c        **** void initBLE();
  39:main.c        **** void StackEventHandler( uint32 eventCode, void *eventParam );
  40:main.c        **** 
  41:main.c        **** CY_ISR(Minute_Handler){
  86              		.loc 1 41 0
  87              		.cfi_startproc
  88 0000 98B5     		push	{r3, r4, r7, lr}
  89              		.cfi_def_cfa_offset 16
  90              		.cfi_offset 3, -16
  91              		.cfi_offset 4, -12
  92              		.cfi_offset 7, -8
  93              		.cfi_offset 14, -4
  94 0002 00AF     		add	r7, sp, #0
  95              		.cfi_def_cfa_register 7
  42:main.c        ****     pulseOximeter.currentMinute++;
  96              		.loc 1 42 0
  97 0004 074B     		ldr	r3, .L2
  98 0006 DC6B     		ldr	r4, [r3, #60]
  99 0008 9B6B     		ldr	r3, [r3, #56]
 100 000a 0121     		mov	r1, #1
 101 000c 0022     		mov	r2, #0
 102 000e 5B18     		add	r3, r3, r1
 103 0010 5441     		adc	r4, r4, r2
 104 0012 044A     		ldr	r2, .L2
 105 0014 9363     		str	r3, [r2, #56]
 106 0016 D463     		str	r4, [r2, #60]
  43:main.c        ****     Timer_minute_ClearInterrupt(Timer_minute_INTR_MASK_TC);
 107              		.loc 1 43 0
 108 0018 0120     		mov	r0, #1
 109 001a FFF7FEFF 		bl	Timer_minute_ClearInterrupt
  44:main.c        **** }
 110              		.loc 1 44 0
 111 001e BD46     		mov	sp, r7
 112              		@ sp needed
 113 0020 98BD     		pop	{r3, r4, r7, pc}
 114              	.L3:
 115 0022 C046     		.align	2
 116              	.L2:
 117 0024 00000000 		.word	pulseOximeter
 118              		.cfi_endproc
 119              	.LFE37:
 120              		.size	Minute_Handler, .-Minute_Handler
 121              		.section	.text.initAll,"ax",%progbits
 122              		.align	2
 123              		.global	initAll
ARM GAS  C:\Users\Davit\AppData\Local\Temp\ccKHaXiP.s 			page 4


 124              		.code	16
 125              		.thumb_func
 126              		.type	initAll, %function
 127              	initAll:
 128              	.LFB38:
  45:main.c        **** 
  46:main.c        **** void initAll(){
 129              		.loc 1 46 0
 130              		.cfi_startproc
 131 0000 80B5     		push	{r7, lr}
 132              		.cfi_def_cfa_offset 8
 133              		.cfi_offset 7, -8
 134              		.cfi_offset 14, -4
 135 0002 00AF     		add	r7, sp, #0
 136              		.cfi_def_cfa_register 7
  47:main.c        ****     initBLE();
 137              		.loc 1 47 0
 138 0004 FFF7FEFF 		bl	initBLE
  48:main.c        ****     I2C_1_Start();
 139              		.loc 1 48 0
 140 0008 FFF7FEFF 		bl	I2C_1_Start
  49:main.c        ****     initAccelControl();
 141              		.loc 1 49 0
 142 000c FFF7FEFF 		bl	initAccelControl
  50:main.c        ****     initTemperatureAndBattery(); 
 143              		.loc 1 50 0
 144 0010 FFF7FEFF 		bl	initTemperatureAndBattery
  51:main.c        ****     
  52:main.c        ****     PulseOximeter_Init();     
 145              		.loc 1 52 0
 146 0014 FFF7FEFF 		bl	PulseOximeter_Init
  53:main.c        ****     PulseOximeter_begin(PULSEOXIMETER_DEBUGGINGMODE_NONE);
 147              		.loc 1 53 0
 148 0018 0020     		mov	r0, #0
 149 001a FFF7FEFF 		bl	PulseOximeter_begin
  54:main.c        **** 
  55:main.c        **** 
  56:main.c        ****     Timer_minute_Start();
 150              		.loc 1 56 0
 151 001e FFF7FEFF 		bl	Timer_minute_Start
  57:main.c        ****     isr_minute_StartEx(Minute_Handler);
 152              		.loc 1 57 0
 153 0022 054B     		ldr	r3, .L5
 154 0024 181C     		mov	r0, r3
 155 0026 FFF7FEFF 		bl	isr_minute_StartEx
  58:main.c        ****     
  59:main.c        ****     ADC_Start();
 156              		.loc 1 59 0
 157 002a FFF7FEFF 		bl	ADC_Start
  60:main.c        ****     ADC_StartConvert();
 158              		.loc 1 60 0
 159 002e FFF7FEFF 		bl	ADC_StartConvert
  61:main.c        **** }
 160              		.loc 1 61 0
 161 0032 BD46     		mov	sp, r7
 162              		@ sp needed
 163 0034 80BD     		pop	{r7, pc}
ARM GAS  C:\Users\Davit\AppData\Local\Temp\ccKHaXiP.s 			page 5


 164              	.L6:
 165 0036 C046     		.align	2
 166              	.L5:
 167 0038 00000000 		.word	Minute_Handler
 168              		.cfi_endproc
 169              	.LFE38:
 170              		.size	initAll, .-initAll
 171              		.section	.text.initBLE,"ax",%progbits
 172              		.align	2
 173              		.global	initBLE
 174              		.code	16
 175              		.thumb_func
 176              		.type	initBLE, %function
 177              	initBLE:
 178              	.LFB39:
  62:main.c        **** 
  63:main.c        **** void initBLE(){
 179              		.loc 1 63 0
 180              		.cfi_startproc
 181 0000 80B5     		push	{r7, lr}
 182              		.cfi_def_cfa_offset 8
 183              		.cfi_offset 7, -8
 184              		.cfi_offset 14, -4
 185 0002 00AF     		add	r7, sp, #0
 186              		.cfi_def_cfa_register 7
  64:main.c        ****     CyBle_Start( StackEventHandler );
 187              		.loc 1 64 0
 188 0004 0A4B     		ldr	r3, .L8
 189 0006 181C     		mov	r0, r3
 190 0008 FFF7FEFF 		bl	CyBle_Start
  65:main.c        ****     deviceConnected = 0; 
 191              		.loc 1 65 0
 192 000c 094B     		ldr	r3, .L8+4
 193 000e 0022     		mov	r2, #0
 194 0010 1A70     		strb	r2, [r3]
  66:main.c        ****     restartAdvertisement = 0 ; 
 195              		.loc 1 66 0
 196 0012 094B     		ldr	r3, .L8+8
 197 0014 0022     		mov	r2, #0
 198 0016 1A70     		strb	r2, [r3]
  67:main.c        ****     busyStatus = 0; 
 199              		.loc 1 67 0
 200 0018 084B     		ldr	r3, .L8+12
 201 001a 0022     		mov	r2, #0
 202 001c 1A70     		strb	r2, [r3]
  68:main.c        ****     whatToDo = 0;
 203              		.loc 1 68 0
 204 001e 084B     		ldr	r3, .L8+16
 205 0020 0022     		mov	r2, #0
 206 0022 1A70     		strb	r2, [r3]
  69:main.c        ****     started = 0;
 207              		.loc 1 69 0
 208 0024 074B     		ldr	r3, .L8+20
 209 0026 0022     		mov	r2, #0
 210 0028 1A70     		strb	r2, [r3]
  70:main.c        **** }
 211              		.loc 1 70 0
ARM GAS  C:\Users\Davit\AppData\Local\Temp\ccKHaXiP.s 			page 6


 212 002a BD46     		mov	sp, r7
 213              		@ sp needed
 214 002c 80BD     		pop	{r7, pc}
 215              	.L9:
 216 002e C046     		.align	2
 217              	.L8:
 218 0030 00000000 		.word	StackEventHandler
 219 0034 00000000 		.word	deviceConnected
 220 0038 00000000 		.word	restartAdvertisement
 221 003c 00000000 		.word	busyStatus
 222 0040 00000000 		.word	whatToDo
 223 0044 00000000 		.word	started
 224              		.cfi_endproc
 225              	.LFE39:
 226              		.size	initBLE, .-initBLE
 227              		.section	.text.StackEventHandler,"ax",%progbits
 228              		.align	2
 229              		.global	StackEventHandler
 230              		.code	16
 231              		.thumb_func
 232              		.type	StackEventHandler, %function
 233              	StackEventHandler:
 234              	.LFB40:
  71:main.c        **** 
  72:main.c        **** void StackEventHandler( uint32 eventCode, void *eventParam )
  73:main.c        **** {
 235              		.loc 1 73 0
 236              		.cfi_startproc
 237 0000 80B5     		push	{r7, lr}
 238              		.cfi_def_cfa_offset 8
 239              		.cfi_offset 7, -8
 240              		.cfi_offset 14, -4
 241 0002 84B0     		sub	sp, sp, #16
 242              		.cfi_def_cfa_offset 24
 243 0004 00AF     		add	r7, sp, #0
 244              		.cfi_def_cfa_register 7
 245 0006 7860     		str	r0, [r7, #4]
 246 0008 3960     		str	r1, [r7]
  74:main.c        ****     CYBLE_GATTS_WRITE_REQ_PARAM_T *wrReqParam;
  75:main.c        ****     
  76:main.c        ****     switch( eventCode ){
 247              		.loc 1 76 0
 248 000a 7B68     		ldr	r3, [r7, #4]
 249 000c 282B     		cmp	r3, #40
 250 000e 0DD0     		beq	.L12
 251 0010 05D8     		bhi	.L13
 252 0012 012B     		cmp	r3, #1
 253 0014 0AD0     		beq	.L12
 254 0016 052B     		cmp	r3, #5
 255 0018 00D1     		bne	.LCB139
 256 001a F6E0     		b	.L14	@long jump
 257              	.LCB139:
 258              	.LBB2:
  77:main.c        ****         case CYBLE_EVT_STACK_ON:       
  78:main.c        ****         case CYBLE_EVT_GAP_DEVICE_DISCONNECTED:            
  79:main.c        ****             CyBle_GappStartAdvertisement(CYBLE_ADVERTISING_FAST);
  80:main.c        ****             deviceConnected = 0;
ARM GAS  C:\Users\Davit\AppData\Local\Temp\ccKHaXiP.s 			page 7


  81:main.c        ****             BAdvertLED_Write(0);
  82:main.c        ****         break;
  83:main.c        **** 
  84:main.c        ****         /* GAP Peripheral events */
  85:main.c        **** 
  86:main.c        **** //        case CYBLE_EVT_GAPP_ADVERTISEMENT_START_STOP:
  87:main.c        **** //            if(CyBle_GetState() == CYBLE_STATE_DISCONNECTED){
  88:main.c        **** //                restartAdvertisement = 0;
  89:main.c        **** //            }
  90:main.c        **** //        break;
  91:main.c        **** 
  92:main.c        ****         /* GATT events */
  93:main.c        **** 
  94:main.c        ****         case CYBLE_EVT_GATT_CONNECT_IND:
  95:main.c        ****             connectionHandle = *(CYBLE_CONN_HANDLE_T*)eventParam;
  96:main.c        ****             deviceConnected = 1; 
  97:main.c        ****             BAdvertLED_Write(1);
  98:main.c        ****             break;
  99:main.c        **** 
 100:main.c        ****         case CYBLE_EVT_GATT_DISCONNECT_IND:
 101:main.c        ****             deviceConnected = 0;
 102:main.c        ****             uint32 i = 0;
 103:main.c        ****             BAdvertLED_Write(0);
 104:main.c        ****             CyBle_GappStartAdvertisement(CYBLE_ADVERTISING_FAST);
 105:main.c        ****             for(; i < sizeof(NOTIFY)/sizeof(int); i++)
 106:main.c        ****                 NOTIFY[i] = 0;
 107:main.c        ****             break;
 108:main.c        ****             
 109:main.c        ****         case CYBLE_EVT_GATTS_WRITE_REQ:				
 110:main.c        **** 			/*When this event is triggered, the peripheral has received 
 111:main.c        **** 			* a write command on the custom characteristic */
 112:main.c        **** 			
 113:main.c        **** 			/* Extract the write value from the event parameter */
 114:main.c        ****             wrReqParam = (CYBLE_GATTS_WRITE_REQ_PARAM_T *) eventParam;
 115:main.c        ****             
 116:main.c        ****             charCode = -1;
 117:main.c        ****             
 118:main.c        ****             switch(wrReqParam->handleValPair.attrHandle){
 119:main.c        ****                 case CYBLE_BIOSNAP_TEMPERATURE_TEMPCCC_DESC_HANDLE:
 120:main.c        ****                     CyBle_GattsWriteAttributeValue(&wrReqParam->handleValPair, 0, &cyBle_connHandle
 121:main.c        ****                     NOTIFY[TEMPERATURE] = wrReqParam->handleValPair.value.val[0] & 0x01; 
 122:main.c        ****                     CyBle_GattsWriteRsp(cyBle_connHandle);
 123:main.c        ****                 break;
 124:main.c        ****                     
 125:main.c        ****                 case CYBLE_BIOSNAP_ACCELEROMETER_ACCELCCC_DESC_HANDLE:
 126:main.c        ****                     CyBle_GattsWriteAttributeValue(&wrReqParam->handleValPair, 0, &cyBle_connHandle
 127:main.c        ****                     NOTIFY[ACCELEROMETER] = wrReqParam->handleValPair.value.val[0] & 0x01; 
 128:main.c        ****                     CyBle_GattsWriteRsp(cyBle_connHandle);
 129:main.c        ****                 break;
 130:main.c        ****                 
 131:main.c        ****                 case CYBLE_BIOSNAP_OXYGEN_OXYGENCCC_DESC_HANDLE:
 132:main.c        ****                     CyBle_GattsWriteAttributeValue(&wrReqParam->handleValPair, 0, &cyBle_connHandle
 133:main.c        ****                     NOTIFY[OXYGEN] = wrReqParam->handleValPair.value.val[0] & 0x01; 
 134:main.c        ****                     CyBle_GattsWriteRsp(cyBle_connHandle);
 135:main.c        ****                 break;
 136:main.c        ****                     
 137:main.c        ****                 case CYBLE_BIOSNAP_HEART_HEARTCCC_DESC_HANDLE:
ARM GAS  C:\Users\Davit\AppData\Local\Temp\ccKHaXiP.s 			page 8


 138:main.c        ****                     CyBle_GattsWriteAttributeValue(&wrReqParam->handleValPair, 0, &cyBle_connHandle
 139:main.c        ****                     NOTIFY[HEART] = wrReqParam->handleValPair.value.val[0] & 0x01; 
 140:main.c        ****                     CyBle_GattsWriteRsp(cyBle_connHandle);
 141:main.c        ****                 break;
 142:main.c        ****                     
 143:main.c        ****                 case CYBLE_BIOSNAP_BATTERY_BATCCC_DESC_HANDLE:
 144:main.c        ****                     CyBle_GattsWriteAttributeValue(&wrReqParam->handleValPair, 0, &cyBle_connHandle
 145:main.c        ****                     NOTIFY[BATTERY] = wrReqParam->handleValPair.value.val[0] & 0x01; 
 146:main.c        ****                     CyBle_GattsWriteRsp(cyBle_connHandle);
 147:main.c        ****                 break;
 148:main.c        ****             }
 149:main.c        ****             break; 
 150:main.c        ****         
 151:main.c        ****         /* default catch-all case */
 152:main.c        ****         case CYBLE_EVT_STACK_BUSY_STATUS:
 153:main.c        ****             busyStatus = *(uint8*) eventParam;
 154:main.c        ****             
 155:main.c        ****         default:
 156:main.c        ****         break;
 259              		.loc 1 156 0
 260 001c FCE0     		b	.L10
 261              	.L13:
 262              	.LBE2:
  76:main.c        ****         case CYBLE_EVT_STACK_ON:       
 263              		.loc 1 76 0
 264 001e 422B     		cmp	r3, #66
 265 0020 1FD0     		beq	.L15
 266 0022 4C2B     		cmp	r3, #76
 267 0024 35D0     		beq	.L16
 268 0026 412B     		cmp	r3, #65
 269 0028 0AD0     		beq	.L17
 270              	.LBB3:
 271              		.loc 1 156 0
 272 002a F5E0     		b	.L10
 273              	.L12:
  79:main.c        ****             deviceConnected = 0;
 274              		.loc 1 79 0
 275 002c 0020     		mov	r0, #0
 276 002e FFF7FEFF 		bl	CyBle_GappStartAdvertisement
  80:main.c        ****             BAdvertLED_Write(0);
 277              		.loc 1 80 0
 278 0032 7B4B     		ldr	r3, .L29
 279 0034 0022     		mov	r2, #0
 280 0036 1A70     		strb	r2, [r3]
  81:main.c        ****         break;
 281              		.loc 1 81 0
 282 0038 0020     		mov	r0, #0
 283 003a FFF7FEFF 		bl	BAdvertLED_Write
  82:main.c        **** 
 284              		.loc 1 82 0
 285 003e EBE0     		b	.L10
 286              	.L17:
  95:main.c        ****             deviceConnected = 1; 
 287              		.loc 1 95 0
 288 0040 784A     		ldr	r2, .L29+4
 289 0042 3B68     		ldr	r3, [r7]
 290 0044 111C     		mov	r1, r2
ARM GAS  C:\Users\Davit\AppData\Local\Temp\ccKHaXiP.s 			page 9


 291 0046 1A1C     		mov	r2, r3
 292 0048 0223     		mov	r3, #2
 293 004a 081C     		mov	r0, r1
 294 004c 111C     		mov	r1, r2
 295 004e 1A1C     		mov	r2, r3
 296 0050 FFF7FEFF 		bl	memcpy
  96:main.c        ****             BAdvertLED_Write(1);
 297              		.loc 1 96 0
 298 0054 724B     		ldr	r3, .L29
 299 0056 0122     		mov	r2, #1
 300 0058 1A70     		strb	r2, [r3]
  97:main.c        ****             break;
 301              		.loc 1 97 0
 302 005a 0120     		mov	r0, #1
 303 005c FFF7FEFF 		bl	BAdvertLED_Write
  98:main.c        **** 
 304              		.loc 1 98 0
 305 0060 DAE0     		b	.L10
 306              	.L15:
 101:main.c        ****             uint32 i = 0;
 307              		.loc 1 101 0
 308 0062 6F4B     		ldr	r3, .L29
 309 0064 0022     		mov	r2, #0
 310 0066 1A70     		strb	r2, [r3]
 102:main.c        ****             BAdvertLED_Write(0);
 311              		.loc 1 102 0
 312 0068 0023     		mov	r3, #0
 313 006a FB60     		str	r3, [r7, #12]
 103:main.c        ****             CyBle_GappStartAdvertisement(CYBLE_ADVERTISING_FAST);
 314              		.loc 1 103 0
 315 006c 0020     		mov	r0, #0
 316 006e FFF7FEFF 		bl	BAdvertLED_Write
 104:main.c        ****             for(; i < sizeof(NOTIFY)/sizeof(int); i++)
 317              		.loc 1 104 0
 318 0072 0020     		mov	r0, #0
 319 0074 FFF7FEFF 		bl	CyBle_GappStartAdvertisement
 105:main.c        ****                 NOTIFY[i] = 0;
 320              		.loc 1 105 0
 321 0078 07E0     		b	.L19
 322              	.L20:
 106:main.c        ****             break;
 323              		.loc 1 106 0 discriminator 2
 324 007a 6B4B     		ldr	r3, .L29+8
 325 007c FA68     		ldr	r2, [r7, #12]
 326 007e 9200     		lsl	r2, r2, #2
 327 0080 0021     		mov	r1, #0
 328 0082 D150     		str	r1, [r2, r3]
 105:main.c        ****                 NOTIFY[i] = 0;
 329              		.loc 1 105 0 discriminator 2
 330 0084 FB68     		ldr	r3, [r7, #12]
 331 0086 0133     		add	r3, r3, #1
 332 0088 FB60     		str	r3, [r7, #12]
 333              	.L19:
 105:main.c        ****                 NOTIFY[i] = 0;
 334              		.loc 1 105 0 is_stmt 0 discriminator 1
 335 008a FB68     		ldr	r3, [r7, #12]
 336 008c 042B     		cmp	r3, #4
ARM GAS  C:\Users\Davit\AppData\Local\Temp\ccKHaXiP.s 			page 10


 337 008e F4D9     		bls	.L20
 107:main.c        ****             
 338              		.loc 1 107 0 is_stmt 1
 339 0090 C2E0     		b	.L10
 340              	.L16:
 114:main.c        ****             
 341              		.loc 1 114 0
 342 0092 3B68     		ldr	r3, [r7]
 343 0094 BB60     		str	r3, [r7, #8]
 116:main.c        ****             
 344              		.loc 1 116 0
 345 0096 654B     		ldr	r3, .L29+12
 346 0098 0122     		mov	r2, #1
 347 009a 5242     		neg	r2, r2
 348 009c 1A60     		str	r2, [r3]
 118:main.c        ****                 case CYBLE_BIOSNAP_TEMPERATURE_TEMPCCC_DESC_HANDLE:
 349              		.loc 1 118 0
 350 009e BB68     		ldr	r3, [r7, #8]
 351 00a0 9B89     		ldrh	r3, [r3, #12]
 352 00a2 113B     		sub	r3, r3, #17
 353 00a4 0C2B     		cmp	r3, #12
 354 00a6 00D9     		bls	.LCB226
 355 00a8 B5E0     		b	.L28	@long jump
 356              	.LCB226:
 357 00aa 9A00     		lsl	r2, r3, #2
 358 00ac 604B     		ldr	r3, .L29+16
 359 00ae D318     		add	r3, r2, r3
 360 00b0 1B68     		ldr	r3, [r3]
 361 00b2 9F46     		mov	pc, r3
 362              		.section	.rodata
 363              		.align	2
 364              	.L23:
 365 0014 F8000000 		.word	.L22
 366 0018 16020000 		.word	.L28
 367 001c 16020000 		.word	.L28
 368 0020 C4010000 		.word	.L24
 369 0024 16020000 		.word	.L28
 370 0028 16020000 		.word	.L28
 371 002c 80010000 		.word	.L25
 372 0030 16020000 		.word	.L28
 373 0034 16020000 		.word	.L28
 374 0038 3C010000 		.word	.L26
 375 003c 16020000 		.word	.L28
 376 0040 16020000 		.word	.L28
 377 0044 B4000000 		.word	.L27
 378              		.section	.text.StackEventHandler
 379              	.L27:
 120:main.c        ****                     NOTIFY[TEMPERATURE] = wrReqParam->handleValPair.value.val[0] & 0x01; 
 380              		.loc 1 120 0
 381 00b4 BB68     		ldr	r3, [r7, #8]
 382 00b6 1A1D     		add	r2, r3, #4
 383 00b8 5E4B     		ldr	r3, .L29+20
 384 00ba 101C     		mov	r0, r2
 385 00bc 0021     		mov	r1, #0
 386 00be 1A1C     		mov	r2, r3
 387 00c0 4023     		mov	r3, #64
 388 00c2 FFF7FEFF 		bl	CyBle_GattsWriteAttributeValue
ARM GAS  C:\Users\Davit\AppData\Local\Temp\ccKHaXiP.s 			page 11


 121:main.c        ****                     CyBle_GattsWriteRsp(cyBle_connHandle);
 389              		.loc 1 121 0
 390 00c6 0422     		mov	r2, #4
 391 00c8 BB68     		ldr	r3, [r7, #8]
 392 00ca 5B68     		ldr	r3, [r3, #4]
 393 00cc 1B78     		ldrb	r3, [r3]
 394 00ce 191C     		mov	r1, r3
 395 00d0 0123     		mov	r3, #1
 396 00d2 1940     		and	r1, r3
 397 00d4 544B     		ldr	r3, .L29+8
 398 00d6 9200     		lsl	r2, r2, #2
 399 00d8 D150     		str	r1, [r2, r3]
 122:main.c        ****                 break;
 400              		.loc 1 122 0
 401 00da 564B     		ldr	r3, .L29+20
 402 00dc 1A78     		ldrb	r2, [r3]
 403 00de 5B78     		ldrb	r3, [r3, #1]
 404 00e0 1B02     		lsl	r3, r3, #8
 405 00e2 1A43     		orr	r2, r3
 406 00e4 0023     		mov	r3, #0
 407 00e6 1204     		lsl	r2, r2, #16
 408 00e8 120C     		lsr	r2, r2, #16
 409 00ea 1B0C     		lsr	r3, r3, #16
 410 00ec 1B04     		lsl	r3, r3, #16
 411 00ee 1343     		orr	r3, r2
 412 00f0 181C     		mov	r0, r3
 413 00f2 FFF7FEFF 		bl	CyBle_GattsWriteRsp
 123:main.c        ****                     
 414              		.loc 1 123 0
 415 00f6 87E0     		b	.L21
 416              	.L22:
 126:main.c        ****                     NOTIFY[ACCELEROMETER] = wrReqParam->handleValPair.value.val[0] & 0x01; 
 417              		.loc 1 126 0
 418 00f8 BB68     		ldr	r3, [r7, #8]
 419 00fa 1A1D     		add	r2, r3, #4
 420 00fc 4D4B     		ldr	r3, .L29+20
 421 00fe 101C     		mov	r0, r2
 422 0100 0021     		mov	r1, #0
 423 0102 1A1C     		mov	r2, r3
 424 0104 4023     		mov	r3, #64
 425 0106 FFF7FEFF 		bl	CyBle_GattsWriteAttributeValue
 127:main.c        ****                     CyBle_GattsWriteRsp(cyBle_connHandle);
 426              		.loc 1 127 0
 427 010a 0022     		mov	r2, #0
 428 010c BB68     		ldr	r3, [r7, #8]
 429 010e 5B68     		ldr	r3, [r3, #4]
 430 0110 1B78     		ldrb	r3, [r3]
 431 0112 191C     		mov	r1, r3
 432 0114 0123     		mov	r3, #1
 433 0116 1940     		and	r1, r3
 434 0118 434B     		ldr	r3, .L29+8
 435 011a 9200     		lsl	r2, r2, #2
 436 011c D150     		str	r1, [r2, r3]
 128:main.c        ****                 break;
 437              		.loc 1 128 0
 438 011e 454B     		ldr	r3, .L29+20
 439 0120 1A78     		ldrb	r2, [r3]
ARM GAS  C:\Users\Davit\AppData\Local\Temp\ccKHaXiP.s 			page 12


 440 0122 5B78     		ldrb	r3, [r3, #1]
 441 0124 1B02     		lsl	r3, r3, #8
 442 0126 1A43     		orr	r2, r3
 443 0128 0023     		mov	r3, #0
 444 012a 1204     		lsl	r2, r2, #16
 445 012c 120C     		lsr	r2, r2, #16
 446 012e 1B0C     		lsr	r3, r3, #16
 447 0130 1B04     		lsl	r3, r3, #16
 448 0132 1343     		orr	r3, r2
 449 0134 181C     		mov	r0, r3
 450 0136 FFF7FEFF 		bl	CyBle_GattsWriteRsp
 129:main.c        ****                 
 451              		.loc 1 129 0
 452 013a 65E0     		b	.L21
 453              	.L26:
 132:main.c        ****                     NOTIFY[OXYGEN] = wrReqParam->handleValPair.value.val[0] & 0x01; 
 454              		.loc 1 132 0
 455 013c BB68     		ldr	r3, [r7, #8]
 456 013e 1A1D     		add	r2, r3, #4
 457 0140 3C4B     		ldr	r3, .L29+20
 458 0142 101C     		mov	r0, r2
 459 0144 0021     		mov	r1, #0
 460 0146 1A1C     		mov	r2, r3
 461 0148 4023     		mov	r3, #64
 462 014a FFF7FEFF 		bl	CyBle_GattsWriteAttributeValue
 133:main.c        ****                     CyBle_GattsWriteRsp(cyBle_connHandle);
 463              		.loc 1 133 0
 464 014e 0322     		mov	r2, #3
 465 0150 BB68     		ldr	r3, [r7, #8]
 466 0152 5B68     		ldr	r3, [r3, #4]
 467 0154 1B78     		ldrb	r3, [r3]
 468 0156 191C     		mov	r1, r3
 469 0158 0123     		mov	r3, #1
 470 015a 1940     		and	r1, r3
 471 015c 324B     		ldr	r3, .L29+8
 472 015e 9200     		lsl	r2, r2, #2
 473 0160 D150     		str	r1, [r2, r3]
 134:main.c        ****                 break;
 474              		.loc 1 134 0
 475 0162 344B     		ldr	r3, .L29+20
 476 0164 1A78     		ldrb	r2, [r3]
 477 0166 5B78     		ldrb	r3, [r3, #1]
 478 0168 1B02     		lsl	r3, r3, #8
 479 016a 1A43     		orr	r2, r3
 480 016c 0023     		mov	r3, #0
 481 016e 1204     		lsl	r2, r2, #16
 482 0170 120C     		lsr	r2, r2, #16
 483 0172 1B0C     		lsr	r3, r3, #16
 484 0174 1B04     		lsl	r3, r3, #16
 485 0176 1343     		orr	r3, r2
 486 0178 181C     		mov	r0, r3
 487 017a FFF7FEFF 		bl	CyBle_GattsWriteRsp
 135:main.c        ****                     
 488              		.loc 1 135 0
 489 017e 43E0     		b	.L21
 490              	.L25:
 138:main.c        ****                     NOTIFY[HEART] = wrReqParam->handleValPair.value.val[0] & 0x01; 
ARM GAS  C:\Users\Davit\AppData\Local\Temp\ccKHaXiP.s 			page 13


 491              		.loc 1 138 0
 492 0180 BB68     		ldr	r3, [r7, #8]
 493 0182 1A1D     		add	r2, r3, #4
 494 0184 2B4B     		ldr	r3, .L29+20
 495 0186 101C     		mov	r0, r2
 496 0188 0021     		mov	r1, #0
 497 018a 1A1C     		mov	r2, r3
 498 018c 4023     		mov	r3, #64
 499 018e FFF7FEFF 		bl	CyBle_GattsWriteAttributeValue
 139:main.c        ****                     CyBle_GattsWriteRsp(cyBle_connHandle);
 500              		.loc 1 139 0
 501 0192 0222     		mov	r2, #2
 502 0194 BB68     		ldr	r3, [r7, #8]
 503 0196 5B68     		ldr	r3, [r3, #4]
 504 0198 1B78     		ldrb	r3, [r3]
 505 019a 191C     		mov	r1, r3
 506 019c 0123     		mov	r3, #1
 507 019e 1940     		and	r1, r3
 508 01a0 214B     		ldr	r3, .L29+8
 509 01a2 9200     		lsl	r2, r2, #2
 510 01a4 D150     		str	r1, [r2, r3]
 140:main.c        ****                 break;
 511              		.loc 1 140 0
 512 01a6 234B     		ldr	r3, .L29+20
 513 01a8 1A78     		ldrb	r2, [r3]
 514 01aa 5B78     		ldrb	r3, [r3, #1]
 515 01ac 1B02     		lsl	r3, r3, #8
 516 01ae 1A43     		orr	r2, r3
 517 01b0 0023     		mov	r3, #0
 518 01b2 1204     		lsl	r2, r2, #16
 519 01b4 120C     		lsr	r2, r2, #16
 520 01b6 1B0C     		lsr	r3, r3, #16
 521 01b8 1B04     		lsl	r3, r3, #16
 522 01ba 1343     		orr	r3, r2
 523 01bc 181C     		mov	r0, r3
 524 01be FFF7FEFF 		bl	CyBle_GattsWriteRsp
 141:main.c        ****                     
 525              		.loc 1 141 0
 526 01c2 21E0     		b	.L21
 527              	.L24:
 144:main.c        ****                     NOTIFY[BATTERY] = wrReqParam->handleValPair.value.val[0] & 0x01; 
 528              		.loc 1 144 0
 529 01c4 BB68     		ldr	r3, [r7, #8]
 530 01c6 1A1D     		add	r2, r3, #4
 531 01c8 1A4B     		ldr	r3, .L29+20
 532 01ca 101C     		mov	r0, r2
 533 01cc 0021     		mov	r1, #0
 534 01ce 1A1C     		mov	r2, r3
 535 01d0 4023     		mov	r3, #64
 536 01d2 FFF7FEFF 		bl	CyBle_GattsWriteAttributeValue
 145:main.c        ****                     CyBle_GattsWriteRsp(cyBle_connHandle);
 537              		.loc 1 145 0
 538 01d6 0122     		mov	r2, #1
 539 01d8 BB68     		ldr	r3, [r7, #8]
 540 01da 5B68     		ldr	r3, [r3, #4]
 541 01dc 1B78     		ldrb	r3, [r3]
 542 01de 191C     		mov	r1, r3
ARM GAS  C:\Users\Davit\AppData\Local\Temp\ccKHaXiP.s 			page 14


 543 01e0 0123     		mov	r3, #1
 544 01e2 1940     		and	r1, r3
 545 01e4 104B     		ldr	r3, .L29+8
 546 01e6 9200     		lsl	r2, r2, #2
 547 01e8 D150     		str	r1, [r2, r3]
 146:main.c        ****                 break;
 548              		.loc 1 146 0
 549 01ea 124B     		ldr	r3, .L29+20
 550 01ec 1A78     		ldrb	r2, [r3]
 551 01ee 5B78     		ldrb	r3, [r3, #1]
 552 01f0 1B02     		lsl	r3, r3, #8
 553 01f2 1A43     		orr	r2, r3
 554 01f4 0023     		mov	r3, #0
 555 01f6 1204     		lsl	r2, r2, #16
 556 01f8 120C     		lsr	r2, r2, #16
 557 01fa 1B0C     		lsr	r3, r3, #16
 558 01fc 1B04     		lsl	r3, r3, #16
 559 01fe 1343     		orr	r3, r2
 560 0200 181C     		mov	r0, r3
 561 0202 FFF7FEFF 		bl	CyBle_GattsWriteRsp
 147:main.c        ****             }
 562              		.loc 1 147 0
 563 0206 C046     		mov	r8, r8
 564              	.L21:
 149:main.c        ****         
 565              		.loc 1 149 0
 566 0208 05E0     		b	.L28
 567              	.L14:
 153:main.c        ****             
 568              		.loc 1 153 0
 569 020a 3B68     		ldr	r3, [r7]
 570 020c 1A78     		ldrb	r2, [r3]
 571 020e 0A4B     		ldr	r3, .L29+24
 572 0210 1A70     		strb	r2, [r3]
 573              		.loc 1 156 0
 574 0212 C046     		mov	r8, r8
 575 0214 00E0     		b	.L10
 576              	.L28:
 149:main.c        ****         
 577              		.loc 1 149 0
 578 0216 C046     		mov	r8, r8
 579              	.L10:
 580              	.LBE3:
 157:main.c        ****         
 158:main.c        ****     }
 159:main.c        **** }
 581              		.loc 1 159 0
 582 0218 BD46     		mov	sp, r7
 583 021a 04B0     		add	sp, sp, #16
 584              		@ sp needed
 585 021c 80BD     		pop	{r7, pc}
 586              	.L30:
 587 021e C046     		.align	2
 588              	.L29:
 589 0220 00000000 		.word	deviceConnected
 590 0224 00000000 		.word	connectionHandle
 591 0228 00000000 		.word	NOTIFY
ARM GAS  C:\Users\Davit\AppData\Local\Temp\ccKHaXiP.s 			page 15


 592 022c 00000000 		.word	charCode
 593 0230 14000000 		.word	.L23
 594 0234 00000000 		.word	cyBle_connHandle
 595 0238 00000000 		.word	busyStatus
 596              		.cfi_endproc
 597              	.LFE40:
 598              		.size	StackEventHandler, .-StackEventHandler
 599              		.section	.text.updateCharacteristic,"ax",%progbits
 600              		.align	2
 601              		.global	updateCharacteristic
 602              		.code	16
 603              		.thumb_func
 604              		.type	updateCharacteristic, %function
 605              	updateCharacteristic:
 606              	.LFB41:
 160:main.c        **** 
 161:main.c        **** void updateCharacteristic(int charCode, int charHandle, uint32 value){
 607              		.loc 1 161 0
 608              		.cfi_startproc
 609 0000 80B5     		push	{r7, lr}
 610              		.cfi_def_cfa_offset 8
 611              		.cfi_offset 7, -8
 612              		.cfi_offset 14, -4
 613 0002 88B0     		sub	sp, sp, #32
 614              		.cfi_def_cfa_offset 40
 615 0004 00AF     		add	r7, sp, #0
 616              		.cfi_def_cfa_register 7
 617 0006 F860     		str	r0, [r7, #12]
 618 0008 B960     		str	r1, [r7, #8]
 619 000a 7A60     		str	r2, [r7, #4]
 162:main.c        ****     if(CyBle_GetState() != CYBLE_STATE_CONNECTED)
 620              		.loc 1 162 0
 621 000c 1D4B     		ldr	r3, .L35
 622 000e 1B78     		ldrb	r3, [r3]
 623 0010 022B     		cmp	r3, #2
 624 0012 33D1     		bne	.L31
 163:main.c        ****         return;
 164:main.c        ****    
 165:main.c        ****     CYBLE_GATT_HANDLE_VALUE_PAIR_T CCCDHandle; 
 166:main.c        **** 
 167:main.c        ****     CCCDHandle.attrHandle = charHandle;
 625              		.loc 1 167 0
 626 0014 BB68     		ldr	r3, [r7, #8]
 627 0016 9AB2     		uxth	r2, r3
 628 0018 1423     		mov	r3, #20
 629 001a FB18     		add	r3, r7, r3
 630 001c 1A81     		strh	r2, [r3, #8]
 168:main.c        ****     CCCDHandle.value.val = (uint8 *)&value;
 631              		.loc 1 168 0
 632 001e 1423     		mov	r3, #20
 633 0020 FB18     		add	r3, r7, r3
 634 0022 3A1D     		add	r2, r7, #4
 635 0024 1A60     		str	r2, [r3]
 169:main.c        ****     CCCDHandle.value.len = 4;
 636              		.loc 1 169 0
 637 0026 1423     		mov	r3, #20
 638 0028 FB18     		add	r3, r7, r3
ARM GAS  C:\Users\Davit\AppData\Local\Temp\ccKHaXiP.s 			page 16


 639 002a 0422     		mov	r2, #4
 640 002c 9A80     		strh	r2, [r3, #4]
 170:main.c        ****     
 171:main.c        ****     CyBle_GattsWriteAttributeValue(&CCCDHandle, 0, &cyBle_connHandle, CYBLE_GATT_DB_LOCALLY_INITIAT
 641              		.loc 1 171 0
 642 002e 1423     		mov	r3, #20
 643 0030 FA18     		add	r2, r7, r3
 644 0032 154B     		ldr	r3, .L35+4
 645 0034 101C     		mov	r0, r2
 646 0036 0021     		mov	r1, #0
 647 0038 1A1C     		mov	r2, r3
 648 003a 0023     		mov	r3, #0
 649 003c FFF7FEFF 		bl	CyBle_GattsWriteAttributeValue
 172:main.c        ****     CyBle_GattsReadAttributeValue(&CCCDHandle, &cyBle_connHandle, CYBLE_GATT_DB_LOCALLY_INITIATED);
 650              		.loc 1 172 0
 651 0040 1423     		mov	r3, #20
 652 0042 FA18     		add	r2, r7, r3
 653 0044 104B     		ldr	r3, .L35+4
 654 0046 101C     		mov	r0, r2
 655 0048 191C     		mov	r1, r3
 656 004a 0022     		mov	r2, #0
 657 004c FFF7FEFF 		bl	CyBle_GattsReadAttributeValue
 173:main.c        ****    
 174:main.c        ****     if(NOTIFY[charCode])
 658              		.loc 1 174 0
 659 0050 0E4B     		ldr	r3, .L35+8
 660 0052 FA68     		ldr	r2, [r7, #12]
 661 0054 9200     		lsl	r2, r2, #2
 662 0056 D358     		ldr	r3, [r2, r3]
 663 0058 002B     		cmp	r3, #0
 664 005a 0FD0     		beq	.L31
 175:main.c        ****         CyBle_GattsNotification(cyBle_connHandle, &CCCDHandle);
 665              		.loc 1 175 0
 666 005c 0A4B     		ldr	r3, .L35+4
 667 005e 1422     		mov	r2, #20
 668 0060 B918     		add	r1, r7, r2
 669 0062 1A78     		ldrb	r2, [r3]
 670 0064 5B78     		ldrb	r3, [r3, #1]
 671 0066 1B02     		lsl	r3, r3, #8
 672 0068 1A43     		orr	r2, r3
 673 006a 0023     		mov	r3, #0
 674 006c 1204     		lsl	r2, r2, #16
 675 006e 120C     		lsr	r2, r2, #16
 676 0070 1B0C     		lsr	r3, r3, #16
 677 0072 1B04     		lsl	r3, r3, #16
 678 0074 1343     		orr	r3, r2
 679 0076 181C     		mov	r0, r3
 680 0078 FFF7FEFF 		bl	CyBle_GattsNotification
 681              	.L31:
 176:main.c        **** }
 682              		.loc 1 176 0
 683 007c BD46     		mov	sp, r7
 684 007e 08B0     		add	sp, sp, #32
 685              		@ sp needed
 686 0080 80BD     		pop	{r7, pc}
 687              	.L36:
 688 0082 C046     		.align	2
ARM GAS  C:\Users\Davit\AppData\Local\Temp\ccKHaXiP.s 			page 17


 689              	.L35:
 690 0084 00000000 		.word	cyBle_state
 691 0088 00000000 		.word	cyBle_connHandle
 692 008c 00000000 		.word	NOTIFY
 693              		.cfi_endproc
 694              	.LFE41:
 695              		.size	updateCharacteristic, .-updateCharacteristic
 696              		.global	__aeabi_f2uiz
 697              		.section	.text.main,"ax",%progbits
 698              		.align	2
 699              		.global	main
 700              		.code	16
 701              		.thumb_func
 702              		.type	main, %function
 703              	main:
 704              	.LFB42:
 177:main.c        **** 
 178:main.c        **** //uint32 reverseUint32(uint32 num){
 179:main.c        **** //    return ((0xFF000000 & num) >> 24) | ((0x00FF0000 & num) >> 8) | ((0x0000FF00 & num) << 8) | (
 180:main.c        **** //}
 181:main.c        **** 
 182:main.c        **** int main()
 183:main.c        **** {
 705              		.loc 1 183 0
 706              		.cfi_startproc
 707 0000 80B5     		push	{r7, lr}
 708              		.cfi_def_cfa_offset 8
 709              		.cfi_offset 7, -8
 710              		.cfi_offset 14, -4
 711 0002 86B0     		sub	sp, sp, #24
 712              		.cfi_def_cfa_offset 32
 713 0004 00AF     		add	r7, sp, #0
 714              		.cfi_def_cfa_register 7
 184:main.c        ****     CyGlobalIntEnable; /* Enable global interrupts. */
 715              		.loc 1 184 0
 716              	@ 184 "main.c" 1
 717 0006 62B6     		CPSIE   i
 718              	@ 0 "" 2
 185:main.c        ****     initAll();
 719              		.loc 1 185 0
 720              		.code	16
 721 0008 FFF7FEFF 		bl	initAll
 186:main.c        ****     
 187:main.c        ****     uint32 accel = 0;
 722              		.loc 1 187 0
 723 000c 0023     		mov	r3, #0
 724 000e 7B61     		str	r3, [r7, #20]
 188:main.c        ****     uint32 heart = 0;
 725              		.loc 1 188 0
 726 0010 0023     		mov	r3, #0
 727 0012 3B61     		str	r3, [r7, #16]
 189:main.c        ****     uint32 oxygen = 0;
 728              		.loc 1 189 0
 729 0014 0023     		mov	r3, #0
 730 0016 FB60     		str	r3, [r7, #12]
 190:main.c        ****     uint32 temp = 0;
 731              		.loc 1 190 0
ARM GAS  C:\Users\Davit\AppData\Local\Temp\ccKHaXiP.s 			page 18


 732 0018 0023     		mov	r3, #0
 733 001a BB60     		str	r3, [r7, #8]
 191:main.c        ****     uint32 bat = 0;
 734              		.loc 1 191 0
 735 001c 0023     		mov	r3, #0
 736 001e 7B60     		str	r3, [r7, #4]
 192:main.c        ****     
 193:main.c        ****     long elapsed = 0;
 737              		.loc 1 193 0
 738 0020 0023     		mov	r3, #0
 739 0022 3B60     		str	r3, [r7]
 740              	.L40:
 194:main.c        ****     
 195:main.c        ****     for(;;){
 196:main.c        ****         
 197:main.c        ****         CyBle_ProcessEvents();
 741              		.loc 1 197 0
 742 0024 FFF7FEFF 		bl	CyBle_ProcessEvents
 198:main.c        ****         
 199:main.c        ****         if(deviceConnected && busyStatus == CYBLE_STACK_STATE_FREE){
 743              		.loc 1 199 0
 744 0028 334B     		ldr	r3, .L41
 745 002a 1B78     		ldrb	r3, [r3]
 746 002c 002B     		cmp	r3, #0
 747 002e 62D0     		beq	.L38
 748              		.loc 1 199 0 is_stmt 0 discriminator 1
 749 0030 324B     		ldr	r3, .L41+4
 750 0032 1B78     		ldrb	r3, [r3]
 751 0034 002B     		cmp	r3, #0
 752 0036 5ED1     		bne	.L38
 200:main.c        ****             PulseOximeter_update();
 753              		.loc 1 200 0 is_stmt 1
 754 0038 FFF7FEFF 		bl	PulseOximeter_update
 201:main.c        ****             elapsed = millis() - tsLastReport;
 755              		.loc 1 201 0
 756 003c FFF7FEFF 		bl	millis
 757 0040 031C     		mov	r3, r0
 758 0042 1A1C     		mov	r2, r3
 759 0044 2E4B     		ldr	r3, .L41+8
 760 0046 1B68     		ldr	r3, [r3]
 761 0048 D31A     		sub	r3, r2, r3
 762 004a 3B60     		str	r3, [r7]
 202:main.c        ****             
 203:main.c        ****             if(millis() - otherLastReport > 100){
 763              		.loc 1 203 0
 764 004c FFF7FEFF 		bl	millis
 765 0050 031C     		mov	r3, r0
 766 0052 1A1C     		mov	r2, r3
 767 0054 2B4B     		ldr	r3, .L41+12
 768 0056 1B68     		ldr	r3, [r3]
 769 0058 D31A     		sub	r3, r2, r3
 770 005a 642B     		cmp	r3, #100
 771 005c 26D9     		bls	.L39
 204:main.c        ****                 temp = getTemperature();
 772              		.loc 1 204 0
 773 005e FFF7FEFF 		bl	getTemperature
 774 0062 031C     		mov	r3, r0
ARM GAS  C:\Users\Davit\AppData\Local\Temp\ccKHaXiP.s 			page 19


 775 0064 BB60     		str	r3, [r7, #8]
 205:main.c        ****                 updateCharacteristic(TEMPERATURE, CYBLE_BIOSNAP_TEMPERATURE_CHAR_HANDLE, temp);
 776              		.loc 1 205 0
 777 0066 0422     		mov	r2, #4
 778 0068 BB68     		ldr	r3, [r7, #8]
 779 006a 101C     		mov	r0, r2
 780 006c 1C21     		mov	r1, #28
 781 006e 1A1C     		mov	r2, r3
 782 0070 FFF7FEFF 		bl	updateCharacteristic
 206:main.c        ****             
 207:main.c        ****                 accel = getAccelXYZ();
 783              		.loc 1 207 0
 784 0074 FFF7FEFF 		bl	getAccelXYZ
 785 0078 031C     		mov	r3, r0
 786 007a 7B61     		str	r3, [r7, #20]
 208:main.c        ****                 updateCharacteristic(ACCELEROMETER, CYBLE_BIOSNAP_ACCELEROMETER_CHAR_HANDLE, accel)
 787              		.loc 1 208 0
 788 007c 0022     		mov	r2, #0
 789 007e 7B69     		ldr	r3, [r7, #20]
 790 0080 101C     		mov	r0, r2
 791 0082 1021     		mov	r1, #16
 792 0084 1A1C     		mov	r2, r3
 793 0086 FFF7FEFF 		bl	updateCharacteristic
 209:main.c        ****                 
 210:main.c        ****                 bat = getBattery();
 794              		.loc 1 210 0
 795 008a FFF7FEFF 		bl	getBattery
 796 008e 031C     		mov	r3, r0
 797 0090 7B60     		str	r3, [r7, #4]
 211:main.c        ****                 updateCharacteristic(BATTERY, CYBLE_BIOSNAP_BATTERY_CHAR_HANDLE, bat);
 798              		.loc 1 211 0
 799 0092 0122     		mov	r2, #1
 800 0094 7B68     		ldr	r3, [r7, #4]
 801 0096 101C     		mov	r0, r2
 802 0098 1321     		mov	r1, #19
 803 009a 1A1C     		mov	r2, r3
 804 009c FFF7FEFF 		bl	updateCharacteristic
 212:main.c        ****                 
 213:main.c        ****                 otherLastReport = millis();
 805              		.loc 1 213 0
 806 00a0 FFF7FEFF 		bl	millis
 807 00a4 031C     		mov	r3, r0
 808 00a6 1A1C     		mov	r2, r3
 809 00a8 164B     		ldr	r3, .L41+12
 810 00aa 1A60     		str	r2, [r3]
 811              	.L39:
 214:main.c        ****             }
 215:main.c        ****             if (elapsed > REPORTING_PERIOD_MS) {
 812              		.loc 1 215 0
 813 00ac 3A68     		ldr	r2, [r7]
 814 00ae FA23     		mov	r3, #250
 815 00b0 9B00     		lsl	r3, r3, #2
 816 00b2 9A42     		cmp	r2, r3
 817 00b4 1FDD     		ble	.L38
 216:main.c        ****                 oxygen = (uint32)(PulseOximeter_getSpO2());
 818              		.loc 1 216 0
 819 00b6 FFF7FEFF 		bl	PulseOximeter_getSpO2
ARM GAS  C:\Users\Davit\AppData\Local\Temp\ccKHaXiP.s 			page 20


 820 00ba 031C     		mov	r3, r0
 821 00bc FB60     		str	r3, [r7, #12]
 217:main.c        ****                 heart = (uint32)(PulseOximeter_getHeartRate());
 822              		.loc 1 217 0
 823 00be FFF7FEFF 		bl	PulseOximeter_getHeartRate
 824 00c2 031C     		add	r3, r0, #0
 825 00c4 181C     		add	r0, r3, #0
 826 00c6 FFF7FEFF 		bl	__aeabi_f2uiz
 827 00ca 031C     		mov	r3, r0
 828 00cc 3B61     		str	r3, [r7, #16]
 218:main.c        ****                 updateCharacteristic(HEART, CYBLE_BIOSNAP_HEART_CHAR_HANDLE, heart);
 829              		.loc 1 218 0
 830 00ce 0222     		mov	r2, #2
 831 00d0 3B69     		ldr	r3, [r7, #16]
 832 00d2 101C     		mov	r0, r2
 833 00d4 1621     		mov	r1, #22
 834 00d6 1A1C     		mov	r2, r3
 835 00d8 FFF7FEFF 		bl	updateCharacteristic
 219:main.c        ****                 updateCharacteristic(OXYGEN, CYBLE_BIOSNAP_OXYGEN_CHAR_HANDLE, oxygen);
 836              		.loc 1 219 0
 837 00dc 0322     		mov	r2, #3
 838 00de FB68     		ldr	r3, [r7, #12]
 839 00e0 101C     		mov	r0, r2
 840 00e2 1921     		mov	r1, #25
 841 00e4 1A1C     		mov	r2, r3
 842 00e6 FFF7FEFF 		bl	updateCharacteristic
 220:main.c        ****                 
 221:main.c        ****                 tsLastReport = millis();
 843              		.loc 1 221 0
 844 00ea FFF7FEFF 		bl	millis
 845 00ee 031C     		mov	r3, r0
 846 00f0 1A1C     		mov	r2, r3
 847 00f2 034B     		ldr	r3, .L41+8
 848 00f4 1A60     		str	r2, [r3]
 849              	.L38:
 222:main.c        ****             }
 223:main.c        **** 
 224:main.c        ****             
 225:main.c        ****         }
 226:main.c        **** //        CyDelay(10);
 227:main.c        ****     }
 850              		.loc 1 227 0
 851 00f6 95E7     		b	.L40
 852              	.L42:
 853              		.align	2
 854              	.L41:
 855 00f8 00000000 		.word	deviceConnected
 856 00fc 00000000 		.word	busyStatus
 857 0100 00000000 		.word	tsLastReport
 858 0104 00000000 		.word	otherLastReport
 859              		.cfi_endproc
 860              	.LFE42:
 861              		.size	main, .-main
 862              		.text
 863              	.Letext0:
 864              		.file 2 "c:\\program files (x86)\\cypress\\psoc creator\\4.0\\psoc creator\\import\\gnu\\arm\\4.9.
 865              		.file 3 "c:\\program files (x86)\\cypress\\psoc creator\\4.0\\psoc creator\\import\\gnu\\arm\\4.9.
ARM GAS  C:\Users\Davit\AppData\Local\Temp\ccKHaXiP.s 			page 21


 866              		.file 4 "Generated_Source\\PSoC4/cytypes.h"
 867              		.file 5 "Generated_Source\\PSoC4/BLE_1_StackGatt.h"
 868              		.file 6 "Generated_Source\\PSoC4/BLE_1_StackGattServer.h"
 869              		.file 7 "Generated_Source\\PSoC4/BLE_1_Stack.h"
 870              		.file 8 "Generated_Source\\PSoC4/BLE_1_eventHandler.h"
 871              		.file 9 "./MAX30100_All.h"