ARM GAS  C:\Users\Davit\AppData\Local\Temp\cc4XR0T4.s 			page 1


   1              		.cpu cortex-m0
   2              		.fpu softvfp
   3              		.eabi_attribute 20, 1
   4              		.eabi_attribute 21, 1
   5              		.eabi_attribute 23, 3
   6              		.eabi_attribute 24, 1
   7              		.eabi_attribute 25, 1
   8              		.eabi_attribute 26, 1
   9              		.eabi_attribute 30, 6
  10              		.eabi_attribute 34, 0
  11              		.eabi_attribute 18, 4
  12              		.code	16
  13              		.file	"MAX30100_All.c"
  14              		.text
  15              	.Ltext0:
  16              		.cfi_sections	.debug_frame
  17              		.comm	pulseOximeter,64,8
  18              		.comm	globalBeatDetector,20,4
  19              		.comm	globalIrDCRemover,8,4
  20              		.comm	globalRedDCRemover,8,4
  21              		.comm	globalLpf,8,4
  22              		.comm	globalSpO2calculator,64,4
  23              		.comm	globalHrm,4,4
  24              		.comm	numBeats,4,4
  25              		.global	__aeabi_dcmplt
  26              		.section	.text.min,"ax",%progbits
  27              		.align	2
  28              		.global	min
  29              		.code	16
  30              		.thumb_func
  31              		.type	min, %function
  32              	min:
  33              	.LFB37:
  34              		.file 1 "MAX30100_All.c"
   1:MAX30100_All.c **** #include <MAX30100_All.h>
   2:MAX30100_All.c **** 
   3:MAX30100_All.c **** double min(double a, double b) {
  35              		.loc 1 3 0
  36              		.cfi_startproc
  37 0000 90B5     		push	{r4, r7, lr}
  38              		.cfi_def_cfa_offset 12
  39              		.cfi_offset 4, -12
  40              		.cfi_offset 7, -8
  41              		.cfi_offset 14, -4
  42 0002 85B0     		sub	sp, sp, #20
  43              		.cfi_def_cfa_offset 32
  44 0004 00AF     		add	r7, sp, #0
  45              		.cfi_def_cfa_register 7
  46 0006 B860     		str	r0, [r7, #8]
  47 0008 F960     		str	r1, [r7, #12]
  48 000a 3A60     		str	r2, [r7]
  49 000c 7B60     		str	r3, [r7, #4]
   4:MAX30100_All.c ****     return a<b ? a : b;
  50              		.loc 1 4 0
  51 000e B868     		ldr	r0, [r7, #8]
  52 0010 F968     		ldr	r1, [r7, #12]
  53 0012 3A68     		ldr	r2, [r7]
ARM GAS  C:\Users\Davit\AppData\Local\Temp\cc4XR0T4.s 			page 2


  54 0014 7B68     		ldr	r3, [r7, #4]
  55 0016 FFF7FEFF 		bl	__aeabi_dcmplt
  56 001a 031E     		sub	r3, r0, #0
  57 001c 02D0     		beq	.L7
  58              		.loc 1 4 0 is_stmt 0 discriminator 1
  59 001e BB68     		ldr	r3, [r7, #8]
  60 0020 FC68     		ldr	r4, [r7, #12]
  61 0022 01E0     		b	.L4
  62              	.L7:
  63              		.loc 1 4 0 discriminator 2
  64 0024 3B68     		ldr	r3, [r7]
  65 0026 7C68     		ldr	r4, [r7, #4]
  66              	.L4:
   5:MAX30100_All.c **** }
  67              		.loc 1 5 0 is_stmt 1 discriminator 4
  68 0028 181C     		mov	r0, r3
  69 002a 211C     		mov	r1, r4
  70 002c BD46     		mov	sp, r7
  71 002e 05B0     		add	sp, sp, #20
  72              		@ sp needed
  73 0030 90BD     		pop	{r4, r7, pc}
  74              		.cfi_endproc
  75              	.LFE37:
  76              		.size	min, .-min
  77 0032 C046     		.section	.text.BeatDetector_Init,"ax",%progbits
  78              		.align	2
  79              		.global	BeatDetector_Init
  80              		.code	16
  81              		.thumb_func
  82              		.type	BeatDetector_Init, %function
  83              	BeatDetector_Init:
  84              	.LFB38:
   6:MAX30100_All.c **** 
   7:MAX30100_All.c **** void BeatDetector_Init(){ 
  85              		.loc 1 7 0
  86              		.cfi_startproc
  87 0000 80B5     		push	{r7, lr}
  88              		.cfi_def_cfa_offset 8
  89              		.cfi_offset 7, -8
  90              		.cfi_offset 14, -4
  91 0002 00AF     		add	r7, sp, #0
  92              		.cfi_def_cfa_register 7
   8:MAX30100_All.c ****     pulseOximeter.beatDetector->state = BEATDETECTOR_STATE_INIT;// BEATDETECTOR_STATE_INIT;
  93              		.loc 1 8 0
  94 0004 0A4B     		ldr	r3, .L9
  95 0006 1B6A     		ldr	r3, [r3, #32]
  96 0008 0022     		mov	r2, #0
  97 000a 1A70     		strb	r2, [r3]
   9:MAX30100_All.c ****     pulseOximeter.beatDetector->threshold = BEATDETECTOR_MIN_THRESHOLD;
  98              		.loc 1 9 0
  99 000c 084B     		ldr	r3, .L9
 100 000e 1B6A     		ldr	r3, [r3, #32]
 101 0010 084A     		ldr	r2, .L9+4
 102 0012 5A60     		str	r2, [r3, #4]
  10:MAX30100_All.c ****     pulseOximeter.beatDetector->beatPeriod = 0;
 103              		.loc 1 10 0
 104 0014 064B     		ldr	r3, .L9
ARM GAS  C:\Users\Davit\AppData\Local\Temp\cc4XR0T4.s 			page 3


 105 0016 1B6A     		ldr	r3, [r3, #32]
 106 0018 0022     		mov	r2, #0
 107 001a 9A60     		str	r2, [r3, #8]
  11:MAX30100_All.c ****     pulseOximeter.beatDetector->lastMaxValue = 0;
 108              		.loc 1 11 0
 109 001c 044B     		ldr	r3, .L9
 110 001e 1B6A     		ldr	r3, [r3, #32]
 111 0020 0022     		mov	r2, #0
 112 0022 DA60     		str	r2, [r3, #12]
  12:MAX30100_All.c ****     pulseOximeter.beatDetector->tsLastBeat = 0;
 113              		.loc 1 12 0
 114 0024 024B     		ldr	r3, .L9
 115 0026 1B6A     		ldr	r3, [r3, #32]
 116 0028 0022     		mov	r2, #0
 117 002a 1A61     		str	r2, [r3, #16]
  13:MAX30100_All.c **** }
 118              		.loc 1 13 0
 119 002c BD46     		mov	sp, r7
 120              		@ sp needed
 121 002e 80BD     		pop	{r7, pc}
 122              	.L10:
 123              		.align	2
 124              	.L9:
 125 0030 00000000 		.word	pulseOximeter
 126 0034 0000A041 		.word	1101004800
 127              		.cfi_endproc
 128              	.LFE38:
 129              		.size	BeatDetector_Init, .-BeatDetector_Init
 130              		.section	.text.BeatDetector_addSample,"ax",%progbits
 131              		.align	2
 132              		.global	BeatDetector_addSample
 133              		.code	16
 134              		.thumb_func
 135              		.type	BeatDetector_addSample, %function
 136              	BeatDetector_addSample:
 137              	.LFB39:
  14:MAX30100_All.c **** 
  15:MAX30100_All.c **** char BeatDetector_addSample(float sample)
  16:MAX30100_All.c **** {
 138              		.loc 1 16 0
 139              		.cfi_startproc
 140 0000 80B5     		push	{r7, lr}
 141              		.cfi_def_cfa_offset 8
 142              		.cfi_offset 7, -8
 143              		.cfi_offset 14, -4
 144 0002 82B0     		sub	sp, sp, #8
 145              		.cfi_def_cfa_offset 16
 146 0004 00AF     		add	r7, sp, #0
 147              		.cfi_def_cfa_register 7
 148 0006 7860     		str	r0, [r7, #4]
  17:MAX30100_All.c ****     return BeatDetector_checkForBeat(sample);
 149              		.loc 1 17 0
 150 0008 7B68     		ldr	r3, [r7, #4]
 151 000a 181C     		add	r0, r3, #0
 152 000c FFF7FEFF 		bl	BeatDetector_checkForBeat
 153 0010 031C     		mov	r3, r0
  18:MAX30100_All.c **** }
ARM GAS  C:\Users\Davit\AppData\Local\Temp\cc4XR0T4.s 			page 4


 154              		.loc 1 18 0
 155 0012 181C     		mov	r0, r3
 156 0014 BD46     		mov	sp, r7
 157 0016 02B0     		add	sp, sp, #8
 158              		@ sp needed
 159 0018 80BD     		pop	{r7, pc}
 160              		.cfi_endproc
 161              	.LFE39:
 162              		.size	BeatDetector_addSample, .-BeatDetector_addSample
 163              		.global	__aeabi_fcmpeq
 164              		.global	__aeabi_fdiv
 165              		.global	__aeabi_fmul
 166 001a C046     		.section	.text.BeatDetector_getRate,"ax",%progbits
 167              		.align	2
 168              		.global	BeatDetector_getRate
 169              		.code	16
 170              		.thumb_func
 171              		.type	BeatDetector_getRate, %function
 172              	BeatDetector_getRate:
 173              	.LFB40:
  19:MAX30100_All.c **** 
  20:MAX30100_All.c **** float BeatDetector_getRate(){
 174              		.loc 1 20 0
 175              		.cfi_startproc
 176 0000 80B5     		push	{r7, lr}
 177              		.cfi_def_cfa_offset 8
 178              		.cfi_offset 7, -8
 179              		.cfi_offset 14, -4
 180 0002 00AF     		add	r7, sp, #0
 181              		.cfi_def_cfa_register 7
  21:MAX30100_All.c ****     if (pulseOximeter.beatDetector->beatPeriod != 0) {
 182              		.loc 1 21 0
 183 0004 104B     		ldr	r3, .L19
 184 0006 1B6A     		ldr	r3, [r3, #32]
 185 0008 9B68     		ldr	r3, [r3, #8]
 186 000a 181C     		add	r0, r3, #0
 187 000c 0021     		mov	r1, #0
 188 000e FFF7FEFF 		bl	__aeabi_fcmpeq
 189 0012 031E     		sub	r3, r0, #0
 190 0014 13D1     		bne	.L18
  22:MAX30100_All.c ****         return 1 / pulseOximeter.beatDetector->beatPeriod * 1000 * 60;
 191              		.loc 1 22 0
 192 0016 0C4B     		ldr	r3, .L19
 193 0018 1B6A     		ldr	r3, [r3, #32]
 194 001a 9B68     		ldr	r3, [r3, #8]
 195 001c FE20     		mov	r0, #254
 196 001e 8005     		lsl	r0, r0, #22
 197 0020 191C     		add	r1, r3, #0
 198 0022 FFF7FEFF 		bl	__aeabi_fdiv
 199 0026 031C     		add	r3, r0, #0
 200 0028 181C     		add	r0, r3, #0
 201 002a 0849     		ldr	r1, .L19+4
 202 002c FFF7FEFF 		bl	__aeabi_fmul
 203 0030 031C     		add	r3, r0, #0
 204 0032 181C     		add	r0, r3, #0
 205 0034 0649     		ldr	r1, .L19+8
 206 0036 FFF7FEFF 		bl	__aeabi_fmul
ARM GAS  C:\Users\Davit\AppData\Local\Temp\cc4XR0T4.s 			page 5


 207 003a 031C     		add	r3, r0, #0
 208 003c 00E0     		b	.L16
 209              	.L18:
  23:MAX30100_All.c ****     } else {
  24:MAX30100_All.c ****         return 0;
 210              		.loc 1 24 0
 211 003e 0023     		mov	r3, #0
 212              	.L16:
  25:MAX30100_All.c ****     }
  26:MAX30100_All.c **** }
 213              		.loc 1 26 0
 214 0040 181C     		add	r0, r3, #0
 215 0042 BD46     		mov	sp, r7
 216              		@ sp needed
 217 0044 80BD     		pop	{r7, pc}
 218              	.L20:
 219 0046 C046     		.align	2
 220              	.L19:
 221 0048 00000000 		.word	pulseOximeter
 222 004c 00007A44 		.word	1148846080
 223 0050 00007042 		.word	1114636288
 224              		.cfi_endproc
 225              	.LFE40:
 226              		.size	BeatDetector_getRate, .-BeatDetector_getRate
 227              		.section	.text.BeatDetector_getCurrentThreshold,"ax",%progbits
 228              		.align	2
 229              		.global	BeatDetector_getCurrentThreshold
 230              		.code	16
 231              		.thumb_func
 232              		.type	BeatDetector_getCurrentThreshold, %function
 233              	BeatDetector_getCurrentThreshold:
 234              	.LFB41:
  27:MAX30100_All.c **** 
  28:MAX30100_All.c **** float BeatDetector_getCurrentThreshold(){
 235              		.loc 1 28 0
 236              		.cfi_startproc
 237 0000 80B5     		push	{r7, lr}
 238              		.cfi_def_cfa_offset 8
 239              		.cfi_offset 7, -8
 240              		.cfi_offset 14, -4
 241 0002 00AF     		add	r7, sp, #0
 242              		.cfi_def_cfa_register 7
  29:MAX30100_All.c ****     return pulseOximeter.beatDetector->threshold;
 243              		.loc 1 29 0
 244 0004 024B     		ldr	r3, .L23
 245 0006 1B6A     		ldr	r3, [r3, #32]
 246 0008 5B68     		ldr	r3, [r3, #4]
  30:MAX30100_All.c **** }
 247              		.loc 1 30 0
 248 000a 181C     		add	r0, r3, #0
 249 000c BD46     		mov	sp, r7
 250              		@ sp needed
 251 000e 80BD     		pop	{r7, pc}
 252              	.L24:
 253              		.align	2
 254              	.L23:
 255 0010 00000000 		.word	pulseOximeter
ARM GAS  C:\Users\Davit\AppData\Local\Temp\cc4XR0T4.s 			page 6


 256              		.cfi_endproc
 257              	.LFE41:
 258              		.size	BeatDetector_getCurrentThreshold, .-BeatDetector_getCurrentThreshold
 259              		.global	__aeabi_fcmplt
 260              		.global	__aeabi_f2d
 261              		.global	__aeabi_d2f
 262              		.global	__aeabi_fcmpgt
 263              		.global	__aeabi_fadd
 264              		.global	__aeabi_ui2f
 265              		.global	__aeabi_dmul
 266              		.global	__aeabi_dadd
 267              		.section	.text.BeatDetector_checkForBeat,"ax",%progbits
 268              		.align	2
 269              		.global	BeatDetector_checkForBeat
 270              		.code	16
 271              		.thumb_func
 272              		.type	BeatDetector_checkForBeat, %function
 273              	BeatDetector_checkForBeat:
 274              	.LFB42:
  31:MAX30100_All.c **** 
  32:MAX30100_All.c **** char BeatDetector_checkForBeat(float sample){
 275              		.loc 1 32 0
 276              		.cfi_startproc
 277 0000 F0B5     		push	{r4, r5, r6, r7, lr}
 278              		.cfi_def_cfa_offset 20
 279              		.cfi_offset 4, -20
 280              		.cfi_offset 5, -16
 281              		.cfi_offset 6, -12
 282              		.cfi_offset 7, -8
 283              		.cfi_offset 14, -4
 284 0002 85B0     		sub	sp, sp, #20
 285              		.cfi_def_cfa_offset 40
 286 0004 00AF     		add	r7, sp, #0
 287              		.cfi_def_cfa_register 7
 288 0006 7860     		str	r0, [r7, #4]
  33:MAX30100_All.c ****     char beatDetected = 0;
 289              		.loc 1 33 0
 290 0008 0F23     		mov	r3, #15
 291 000a FB18     		add	r3, r7, r3
 292 000c 0022     		mov	r2, #0
 293 000e 1A70     		strb	r2, [r3]
  34:MAX30100_All.c **** 
  35:MAX30100_All.c ****     switch (pulseOximeter.beatDetector->state) {
 294              		.loc 1 35 0
 295 0010 754B     		ldr	r3, .L53
 296 0012 1B6A     		ldr	r3, [r3, #32]
 297 0014 1B78     		ldrb	r3, [r3]
 298 0016 042B     		cmp	r3, #4
 299 0018 00D9     		bls	.LCB227
 300 001a DEE0     		b	.L26	@long jump
 301              	.LCB227:
 302 001c 9A00     		lsl	r2, r3, #2
 303 001e 734B     		ldr	r3, .L53+4
 304 0020 D318     		add	r3, r2, r3
 305 0022 1B68     		ldr	r3, [r3]
 306 0024 9F46     		mov	pc, r3
 307              		.section	.rodata
ARM GAS  C:\Users\Davit\AppData\Local\Temp\cc4XR0T4.s 			page 7


 308              		.align	2
 309              	.L28:
 310 0000 26000000 		.word	.L27
 311 0004 40000000 		.word	.L29
 312 0008 AA000000 		.word	.L30
 313 000c EA000000 		.word	.L31
 314 0010 B8010000 		.word	.L32
 315              		.section	.text.BeatDetector_checkForBeat
 316              	.L27:
  36:MAX30100_All.c ****         case BEATDETECTOR_STATE_INIT:
  37:MAX30100_All.c ****             if (millis() > BEATDETECTOR_INIT_HOLDOFF) {
 317              		.loc 1 37 0
 318 0026 FFF7FEFF 		bl	millis
 319 002a 021C     		mov	r2, r0
 320 002c FA23     		mov	r3, #250
 321 002e DB00     		lsl	r3, r3, #3
 322 0030 9A42     		cmp	r2, r3
 323 0032 04DD     		ble	.L33
  38:MAX30100_All.c ****                 pulseOximeter.beatDetector->state = BEATDETECTOR_STATE_WAITING;
 324              		.loc 1 38 0
 325 0034 6C4B     		ldr	r3, .L53
 326 0036 1B6A     		ldr	r3, [r3, #32]
 327 0038 0122     		mov	r2, #1
 328 003a 1A70     		strb	r2, [r3]
  39:MAX30100_All.c ****             }
  40:MAX30100_All.c ****             break;
 329              		.loc 1 40 0
 330 003c CDE0     		b	.L26
 331              	.L33:
 332 003e CCE0     		b	.L26
 333              	.L29:
  41:MAX30100_All.c **** 
  42:MAX30100_All.c ****         case BEATDETECTOR_STATE_WAITING:
  43:MAX30100_All.c ****             if (sample > pulseOximeter.beatDetector->threshold) {
 334              		.loc 1 43 0
 335 0040 694B     		ldr	r3, .L53
 336 0042 1B6A     		ldr	r3, [r3, #32]
 337 0044 5B68     		ldr	r3, [r3, #4]
 338 0046 181C     		add	r0, r3, #0
 339 0048 7968     		ldr	r1, [r7, #4]
 340 004a FFF7FEFF 		bl	__aeabi_fcmplt
 341 004e 031E     		sub	r3, r0, #0
 342 0050 14D0     		beq	.L34
  44:MAX30100_All.c ****                 pulseOximeter.beatDetector->threshold = min(sample, BEATDETECTOR_MAX_THRESHOLD);
 343              		.loc 1 44 0
 344 0052 654B     		ldr	r3, .L53
 345 0054 1C6A     		ldr	r4, [r3, #32]
 346 0056 7868     		ldr	r0, [r7, #4]
 347 0058 FFF7FEFF 		bl	__aeabi_f2d
 348 005c 0022     		mov	r2, #0
 349 005e 644B     		ldr	r3, .L53+8
 350 0060 FFF7FEFF 		bl	min
 351 0064 021C     		mov	r2, r0
 352 0066 0B1C     		mov	r3, r1
 353 0068 101C     		mov	r0, r2
 354 006a 191C     		mov	r1, r3
 355 006c FFF7FEFF 		bl	__aeabi_d2f
ARM GAS  C:\Users\Davit\AppData\Local\Temp\cc4XR0T4.s 			page 8


 356 0070 031C     		add	r3, r0, #0
 357 0072 6360     		str	r3, [r4, #4]
  45:MAX30100_All.c ****                 pulseOximeter.beatDetector->state = BEATDETECTOR_STATE_FOLLOWING_SLOPE;
 358              		.loc 1 45 0
 359 0074 5C4B     		ldr	r3, .L53
 360 0076 1B6A     		ldr	r3, [r3, #32]
 361 0078 0222     		mov	r2, #2
 362 007a 1A70     		strb	r2, [r3]
 363              	.L34:
  46:MAX30100_All.c ****             }
  47:MAX30100_All.c **** 
  48:MAX30100_All.c ****             // Tracking lost, resetting
  49:MAX30100_All.c ****             if (millis() - pulseOximeter.beatDetector->tsLastBeat > BEATDETECTOR_INVALID_READOUT_DE
 364              		.loc 1 49 0
 365 007c FFF7FEFF 		bl	millis
 366 0080 031C     		mov	r3, r0
 367 0082 1A1C     		mov	r2, r3
 368 0084 584B     		ldr	r3, .L53
 369 0086 1B6A     		ldr	r3, [r3, #32]
 370 0088 1B69     		ldr	r3, [r3, #16]
 371 008a D21A     		sub	r2, r2, r3
 372 008c FA23     		mov	r3, #250
 373 008e DB00     		lsl	r3, r3, #3
 374 0090 9A42     		cmp	r2, r3
 375 0092 07D9     		bls	.L36
  50:MAX30100_All.c ****                 pulseOximeter.beatDetector->beatPeriod = 0;
 376              		.loc 1 50 0
 377 0094 544B     		ldr	r3, .L53
 378 0096 1B6A     		ldr	r3, [r3, #32]
 379 0098 0022     		mov	r2, #0
 380 009a 9A60     		str	r2, [r3, #8]
  51:MAX30100_All.c ****                 pulseOximeter.beatDetector->lastMaxValue = 0;
 381              		.loc 1 51 0
 382 009c 524B     		ldr	r3, .L53
 383 009e 1B6A     		ldr	r3, [r3, #32]
 384 00a0 0022     		mov	r2, #0
 385 00a2 DA60     		str	r2, [r3, #12]
 386              	.L36:
  52:MAX30100_All.c ****             }
  53:MAX30100_All.c **** 
  54:MAX30100_All.c ****             BeatDetector_decreaseThreshold();
 387              		.loc 1 54 0
 388 00a4 FFF7FEFF 		bl	BeatDetector_decreaseThreshold
  55:MAX30100_All.c ****             break;
 389              		.loc 1 55 0
 390 00a8 97E0     		b	.L26
 391              	.L30:
  56:MAX30100_All.c **** 
  57:MAX30100_All.c ****         case BEATDETECTOR_STATE_FOLLOWING_SLOPE:
  58:MAX30100_All.c ****             if (sample < pulseOximeter.beatDetector->threshold) {
 392              		.loc 1 58 0
 393 00aa 4F4B     		ldr	r3, .L53
 394 00ac 1B6A     		ldr	r3, [r3, #32]
 395 00ae 5B68     		ldr	r3, [r3, #4]
 396 00b0 181C     		add	r0, r3, #0
 397 00b2 7968     		ldr	r1, [r7, #4]
 398 00b4 FFF7FEFF 		bl	__aeabi_fcmpgt
ARM GAS  C:\Users\Davit\AppData\Local\Temp\cc4XR0T4.s 			page 9


 399 00b8 031E     		sub	r3, r0, #0
 400 00ba 04D0     		beq	.L51
  59:MAX30100_All.c ****                 pulseOximeter.beatDetector->state = BEATDETECTOR_STATE_MAYBE_DETECTED;
 401              		.loc 1 59 0
 402 00bc 4A4B     		ldr	r3, .L53
 403 00be 1B6A     		ldr	r3, [r3, #32]
 404 00c0 0322     		mov	r2, #3
 405 00c2 1A70     		strb	r2, [r3]
  60:MAX30100_All.c ****             } else {
  61:MAX30100_All.c ****                 pulseOximeter.beatDetector->threshold = min(sample, BEATDETECTOR_MAX_THRESHOLD);
  62:MAX30100_All.c ****             }
  63:MAX30100_All.c ****             break;
 406              		.loc 1 63 0
 407 00c4 89E0     		b	.L26
 408              	.L51:
  61:MAX30100_All.c ****             }
 409              		.loc 1 61 0
 410 00c6 484B     		ldr	r3, .L53
 411 00c8 1C6A     		ldr	r4, [r3, #32]
 412 00ca 7868     		ldr	r0, [r7, #4]
 413 00cc FFF7FEFF 		bl	__aeabi_f2d
 414 00d0 0022     		mov	r2, #0
 415 00d2 474B     		ldr	r3, .L53+8
 416 00d4 FFF7FEFF 		bl	min
 417 00d8 021C     		mov	r2, r0
 418 00da 0B1C     		mov	r3, r1
 419 00dc 101C     		mov	r0, r2
 420 00de 191C     		mov	r1, r3
 421 00e0 FFF7FEFF 		bl	__aeabi_d2f
 422 00e4 031C     		add	r3, r0, #0
 423 00e6 6360     		str	r3, [r4, #4]
 424              		.loc 1 63 0
 425 00e8 77E0     		b	.L26
 426              	.L31:
  64:MAX30100_All.c **** 
  65:MAX30100_All.c ****         case BEATDETECTOR_STATE_MAYBE_DETECTED:
  66:MAX30100_All.c ****             if (sample + BEATDETECTOR_STEP_RESILIENCY < pulseOximeter.beatDetector->threshold) {
 427              		.loc 1 66 0
 428 00ea 7868     		ldr	r0, [r7, #4]
 429 00ec 4149     		ldr	r1, .L53+12
 430 00ee FFF7FEFF 		bl	__aeabi_fadd
 431 00f2 031C     		add	r3, r0, #0
 432 00f4 1A1C     		add	r2, r3, #0
 433 00f6 3C4B     		ldr	r3, .L53
 434 00f8 1B6A     		ldr	r3, [r3, #32]
 435 00fa 5B68     		ldr	r3, [r3, #4]
 436 00fc 101C     		add	r0, r2, #0
 437 00fe 191C     		add	r1, r3, #0
 438 0100 FFF7FEFF 		bl	__aeabi_fcmplt
 439 0104 031E     		sub	r3, r0, #0
 440 0106 52D0     		beq	.L52
 441              	.LBB2:
  67:MAX30100_All.c ****                 // Found a beat
  68:MAX30100_All.c ****                 beatDetected = 1;
 442              		.loc 1 68 0
 443 0108 0F23     		mov	r3, #15
 444 010a FB18     		add	r3, r7, r3
ARM GAS  C:\Users\Davit\AppData\Local\Temp\cc4XR0T4.s 			page 10


 445 010c 0122     		mov	r2, #1
 446 010e 1A70     		strb	r2, [r3]
  69:MAX30100_All.c ****                 pulseOximeter.beatDetector->lastMaxValue = sample;
 447              		.loc 1 69 0
 448 0110 354B     		ldr	r3, .L53
 449 0112 1B6A     		ldr	r3, [r3, #32]
 450 0114 7A68     		ldr	r2, [r7, #4]
 451 0116 DA60     		str	r2, [r3, #12]
  70:MAX30100_All.c ****                 pulseOximeter.beatDetector->state = BEATDETECTOR_STATE_MASKING;
 452              		.loc 1 70 0
 453 0118 334B     		ldr	r3, .L53
 454 011a 1B6A     		ldr	r3, [r3, #32]
 455 011c 0422     		mov	r2, #4
 456 011e 1A70     		strb	r2, [r3]
  71:MAX30100_All.c ****                 float delta = millis() - pulseOximeter.beatDetector->tsLastBeat;
 457              		.loc 1 71 0
 458 0120 FFF7FEFF 		bl	millis
 459 0124 031C     		mov	r3, r0
 460 0126 1A1C     		mov	r2, r3
 461 0128 2F4B     		ldr	r3, .L53
 462 012a 1B6A     		ldr	r3, [r3, #32]
 463 012c 1B69     		ldr	r3, [r3, #16]
 464 012e D31A     		sub	r3, r2, r3
 465 0130 181C     		mov	r0, r3
 466 0132 FFF7FEFF 		bl	__aeabi_ui2f
 467 0136 031C     		add	r3, r0, #0
 468 0138 BB60     		str	r3, [r7, #8]
  72:MAX30100_All.c ****                 
  73:MAX30100_All.c ****                 if (delta) {
 469              		.loc 1 73 0
 470 013a B868     		ldr	r0, [r7, #8]
 471 013c 0021     		mov	r1, #0
 472 013e FFF7FEFF 		bl	__aeabi_fcmpeq
 473 0142 031E     		sub	r3, r0, #0
 474 0144 2CD1     		bne	.L42
  74:MAX30100_All.c ****                     pulseOximeter.beatDetector->beatPeriod = BEATDETECTOR_BPFILTER_ALPHA * delta + 
 475              		.loc 1 74 0
 476 0146 284B     		ldr	r3, .L53
 477 0148 1C6A     		ldr	r4, [r3, #32]
 478 014a B868     		ldr	r0, [r7, #8]
 479 014c FFF7FEFF 		bl	__aeabi_f2d
 480 0150 021C     		mov	r2, r0
 481 0152 0B1C     		mov	r3, r1
 482 0154 101C     		mov	r0, r2
 483 0156 191C     		mov	r1, r3
 484 0158 274A     		ldr	r2, .L53+16
 485 015a 284B     		ldr	r3, .L53+20
 486 015c FFF7FEFF 		bl	__aeabi_dmul
 487 0160 021C     		mov	r2, r0
 488 0162 0B1C     		mov	r3, r1
 489 0164 151C     		mov	r5, r2
 490 0166 1E1C     		mov	r6, r3
 491 0168 1F4B     		ldr	r3, .L53
 492 016a 1B6A     		ldr	r3, [r3, #32]
 493 016c 9B68     		ldr	r3, [r3, #8]
 494 016e 181C     		add	r0, r3, #0
 495 0170 FFF7FEFF 		bl	__aeabi_f2d
ARM GAS  C:\Users\Davit\AppData\Local\Temp\cc4XR0T4.s 			page 11


 496 0174 021C     		mov	r2, r0
 497 0176 0B1C     		mov	r3, r1
 498 0178 101C     		mov	r0, r2
 499 017a 191C     		mov	r1, r3
 500 017c 204A     		ldr	r2, .L53+24
 501 017e 214B     		ldr	r3, .L53+28
 502 0180 FFF7FEFF 		bl	__aeabi_dmul
 503 0184 021C     		mov	r2, r0
 504 0186 0B1C     		mov	r3, r1
 505 0188 281C     		mov	r0, r5
 506 018a 311C     		mov	r1, r6
 507 018c FFF7FEFF 		bl	__aeabi_dadd
 508 0190 021C     		mov	r2, r0
 509 0192 0B1C     		mov	r3, r1
 510 0194 101C     		mov	r0, r2
 511 0196 191C     		mov	r1, r3
 512 0198 FFF7FEFF 		bl	__aeabi_d2f
 513 019c 031C     		add	r3, r0, #0
 514 019e A360     		str	r3, [r4, #8]
 515              	.L42:
  75:MAX30100_All.c ****                 }
  76:MAX30100_All.c **** 
  77:MAX30100_All.c ****                 pulseOximeter.beatDetector->tsLastBeat = millis();
 516              		.loc 1 77 0
 517 01a0 114B     		ldr	r3, .L53
 518 01a2 1C6A     		ldr	r4, [r3, #32]
 519 01a4 FFF7FEFF 		bl	millis
 520 01a8 031C     		mov	r3, r0
 521 01aa 2361     		str	r3, [r4, #16]
 522              	.LBE2:
  78:MAX30100_All.c ****             } else {
  79:MAX30100_All.c ****                 pulseOximeter.beatDetector->state = BEATDETECTOR_STATE_FOLLOWING_SLOPE;
  80:MAX30100_All.c ****             }
  81:MAX30100_All.c ****             break;
 523              		.loc 1 81 0
 524 01ac 15E0     		b	.L26
 525              	.L52:
  79:MAX30100_All.c ****             }
 526              		.loc 1 79 0
 527 01ae 0E4B     		ldr	r3, .L53
 528 01b0 1B6A     		ldr	r3, [r3, #32]
 529 01b2 0222     		mov	r2, #2
 530 01b4 1A70     		strb	r2, [r3]
 531              		.loc 1 81 0
 532 01b6 10E0     		b	.L26
 533              	.L32:
  82:MAX30100_All.c **** 
  83:MAX30100_All.c ****         case BEATDETECTOR_STATE_MASKING:
  84:MAX30100_All.c ****             if (millis() - pulseOximeter.beatDetector->tsLastBeat > BEATDETECTOR_MASKING_HOLDOFF) {
 534              		.loc 1 84 0
 535 01b8 FFF7FEFF 		bl	millis
 536 01bc 031C     		mov	r3, r0
 537 01be 1A1C     		mov	r2, r3
 538 01c0 094B     		ldr	r3, .L53
 539 01c2 1B6A     		ldr	r3, [r3, #32]
 540 01c4 1B69     		ldr	r3, [r3, #16]
 541 01c6 D31A     		sub	r3, r2, r3
ARM GAS  C:\Users\Davit\AppData\Local\Temp\cc4XR0T4.s 			page 12


 542 01c8 C82B     		cmp	r3, #200
 543 01ca 03D9     		bls	.L45
  85:MAX30100_All.c ****                 pulseOximeter.beatDetector->state = BEATDETECTOR_STATE_WAITING;
 544              		.loc 1 85 0
 545 01cc 064B     		ldr	r3, .L53
 546 01ce 1B6A     		ldr	r3, [r3, #32]
 547 01d0 0122     		mov	r2, #1
 548 01d2 1A70     		strb	r2, [r3]
 549              	.L45:
  86:MAX30100_All.c ****             }
  87:MAX30100_All.c ****             BeatDetector_decreaseThreshold();
 550              		.loc 1 87 0
 551 01d4 FFF7FEFF 		bl	BeatDetector_decreaseThreshold
  88:MAX30100_All.c ****             break;
 552              		.loc 1 88 0
 553 01d8 C046     		mov	r8, r8
 554              	.L26:
  89:MAX30100_All.c ****     }
  90:MAX30100_All.c **** 
  91:MAX30100_All.c ****     return beatDetected;
 555              		.loc 1 91 0
 556 01da 0F23     		mov	r3, #15
 557 01dc FB18     		add	r3, r7, r3
 558 01de 1B78     		ldrb	r3, [r3]
  92:MAX30100_All.c **** }
 559              		.loc 1 92 0
 560 01e0 181C     		mov	r0, r3
 561 01e2 BD46     		mov	sp, r7
 562 01e4 05B0     		add	sp, sp, #20
 563              		@ sp needed
 564 01e6 F0BD     		pop	{r4, r5, r6, r7, pc}
 565              	.L54:
 566              		.align	2
 567              	.L53:
 568 01e8 00000000 		.word	pulseOximeter
 569 01ec 00000000 		.word	.L28
 570 01f0 00008940 		.word	1082720256
 571 01f4 0000F041 		.word	1106247680
 572 01f8 33333333 		.word	858993459
 573 01fc 3333E33F 		.word	1071854387
 574 0200 9A999999 		.word	-1717986918
 575 0204 9999D93F 		.word	1071225241
 576              		.cfi_endproc
 577              	.LFE42:
 578              		.size	BeatDetector_checkForBeat, .-BeatDetector_checkForBeat
 579              		.global	__aeabi_ddiv
 580              		.global	__aeabi_dsub
 581              		.section	.text.BeatDetector_decreaseThreshold,"ax",%progbits
 582              		.align	2
 583              		.global	BeatDetector_decreaseThreshold
 584              		.code	16
 585              		.thumb_func
 586              		.type	BeatDetector_decreaseThreshold, %function
 587              	BeatDetector_decreaseThreshold:
 588              	.LFB43:
  93:MAX30100_All.c **** 
  94:MAX30100_All.c **** void BeatDetector_decreaseThreshold(){
ARM GAS  C:\Users\Davit\AppData\Local\Temp\cc4XR0T4.s 			page 13


 589              		.loc 1 94 0
 590              		.cfi_startproc
 591 0000 F0B5     		push	{r4, r5, r6, r7, lr}
 592              		.cfi_def_cfa_offset 20
 593              		.cfi_offset 4, -20
 594              		.cfi_offset 5, -16
 595              		.cfi_offset 6, -12
 596              		.cfi_offset 7, -8
 597              		.cfi_offset 14, -4
 598 0002 83B0     		sub	sp, sp, #12
 599              		.cfi_def_cfa_offset 32
 600 0004 00AF     		add	r7, sp, #0
 601              		.cfi_def_cfa_register 7
  95:MAX30100_All.c ****     // When a valid beat rate readout is present, target the
  96:MAX30100_All.c ****     if (pulseOximeter.beatDetector->lastMaxValue > 0 && pulseOximeter.beatDetector->beatPeriod > 0)
 602              		.loc 1 96 0
 603 0006 3B4B     		ldr	r3, .L65
 604 0008 1B6A     		ldr	r3, [r3, #32]
 605 000a DB68     		ldr	r3, [r3, #12]
 606 000c 181C     		add	r0, r3, #0
 607 000e 0021     		mov	r1, #0
 608 0010 FFF7FEFF 		bl	__aeabi_fcmpgt
 609 0014 031E     		sub	r3, r0, #0
 610 0016 44D0     		beq	.L56
 611              		.loc 1 96 0 is_stmt 0 discriminator 1
 612 0018 364B     		ldr	r3, .L65
 613 001a 1B6A     		ldr	r3, [r3, #32]
 614 001c 9B68     		ldr	r3, [r3, #8]
 615 001e 181C     		add	r0, r3, #0
 616 0020 0021     		mov	r1, #0
 617 0022 FFF7FEFF 		bl	__aeabi_fcmpgt
 618 0026 031E     		sub	r3, r0, #0
 619 0028 3BD0     		beq	.L56
  97:MAX30100_All.c ****         pulseOximeter.beatDetector->threshold -= pulseOximeter.beatDetector->lastMaxValue * (1 - BE
 620              		.loc 1 97 0 is_stmt 1
 621 002a 324B     		ldr	r3, .L65
 622 002c 1C6A     		ldr	r4, [r3, #32]
 623 002e 314B     		ldr	r3, .L65
 624 0030 1B6A     		ldr	r3, [r3, #32]
 625 0032 5B68     		ldr	r3, [r3, #4]
 626 0034 181C     		add	r0, r3, #0
 627 0036 FFF7FEFF 		bl	__aeabi_f2d
 628 003a 051C     		mov	r5, r0
 629 003c 0E1C     		mov	r6, r1
 630 003e 2D4B     		ldr	r3, .L65
 631 0040 1B6A     		ldr	r3, [r3, #32]
 632 0042 DB68     		ldr	r3, [r3, #12]
 633 0044 181C     		add	r0, r3, #0
 634 0046 FFF7FEFF 		bl	__aeabi_f2d
 635 004a 021C     		mov	r2, r0
 636 004c 0B1C     		mov	r3, r1
 637 004e 101C     		mov	r0, r2
 638 0050 191C     		mov	r1, r3
 639 0052 294A     		ldr	r2, .L65+4
 640 0054 294B     		ldr	r3, .L65+8
 641 0056 FFF7FEFF 		bl	__aeabi_dmul
 642 005a 021C     		mov	r2, r0
ARM GAS  C:\Users\Davit\AppData\Local\Temp\cc4XR0T4.s 			page 14


 643 005c 0B1C     		mov	r3, r1
 644 005e 3A60     		str	r2, [r7]
 645 0060 7B60     		str	r3, [r7, #4]
  98:MAX30100_All.c ****                 (pulseOximeter.beatDetector->beatPeriod / BEATDETECTOR_SAMPLES_PERIOD);
 646              		.loc 1 98 0
 647 0062 244B     		ldr	r3, .L65
 648 0064 1B6A     		ldr	r3, [r3, #32]
 649 0066 9B68     		ldr	r3, [r3, #8]
 650 0068 181C     		add	r0, r3, #0
 651 006a 2549     		ldr	r1, .L65+12
 652 006c FFF7FEFF 		bl	__aeabi_fdiv
 653 0070 031C     		add	r3, r0, #0
  97:MAX30100_All.c ****         pulseOximeter.beatDetector->threshold -= pulseOximeter.beatDetector->lastMaxValue * (1 - BE
 654              		.loc 1 97 0
 655 0072 181C     		add	r0, r3, #0
 656 0074 FFF7FEFF 		bl	__aeabi_f2d
 657 0078 021C     		mov	r2, r0
 658 007a 0B1C     		mov	r3, r1
 659 007c 3868     		ldr	r0, [r7]
 660 007e 7968     		ldr	r1, [r7, #4]
 661 0080 FFF7FEFF 		bl	__aeabi_ddiv
 662 0084 021C     		mov	r2, r0
 663 0086 0B1C     		mov	r3, r1
 664 0088 281C     		mov	r0, r5
 665 008a 311C     		mov	r1, r6
 666 008c FFF7FEFF 		bl	__aeabi_dsub
 667 0090 021C     		mov	r2, r0
 668 0092 0B1C     		mov	r3, r1
 669 0094 101C     		mov	r0, r2
 670 0096 191C     		mov	r1, r3
 671 0098 FFF7FEFF 		bl	__aeabi_d2f
 672 009c 031C     		add	r3, r0, #0
 673 009e 6360     		str	r3, [r4, #4]
 674 00a0 17E0     		b	.L59
 675              	.L56:
  99:MAX30100_All.c ****     } else {
 100:MAX30100_All.c ****         // Asymptotic decay
 101:MAX30100_All.c ****         pulseOximeter.beatDetector->threshold *= BEATDETECTOR_THRESHOLD_DECAY_FACTOR;
 676              		.loc 1 101 0
 677 00a2 144B     		ldr	r3, .L65
 678 00a4 1C6A     		ldr	r4, [r3, #32]
 679 00a6 134B     		ldr	r3, .L65
 680 00a8 1B6A     		ldr	r3, [r3, #32]
 681 00aa 5B68     		ldr	r3, [r3, #4]
 682 00ac 181C     		add	r0, r3, #0
 683 00ae FFF7FEFF 		bl	__aeabi_f2d
 684 00b2 021C     		mov	r2, r0
 685 00b4 0B1C     		mov	r3, r1
 686 00b6 101C     		mov	r0, r2
 687 00b8 191C     		mov	r1, r3
 688 00ba 124A     		ldr	r2, .L65+16
 689 00bc 124B     		ldr	r3, .L65+20
 690 00be FFF7FEFF 		bl	__aeabi_dmul
 691 00c2 021C     		mov	r2, r0
 692 00c4 0B1C     		mov	r3, r1
 693 00c6 101C     		mov	r0, r2
 694 00c8 191C     		mov	r1, r3
ARM GAS  C:\Users\Davit\AppData\Local\Temp\cc4XR0T4.s 			page 15


 695 00ca FFF7FEFF 		bl	__aeabi_d2f
 696 00ce 031C     		add	r3, r0, #0
 697 00d0 6360     		str	r3, [r4, #4]
 698              	.L59:
 102:MAX30100_All.c ****     }
 103:MAX30100_All.c **** 
 104:MAX30100_All.c ****     if (pulseOximeter.beatDetector->threshold < BEATDETECTOR_MIN_THRESHOLD) {
 699              		.loc 1 104 0
 700 00d2 084B     		ldr	r3, .L65
 701 00d4 1B6A     		ldr	r3, [r3, #32]
 702 00d6 5B68     		ldr	r3, [r3, #4]
 703 00d8 181C     		add	r0, r3, #0
 704 00da 0C49     		ldr	r1, .L65+24
 705 00dc FFF7FEFF 		bl	__aeabi_fcmplt
 706 00e0 031E     		sub	r3, r0, #0
 707 00e2 03D0     		beq	.L55
 105:MAX30100_All.c ****         pulseOximeter.beatDetector->threshold = BEATDETECTOR_MIN_THRESHOLD;
 708              		.loc 1 105 0
 709 00e4 034B     		ldr	r3, .L65
 710 00e6 1B6A     		ldr	r3, [r3, #32]
 711 00e8 084A     		ldr	r2, .L65+24
 712 00ea 5A60     		str	r2, [r3, #4]
 713              	.L55:
 106:MAX30100_All.c ****     }
 107:MAX30100_All.c **** }
 714              		.loc 1 107 0
 715 00ec BD46     		mov	sp, r7
 716 00ee 03B0     		add	sp, sp, #12
 717              		@ sp needed
 718 00f0 F0BD     		pop	{r4, r5, r6, r7, pc}
 719              	.L66:
 720 00f2 C046     		.align	2
 721              	.L65:
 722 00f4 00000000 		.word	pulseOximeter
 723 00f8 66666666 		.word	1717986918
 724 00fc 6666E63F 		.word	1072064102
 725 0100 00002041 		.word	1092616192
 726 0104 AE47E17A 		.word	2061584302
 727 0108 14AEEF3F 		.word	1072672276
 728 010c 0000A041 		.word	1101004800
 729              		.cfi_endproc
 730              	.LFE43:
 731              		.size	BeatDetector_decreaseThreshold, .-BeatDetector_decreaseThreshold
 732              		.section	.text.MAX30100_begin,"ax",%progbits
 733              		.align	2
 734              		.global	MAX30100_begin
 735              		.code	16
 736              		.thumb_func
 737              		.type	MAX30100_begin, %function
 738              	MAX30100_begin:
 739              	.LFB44:
 108:MAX30100_All.c **** 
 109:MAX30100_All.c **** void MAX30100_begin(){
 740              		.loc 1 109 0
 741              		.cfi_startproc
 742 0000 80B5     		push	{r7, lr}
 743              		.cfi_def_cfa_offset 8
ARM GAS  C:\Users\Davit\AppData\Local\Temp\cc4XR0T4.s 			page 16


 744              		.cfi_offset 7, -8
 745              		.cfi_offset 14, -4
 746 0002 00AF     		add	r7, sp, #0
 747              		.cfi_def_cfa_register 7
 110:MAX30100_All.c **** 	//Start I2C
 111:MAX30100_All.c **** 	//Set I2C bus speed
 112:MAX30100_All.c **** 	
 113:MAX30100_All.c **** 	MAX30100_setMode(DEFAULT_MODE);
 748              		.loc 1 113 0
 749 0004 0220     		mov	r0, #2
 750 0006 FFF7FEFF 		bl	MAX30100_setMode
 114:MAX30100_All.c **** 	MAX30100_setMode(DEFAULT_MODE);
 751              		.loc 1 114 0
 752 000a 0220     		mov	r0, #2
 753 000c FFF7FEFF 		bl	MAX30100_setMode
 115:MAX30100_All.c ****     MAX30100_setLedsPulseWidth(DEFAULT_PULSE_WIDTH);
 754              		.loc 1 115 0
 755 0010 0320     		mov	r0, #3
 756 0012 FFF7FEFF 		bl	MAX30100_setLedsPulseWidth
 116:MAX30100_All.c ****     MAX30100_setSamplingRate(DEFAULT_SAMPLING_RATE);
 757              		.loc 1 116 0
 758 0016 0120     		mov	r0, #1
 759 0018 FFF7FEFF 		bl	MAX30100_setSamplingRate
 117:MAX30100_All.c ****     //MAX30100_setLedsCurrent(DEFAULT_IR_LED_CURRENT, DEFAULT_RED_LED_CURRENT);
 118:MAX30100_All.c ****     MAX30100_setLedsCurrent(THREE_FIFTHS_IR_LED_CURRENT, THREE_FIFTHS_RED_LED_CURRENT);
 760              		.loc 1 118 0
 761 001c 0920     		mov	r0, #9
 762 001e 0921     		mov	r1, #9
 763 0020 FFF7FEFF 		bl	MAX30100_setLedsCurrent
 119:MAX30100_All.c ****     MAX30100_setHighresModeEnabled(1);
 764              		.loc 1 119 0
 765 0024 0120     		mov	r0, #1
 766 0026 FFF7FEFF 		bl	MAX30100_setHighresModeEnabled
 120:MAX30100_All.c **** 	
 121:MAX30100_All.c **** }
 767              		.loc 1 121 0
 768 002a BD46     		mov	sp, r7
 769              		@ sp needed
 770 002c 80BD     		pop	{r7, pc}
 771              		.cfi_endproc
 772              	.LFE44:
 773              		.size	MAX30100_begin, .-MAX30100_begin
 774 002e C046     		.section	.text.MAX30100_setMode,"ax",%progbits
 775              		.align	2
 776              		.global	MAX30100_setMode
 777              		.code	16
 778              		.thumb_func
 779              		.type	MAX30100_setMode, %function
 780              	MAX30100_setMode:
 781              	.LFB45:
 122:MAX30100_All.c **** 
 123:MAX30100_All.c **** void MAX30100_setMode(Mode mode){
 782              		.loc 1 123 0
 783              		.cfi_startproc
 784 0000 80B5     		push	{r7, lr}
 785              		.cfi_def_cfa_offset 8
 786              		.cfi_offset 7, -8
ARM GAS  C:\Users\Davit\AppData\Local\Temp\cc4XR0T4.s 			page 17


 787              		.cfi_offset 14, -4
 788 0002 82B0     		sub	sp, sp, #8
 789              		.cfi_def_cfa_offset 16
 790 0004 00AF     		add	r7, sp, #0
 791              		.cfi_def_cfa_register 7
 792 0006 021C     		mov	r2, r0
 793 0008 FB1D     		add	r3, r7, #7
 794 000a 1A70     		strb	r2, [r3]
 124:MAX30100_All.c ****     MAX30100_writeRegister(MAX30100_REG_MODE_CONFIGURATION, mode);
 795              		.loc 1 124 0
 796 000c FB1D     		add	r3, r7, #7
 797 000e 1B78     		ldrb	r3, [r3]
 798 0010 0620     		mov	r0, #6
 799 0012 191C     		mov	r1, r3
 800 0014 FFF7FEFF 		bl	MAX30100_writeRegister
 125:MAX30100_All.c **** }
 801              		.loc 1 125 0
 802 0018 BD46     		mov	sp, r7
 803 001a 02B0     		add	sp, sp, #8
 804              		@ sp needed
 805 001c 80BD     		pop	{r7, pc}
 806              		.cfi_endproc
 807              	.LFE45:
 808              		.size	MAX30100_setMode, .-MAX30100_setMode
 809 001e C046     		.section	.text.MAX30100_setLedsPulseWidth,"ax",%progbits
 810              		.align	2
 811              		.global	MAX30100_setLedsPulseWidth
 812              		.code	16
 813              		.thumb_func
 814              		.type	MAX30100_setLedsPulseWidth, %function
 815              	MAX30100_setLedsPulseWidth:
 816              	.LFB46:
 126:MAX30100_All.c **** 
 127:MAX30100_All.c **** void MAX30100_setLedsPulseWidth(LEDPulseWidth ledPulseWidth){
 817              		.loc 1 127 0
 818              		.cfi_startproc
 819 0000 90B5     		push	{r4, r7, lr}
 820              		.cfi_def_cfa_offset 12
 821              		.cfi_offset 4, -12
 822              		.cfi_offset 7, -8
 823              		.cfi_offset 14, -4
 824 0002 85B0     		sub	sp, sp, #20
 825              		.cfi_def_cfa_offset 32
 826 0004 00AF     		add	r7, sp, #0
 827              		.cfi_def_cfa_register 7
 828 0006 021C     		mov	r2, r0
 829 0008 FB1D     		add	r3, r7, #7
 830 000a 1A70     		strb	r2, [r3]
 128:MAX30100_All.c ****     uint8_t previous = MAX30100_readRegister(MAX30100_REG_SPO2_CONFIGURATION);
 831              		.loc 1 128 0
 832 000c 0F23     		mov	r3, #15
 833 000e FC18     		add	r4, r7, r3
 834 0010 0720     		mov	r0, #7
 835 0012 FFF7FEFF 		bl	MAX30100_readRegister
 836 0016 031C     		mov	r3, r0
 837 0018 2370     		strb	r3, [r4]
 129:MAX30100_All.c ****     MAX30100_writeRegister(MAX30100_REG_SPO2_CONFIGURATION, (previous & 0xfc) | ledPulseWidth);
ARM GAS  C:\Users\Davit\AppData\Local\Temp\cc4XR0T4.s 			page 18


 838              		.loc 1 129 0
 839 001a 0F23     		mov	r3, #15
 840 001c FB18     		add	r3, r7, r3
 841 001e 1B78     		ldrb	r3, [r3]
 842 0020 1A1C     		add	r2, r3, #0
 843 0022 0323     		mov	r3, #3
 844 0024 9A43     		bic	r2, r3
 845 0026 131C     		mov	r3, r2
 846 0028 DAB2     		uxtb	r2, r3
 847 002a FB1D     		add	r3, r7, #7
 848 002c 1B78     		ldrb	r3, [r3]
 849 002e 1343     		orr	r3, r2
 850 0030 DBB2     		uxtb	r3, r3
 851 0032 DBB2     		uxtb	r3, r3
 852 0034 0720     		mov	r0, #7
 853 0036 191C     		mov	r1, r3
 854 0038 FFF7FEFF 		bl	MAX30100_writeRegister
 130:MAX30100_All.c **** }
 855              		.loc 1 130 0
 856 003c BD46     		mov	sp, r7
 857 003e 05B0     		add	sp, sp, #20
 858              		@ sp needed
 859 0040 90BD     		pop	{r4, r7, pc}
 860              		.cfi_endproc
 861              	.LFE46:
 862              		.size	MAX30100_setLedsPulseWidth, .-MAX30100_setLedsPulseWidth
 863 0042 C046     		.section	.text.MAX30100_setSamplingRate,"ax",%progbits
 864              		.align	2
 865              		.global	MAX30100_setSamplingRate
 866              		.code	16
 867              		.thumb_func
 868              		.type	MAX30100_setSamplingRate, %function
 869              	MAX30100_setSamplingRate:
 870              	.LFB47:
 131:MAX30100_All.c **** 
 132:MAX30100_All.c **** void MAX30100_setSamplingRate(SamplingRate samplingRate){
 871              		.loc 1 132 0
 872              		.cfi_startproc
 873 0000 90B5     		push	{r4, r7, lr}
 874              		.cfi_def_cfa_offset 12
 875              		.cfi_offset 4, -12
 876              		.cfi_offset 7, -8
 877              		.cfi_offset 14, -4
 878 0002 85B0     		sub	sp, sp, #20
 879              		.cfi_def_cfa_offset 32
 880 0004 00AF     		add	r7, sp, #0
 881              		.cfi_def_cfa_register 7
 882 0006 021C     		mov	r2, r0
 883 0008 FB1D     		add	r3, r7, #7
 884 000a 1A70     		strb	r2, [r3]
 133:MAX30100_All.c ****     uint8_t previous = MAX30100_readRegister(MAX30100_REG_SPO2_CONFIGURATION);
 885              		.loc 1 133 0
 886 000c 0F23     		mov	r3, #15
 887 000e FC18     		add	r4, r7, r3
 888 0010 0720     		mov	r0, #7
 889 0012 FFF7FEFF 		bl	MAX30100_readRegister
 890 0016 031C     		mov	r3, r0
ARM GAS  C:\Users\Davit\AppData\Local\Temp\cc4XR0T4.s 			page 19


 891 0018 2370     		strb	r3, [r4]
 134:MAX30100_All.c ****     MAX30100_writeRegister(MAX30100_REG_SPO2_CONFIGURATION, (previous & 0xe3) | (samplingRate << 2)
 892              		.loc 1 134 0
 893 001a 0F23     		mov	r3, #15
 894 001c FB18     		add	r3, r7, r3
 895 001e 1B78     		ldrb	r3, [r3]
 896 0020 1A1C     		add	r2, r3, #0
 897 0022 1C23     		mov	r3, #28
 898 0024 9A43     		bic	r2, r3
 899 0026 131C     		mov	r3, r2
 900 0028 DAB2     		uxtb	r2, r3
 901 002a FB1D     		add	r3, r7, #7
 902 002c 1B78     		ldrb	r3, [r3]
 903 002e 9B00     		lsl	r3, r3, #2
 904 0030 DBB2     		uxtb	r3, r3
 905 0032 1343     		orr	r3, r2
 906 0034 DBB2     		uxtb	r3, r3
 907 0036 DBB2     		uxtb	r3, r3
 908 0038 0720     		mov	r0, #7
 909 003a 191C     		mov	r1, r3
 910 003c FFF7FEFF 		bl	MAX30100_writeRegister
 135:MAX30100_All.c **** }
 911              		.loc 1 135 0
 912 0040 BD46     		mov	sp, r7
 913 0042 05B0     		add	sp, sp, #20
 914              		@ sp needed
 915 0044 90BD     		pop	{r4, r7, pc}
 916              		.cfi_endproc
 917              	.LFE47:
 918              		.size	MAX30100_setSamplingRate, .-MAX30100_setSamplingRate
 919 0046 C046     		.section	.text.MAX30100_setLedsCurrent,"ax",%progbits
 920              		.align	2
 921              		.global	MAX30100_setLedsCurrent
 922              		.code	16
 923              		.thumb_func
 924              		.type	MAX30100_setLedsCurrent, %function
 925              	MAX30100_setLedsCurrent:
 926              	.LFB48:
 136:MAX30100_All.c **** 
 137:MAX30100_All.c **** void MAX30100_setLedsCurrent(LEDCurrent irLedCurrent, LEDCurrent redLedCurrent){
 927              		.loc 1 137 0
 928              		.cfi_startproc
 929 0000 80B5     		push	{r7, lr}
 930              		.cfi_def_cfa_offset 8
 931              		.cfi_offset 7, -8
 932              		.cfi_offset 14, -4
 933 0002 82B0     		sub	sp, sp, #8
 934              		.cfi_def_cfa_offset 16
 935 0004 00AF     		add	r7, sp, #0
 936              		.cfi_def_cfa_register 7
 937 0006 021C     		mov	r2, r0
 938 0008 FB1D     		add	r3, r7, #7
 939 000a 1A70     		strb	r2, [r3]
 940 000c BB1D     		add	r3, r7, #6
 941 000e 0A1C     		add	r2, r1, #0
 942 0010 1A70     		strb	r2, [r3]
 138:MAX30100_All.c ****     MAX30100_writeRegister(MAX30100_REG_LED_CONFIGURATION, redLedCurrent << 4 | irLedCurrent);
ARM GAS  C:\Users\Davit\AppData\Local\Temp\cc4XR0T4.s 			page 20


 943              		.loc 1 138 0
 944 0012 BB1D     		add	r3, r7, #6
 945 0014 1B78     		ldrb	r3, [r3]
 946 0016 1B01     		lsl	r3, r3, #4
 947 0018 DAB2     		uxtb	r2, r3
 948 001a FB1D     		add	r3, r7, #7
 949 001c 1B78     		ldrb	r3, [r3]
 950 001e 1343     		orr	r3, r2
 951 0020 DBB2     		uxtb	r3, r3
 952 0022 DBB2     		uxtb	r3, r3
 953 0024 0920     		mov	r0, #9
 954 0026 191C     		mov	r1, r3
 955 0028 FFF7FEFF 		bl	MAX30100_writeRegister
 139:MAX30100_All.c **** }
 956              		.loc 1 139 0
 957 002c BD46     		mov	sp, r7
 958 002e 02B0     		add	sp, sp, #8
 959              		@ sp needed
 960 0030 80BD     		pop	{r7, pc}
 961              		.cfi_endproc
 962              	.LFE48:
 963              		.size	MAX30100_setLedsCurrent, .-MAX30100_setLedsCurrent
 964 0032 C046     		.section	.text.MAX30100_setHighresModeEnabled,"ax",%progbits
 965              		.align	2
 966              		.global	MAX30100_setHighresModeEnabled
 967              		.code	16
 968              		.thumb_func
 969              		.type	MAX30100_setHighresModeEnabled, %function
 970              	MAX30100_setHighresModeEnabled:
 971              	.LFB49:
 140:MAX30100_All.c **** 
 141:MAX30100_All.c **** void MAX30100_setHighresModeEnabled(char enabled){
 972              		.loc 1 141 0
 973              		.cfi_startproc
 974 0000 90B5     		push	{r4, r7, lr}
 975              		.cfi_def_cfa_offset 12
 976              		.cfi_offset 4, -12
 977              		.cfi_offset 7, -8
 978              		.cfi_offset 14, -4
 979 0002 85B0     		sub	sp, sp, #20
 980              		.cfi_def_cfa_offset 32
 981 0004 00AF     		add	r7, sp, #0
 982              		.cfi_def_cfa_register 7
 983 0006 021C     		mov	r2, r0
 984 0008 FB1D     		add	r3, r7, #7
 985 000a 1A70     		strb	r2, [r3]
 142:MAX30100_All.c ****     uint8_t previous = MAX30100_readRegister(MAX30100_REG_SPO2_CONFIGURATION);
 986              		.loc 1 142 0
 987 000c 0F23     		mov	r3, #15
 988 000e FC18     		add	r4, r7, r3
 989 0010 0720     		mov	r0, #7
 990 0012 FFF7FEFF 		bl	MAX30100_readRegister
 991 0016 031C     		mov	r3, r0
 992 0018 2370     		strb	r3, [r4]
 143:MAX30100_All.c ****     if (enabled) {
 993              		.loc 1 143 0
 994 001a FB1D     		add	r3, r7, #7
ARM GAS  C:\Users\Davit\AppData\Local\Temp\cc4XR0T4.s 			page 21


 995 001c 1B78     		ldrb	r3, [r3]
 996 001e 002B     		cmp	r3, #0
 997 0020 0AD0     		beq	.L73
 144:MAX30100_All.c ****         MAX30100_writeRegister(MAX30100_REG_SPO2_CONFIGURATION, previous | MAX30100_SPC_SPO2_HI_RES
 998              		.loc 1 144 0
 999 0022 0F23     		mov	r3, #15
 1000 0024 FB18     		add	r3, r7, r3
 1001 0026 1B78     		ldrb	r3, [r3]
 1002 0028 4022     		mov	r2, #64
 1003 002a 1343     		orr	r3, r2
 1004 002c DBB2     		uxtb	r3, r3
 1005 002e 0720     		mov	r0, #7
 1006 0030 191C     		mov	r1, r3
 1007 0032 FFF7FEFF 		bl	MAX30100_writeRegister
 1008 0036 09E0     		b	.L72
 1009              	.L73:
 145:MAX30100_All.c ****     } else {
 146:MAX30100_All.c ****         MAX30100_writeRegister(MAX30100_REG_SPO2_CONFIGURATION, previous & ~MAX30100_SPC_SPO2_HI_RE
 1010              		.loc 1 146 0
 1011 0038 0F23     		mov	r3, #15
 1012 003a FB18     		add	r3, r7, r3
 1013 003c 1B78     		ldrb	r3, [r3]
 1014 003e 4022     		mov	r2, #64
 1015 0040 9343     		bic	r3, r2
 1016 0042 DBB2     		uxtb	r3, r3
 1017 0044 0720     		mov	r0, #7
 1018 0046 191C     		mov	r1, r3
 1019 0048 FFF7FEFF 		bl	MAX30100_writeRegister
 1020              	.L72:
 147:MAX30100_All.c ****     }
 148:MAX30100_All.c **** }
 1021              		.loc 1 148 0
 1022 004c BD46     		mov	sp, r7
 1023 004e 05B0     		add	sp, sp, #20
 1024              		@ sp needed
 1025 0050 90BD     		pop	{r4, r7, pc}
 1026              		.cfi_endproc
 1027              	.LFE49:
 1028              		.size	MAX30100_setHighresModeEnabled, .-MAX30100_setHighresModeEnabled
 1029 0052 C046     		.section	.text.MAX30100_update,"ax",%progbits
 1030              		.align	2
 1031              		.global	MAX30100_update
 1032              		.code	16
 1033              		.thumb_func
 1034              		.type	MAX30100_update, %function
 1035              	MAX30100_update:
 1036              	.LFB50:
 149:MAX30100_All.c **** 
 150:MAX30100_All.c **** void MAX30100_update(){
 1037              		.loc 1 150 0
 1038              		.cfi_startproc
 1039 0000 80B5     		push	{r7, lr}
 1040              		.cfi_def_cfa_offset 8
 1041              		.cfi_offset 7, -8
 1042              		.cfi_offset 14, -4
 1043 0002 00AF     		add	r7, sp, #0
 1044              		.cfi_def_cfa_register 7
ARM GAS  C:\Users\Davit\AppData\Local\Temp\cc4XR0T4.s 			page 22


 151:MAX30100_All.c ****     MAX30100_readFifoData();
 1045              		.loc 1 151 0
 1046 0004 FFF7FEFF 		bl	MAX30100_readFifoData
 152:MAX30100_All.c **** }
 1047              		.loc 1 152 0
 1048 0008 BD46     		mov	sp, r7
 1049              		@ sp needed
 1050 000a 80BD     		pop	{r7, pc}
 1051              		.cfi_endproc
 1052              	.LFE50:
 1053              		.size	MAX30100_update, .-MAX30100_update
 1054              		.section	.text.MAX30100_readRegister,"ax",%progbits
 1055              		.align	2
 1056              		.global	MAX30100_readRegister
 1057              		.code	16
 1058              		.thumb_func
 1059              		.type	MAX30100_readRegister, %function
 1060              	MAX30100_readRegister:
 1061              	.LFB51:
 153:MAX30100_All.c **** 
 154:MAX30100_All.c **** uint8_t MAX30100_readRegister(uint8_t address){
 1062              		.loc 1 154 0
 1063              		.cfi_startproc
 1064 0000 80B5     		push	{r7, lr}
 1065              		.cfi_def_cfa_offset 8
 1066              		.cfi_offset 7, -8
 1067              		.cfi_offset 14, -4
 1068 0002 84B0     		sub	sp, sp, #16
 1069              		.cfi_def_cfa_offset 24
 1070 0004 00AF     		add	r7, sp, #0
 1071              		.cfi_def_cfa_register 7
 1072 0006 021C     		mov	r2, r0
 1073 0008 FB1D     		add	r3, r7, #7
 1074 000a 1A70     		strb	r2, [r3]
 155:MAX30100_All.c ****     /*Wire.beginTransmission(MAX30100_I2C_ADDRESS);
 156:MAX30100_All.c ****     Wire.write(address);
 157:MAX30100_All.c ****     Wire.endTransmission(false);
 158:MAX30100_All.c ****     Wire.requestFrom(MAX30100_I2C_ADDRESS, 1);
 159:MAX30100_All.c **** 
 160:MAX30100_All.c ****     return Wire.read();*/
 161:MAX30100_All.c ****     
 162:MAX30100_All.c ****     uint8 Write_Buf[1] = {0}; //Buffer that will contain the register that will be read from
 1075              		.loc 1 162 0
 1076 000c 0C23     		mov	r3, #12
 1077 000e FB18     		add	r3, r7, r3
 1078 0010 0022     		mov	r2, #0
 1079 0012 1A70     		strb	r2, [r3]
 163:MAX30100_All.c ****     Write_Buf[0] = address;
 1080              		.loc 1 163 0
 1081 0014 0C23     		mov	r3, #12
 1082 0016 FB18     		add	r3, r7, r3
 1083 0018 FA1D     		add	r2, r7, #7
 1084 001a 1278     		ldrb	r2, [r2]
 1085 001c 1A70     		strb	r2, [r3]
 164:MAX30100_All.c ****     
 165:MAX30100_All.c ****     uint8 Read_Buf[1]={0};  //Buffer that will store the value read from the register
 1086              		.loc 1 165 0
ARM GAS  C:\Users\Davit\AppData\Local\Temp\cc4XR0T4.s 			page 23


 1087 001e 0823     		mov	r3, #8
 1088 0020 FB18     		add	r3, r7, r3
 1089 0022 0022     		mov	r2, #0
 1090 0024 1A70     		strb	r2, [r3]
 166:MAX30100_All.c ****     
 167:MAX30100_All.c ****     //Step 1
 168:MAX30100_All.c ****     I2C_1_I2CMasterWriteBuf(MAX30100_I2C_ADDRESS, (uint8 *)Write_Buf, 1, I2C_1_I2C_MODE_NO_STOP);
 1091              		.loc 1 168 0
 1092 0026 0C23     		mov	r3, #12
 1093 0028 FB18     		add	r3, r7, r3
 1094 002a 5720     		mov	r0, #87
 1095 002c 191C     		mov	r1, r3
 1096 002e 0122     		mov	r2, #1
 1097 0030 0223     		mov	r3, #2
 1098 0032 FFF7FEFF 		bl	I2C_1_I2CMasterWriteBuf
 169:MAX30100_All.c ****     while((I2C_1_I2CMasterStatus() & I2C_1_I2C_MSTAT_WR_CMPLT)==0){}
 1099              		.loc 1 169 0
 1100 0036 C046     		mov	r8, r8
 1101              	.L77:
 1102              		.loc 1 169 0 is_stmt 0 discriminator 1
 1103 0038 FFF7FEFF 		bl	I2C_1_I2CMasterStatus
 1104 003c 021C     		mov	r2, r0
 1105 003e 0223     		mov	r3, #2
 1106 0040 1340     		and	r3, r2
 1107 0042 F9D0     		beq	.L77
 170:MAX30100_All.c ****     
 171:MAX30100_All.c ****     //Step 2
 172:MAX30100_All.c ****     I2C_1_I2CMasterReadBuf(MAX30100_I2C_ADDRESS, (uint8 *)Read_Buf, 1, I2C_1_I2C_MODE_REPEAT_START)
 1108              		.loc 1 172 0 is_stmt 1
 1109 0044 0823     		mov	r3, #8
 1110 0046 FB18     		add	r3, r7, r3
 1111 0048 5720     		mov	r0, #87
 1112 004a 191C     		mov	r1, r3
 1113 004c 0122     		mov	r2, #1
 1114 004e 0123     		mov	r3, #1
 1115 0050 FFF7FEFF 		bl	I2C_1_I2CMasterReadBuf
 173:MAX30100_All.c ****     while((I2C_1_I2CMasterStatus() & I2C_1_I2C_MSTAT_RD_CMPLT)==0){}
 1116              		.loc 1 173 0
 1117 0054 C046     		mov	r8, r8
 1118              	.L78:
 1119              		.loc 1 173 0 is_stmt 0 discriminator 1
 1120 0056 FFF7FEFF 		bl	I2C_1_I2CMasterStatus
 1121 005a 021C     		mov	r2, r0
 1122 005c 0123     		mov	r3, #1
 1123 005e 1340     		and	r3, r2
 1124 0060 F9D0     		beq	.L78
 174:MAX30100_All.c ****     
 175:MAX30100_All.c ****     return Read_Buf[0];
 1125              		.loc 1 175 0 is_stmt 1
 1126 0062 0823     		mov	r3, #8
 1127 0064 FB18     		add	r3, r7, r3
 1128 0066 1B78     		ldrb	r3, [r3]
 176:MAX30100_All.c **** }
 1129              		.loc 1 176 0
 1130 0068 181C     		mov	r0, r3
 1131 006a BD46     		mov	sp, r7
 1132 006c 04B0     		add	sp, sp, #16
ARM GAS  C:\Users\Davit\AppData\Local\Temp\cc4XR0T4.s 			page 24


 1133              		@ sp needed
 1134 006e 80BD     		pop	{r7, pc}
 1135              		.cfi_endproc
 1136              	.LFE51:
 1137              		.size	MAX30100_readRegister, .-MAX30100_readRegister
 1138              		.section	.text.MAX30100_writeRegister,"ax",%progbits
 1139              		.align	2
 1140              		.global	MAX30100_writeRegister
 1141              		.code	16
 1142              		.thumb_func
 1143              		.type	MAX30100_writeRegister, %function
 1144              	MAX30100_writeRegister:
 1145              	.LFB52:
 177:MAX30100_All.c **** 
 178:MAX30100_All.c **** void MAX30100_writeRegister(uint8_t address, uint8_t data){
 1146              		.loc 1 178 0
 1147              		.cfi_startproc
 1148 0000 80B5     		push	{r7, lr}
 1149              		.cfi_def_cfa_offset 8
 1150              		.cfi_offset 7, -8
 1151              		.cfi_offset 14, -4
 1152 0002 84B0     		sub	sp, sp, #16
 1153              		.cfi_def_cfa_offset 24
 1154 0004 00AF     		add	r7, sp, #0
 1155              		.cfi_def_cfa_register 7
 1156 0006 021C     		mov	r2, r0
 1157 0008 FB1D     		add	r3, r7, #7
 1158 000a 1A70     		strb	r2, [r3]
 1159 000c BB1D     		add	r3, r7, #6
 1160 000e 0A1C     		add	r2, r1, #0
 1161 0010 1A70     		strb	r2, [r3]
 179:MAX30100_All.c ****     /*Wire.beginTransmission(MAX30100_I2C_ADDRESS);
 180:MAX30100_All.c ****     Wire.write(address);
 181:MAX30100_All.c ****     Wire.write(data);
 182:MAX30100_All.c ****     Wire.endTransmission();*/
 183:MAX30100_All.c ****     
 184:MAX30100_All.c ****     uint8 Write_Buf[2]={0};
 1162              		.loc 1 184 0
 1163 0012 0C23     		mov	r3, #12
 1164 0014 FB18     		add	r3, r7, r3
 1165 0016 0022     		mov	r2, #0
 1166 0018 1A80     		strh	r2, [r3]
 185:MAX30100_All.c ****     Write_Buf[0] = address;          //Assign the first element to be the register you want to writ
 1167              		.loc 1 185 0
 1168 001a 0C23     		mov	r3, #12
 1169 001c FB18     		add	r3, r7, r3
 1170 001e FA1D     		add	r2, r7, #7
 1171 0020 1278     		ldrb	r2, [r2]
 1172 0022 1A70     		strb	r2, [r3]
 186:MAX30100_All.c ****     Write_Buf[1] = data;             //Assign the second elemnt to be the value you wish to write t
 1173              		.loc 1 186 0
 1174 0024 0C23     		mov	r3, #12
 1175 0026 FB18     		add	r3, r7, r3
 1176 0028 BA1D     		add	r2, r7, #6
 1177 002a 1278     		ldrb	r2, [r2]
 1178 002c 5A70     		strb	r2, [r3, #1]
 187:MAX30100_All.c ****     
ARM GAS  C:\Users\Davit\AppData\Local\Temp\cc4XR0T4.s 			page 25


 188:MAX30100_All.c ****     
 189:MAX30100_All.c ****     I2C_1_I2CMasterWriteBuf(MAX30100_I2C_ADDRESS, (uint8 *)Write_Buf, 2, I2C_1_I2C_MODE_COMPLETE_XF
 1179              		.loc 1 189 0
 1180 002e 0C23     		mov	r3, #12
 1181 0030 FB18     		add	r3, r7, r3
 1182 0032 5720     		mov	r0, #87
 1183 0034 191C     		mov	r1, r3
 1184 0036 0222     		mov	r2, #2
 1185 0038 0023     		mov	r3, #0
 1186 003a FFF7FEFF 		bl	I2C_1_I2CMasterWriteBuf
 190:MAX30100_All.c ****     while((I2C_1_I2CMasterStatus()&I2C_1_I2C_MSTAT_WR_CMPLT)==0);
 1187              		.loc 1 190 0
 1188 003e C046     		mov	r8, r8
 1189              	.L81:
 1190              		.loc 1 190 0 is_stmt 0 discriminator 1
 1191 0040 FFF7FEFF 		bl	I2C_1_I2CMasterStatus
 1192 0044 021C     		mov	r2, r0
 1193 0046 0223     		mov	r3, #2
 1194 0048 1340     		and	r3, r2
 1195 004a F9D0     		beq	.L81
 191:MAX30100_All.c ****         
 192:MAX30100_All.c ****     return;
 1196              		.loc 1 192 0 is_stmt 1
 1197 004c C046     		mov	r8, r8
 193:MAX30100_All.c **** }
 1198              		.loc 1 193 0
 1199 004e BD46     		mov	sp, r7
 1200 0050 04B0     		add	sp, sp, #16
 1201              		@ sp needed
 1202 0052 80BD     		pop	{r7, pc}
 1203              		.cfi_endproc
 1204              	.LFE52:
 1205              		.size	MAX30100_writeRegister, .-MAX30100_writeRegister
 1206              		.section	.text.MAX30100_burstRead,"ax",%progbits
 1207              		.align	2
 1208              		.global	MAX30100_burstRead
 1209              		.code	16
 1210              		.thumb_func
 1211              		.type	MAX30100_burstRead, %function
 1212              	MAX30100_burstRead:
 1213              	.LFB53:
 194:MAX30100_All.c **** 
 195:MAX30100_All.c **** void MAX30100_burstRead(uint8_t baseAddress, uint8_t *buffer, uint8_t length){
 1214              		.loc 1 195 0
 1215              		.cfi_startproc
 1216 0000 80B5     		push	{r7, lr}
 1217              		.cfi_def_cfa_offset 8
 1218              		.cfi_offset 7, -8
 1219              		.cfi_offset 14, -4
 1220 0002 84B0     		sub	sp, sp, #16
 1221              		.cfi_def_cfa_offset 24
 1222 0004 00AF     		add	r7, sp, #0
 1223              		.cfi_def_cfa_register 7
 1224 0006 3960     		str	r1, [r7]
 1225 0008 111C     		mov	r1, r2
 1226 000a FB1D     		add	r3, r7, #7
 1227 000c 021C     		add	r2, r0, #0
ARM GAS  C:\Users\Davit\AppData\Local\Temp\cc4XR0T4.s 			page 26


 1228 000e 1A70     		strb	r2, [r3]
 1229 0010 BB1D     		add	r3, r7, #6
 1230 0012 0A1C     		add	r2, r1, #0
 1231 0014 1A70     		strb	r2, [r3]
 196:MAX30100_All.c ****     /*Wire.beginTransmission(MAX30100_I2C_ADDRESS);
 197:MAX30100_All.c ****     Wire.write(baseAddress);
 198:MAX30100_All.c ****     Wire.endTransmission(0);
 199:MAX30100_All.c ****     Wire.requestFrom((uint8_t)MAX30100_I2C_ADDRESS, length);
 200:MAX30100_All.c **** 
 201:MAX30100_All.c ****     uint8_t idx = 0;
 202:MAX30100_All.c ****     while (Wire.available()) {
 203:MAX30100_All.c ****         buffer[idx++] = Wire.read();
 204:MAX30100_All.c ****     }*/
 205:MAX30100_All.c ****     
 206:MAX30100_All.c ****     /*int i = 0;
 207:MAX30100_All.c ****     for(; i < length; i++){
 208:MAX30100_All.c ****         buffer[i++] = MAX30100_readRegister(baseAddress);
 209:MAX30100_All.c ****     }*/
 210:MAX30100_All.c ****     
 211:MAX30100_All.c ****     uint8 Write_Buf[1] = {0}; //Buffer that will contain the register that will be read from
 1232              		.loc 1 211 0
 1233 0016 0C23     		mov	r3, #12
 1234 0018 FB18     		add	r3, r7, r3
 1235 001a 0022     		mov	r2, #0
 1236 001c 1A70     		strb	r2, [r3]
 212:MAX30100_All.c ****     Write_Buf[0] = baseAddress;
 1237              		.loc 1 212 0
 1238 001e 0C23     		mov	r3, #12
 1239 0020 FB18     		add	r3, r7, r3
 1240 0022 FA1D     		add	r2, r7, #7
 1241 0024 1278     		ldrb	r2, [r2]
 1242 0026 1A70     		strb	r2, [r3]
 213:MAX30100_All.c ****     
 214:MAX30100_All.c ****     //uint8 Read_Buf[1] ={0};  //Buffer that will store the value read from the register
 215:MAX30100_All.c ****     
 216:MAX30100_All.c ****     //Step 1
 217:MAX30100_All.c ****     I2C_1_I2CMasterWriteBuf(MAX30100_I2C_ADDRESS, (uint8 *)Write_Buf, 1, I2C_1_I2C_MODE_NO_STOP);
 1243              		.loc 1 217 0
 1244 0028 0C23     		mov	r3, #12
 1245 002a FB18     		add	r3, r7, r3
 1246 002c 5720     		mov	r0, #87
 1247 002e 191C     		mov	r1, r3
 1248 0030 0122     		mov	r2, #1
 1249 0032 0223     		mov	r3, #2
 1250 0034 FFF7FEFF 		bl	I2C_1_I2CMasterWriteBuf
 218:MAX30100_All.c ****     while((I2C_1_I2CMasterStatus() & I2C_1_I2C_MSTAT_WR_CMPLT)==0){}
 1251              		.loc 1 218 0
 1252 0038 C046     		mov	r8, r8
 1253              	.L84:
 1254              		.loc 1 218 0 is_stmt 0 discriminator 1
 1255 003a FFF7FEFF 		bl	I2C_1_I2CMasterStatus
 1256 003e 021C     		mov	r2, r0
 1257 0040 0223     		mov	r3, #2
 1258 0042 1340     		and	r3, r2
 1259 0044 F9D0     		beq	.L84
 219:MAX30100_All.c ****     
 220:MAX30100_All.c ****     //Step 2
ARM GAS  C:\Users\Davit\AppData\Local\Temp\cc4XR0T4.s 			page 27


 221:MAX30100_All.c ****     I2C_1_I2CMasterReadBuf(MAX30100_I2C_ADDRESS, buffer, length, I2C_1_I2C_MODE_REPEAT_START);
 1260              		.loc 1 221 0 is_stmt 1
 1261 0046 BB1D     		add	r3, r7, #6
 1262 0048 1B78     		ldrb	r3, [r3]
 1263 004a 3A68     		ldr	r2, [r7]
 1264 004c 5720     		mov	r0, #87
 1265 004e 111C     		mov	r1, r2
 1266 0050 1A1C     		mov	r2, r3
 1267 0052 0123     		mov	r3, #1
 1268 0054 FFF7FEFF 		bl	I2C_1_I2CMasterReadBuf
 222:MAX30100_All.c ****     while((I2C_1_I2CMasterStatus() & I2C_1_I2C_MSTAT_RD_CMPLT)==0){}
 1269              		.loc 1 222 0
 1270 0058 C046     		mov	r8, r8
 1271              	.L85:
 1272              		.loc 1 222 0 is_stmt 0 discriminator 1
 1273 005a FFF7FEFF 		bl	I2C_1_I2CMasterStatus
 1274 005e 021C     		mov	r2, r0
 1275 0060 0123     		mov	r3, #1
 1276 0062 1340     		and	r3, r2
 1277 0064 F9D0     		beq	.L85
 223:MAX30100_All.c **** }
 1278              		.loc 1 223 0 is_stmt 1
 1279 0066 BD46     		mov	sp, r7
 1280 0068 04B0     		add	sp, sp, #16
 1281              		@ sp needed
 1282 006a 80BD     		pop	{r7, pc}
 1283              		.cfi_endproc
 1284              	.LFE53:
 1285              		.size	MAX30100_burstRead, .-MAX30100_burstRead
 1286              		.section	.text.MAX30100_readFifoData,"ax",%progbits
 1287              		.align	2
 1288              		.global	MAX30100_readFifoData
 1289              		.code	16
 1290              		.thumb_func
 1291              		.type	MAX30100_readFifoData, %function
 1292              	MAX30100_readFifoData:
 1293              	.LFB54:
 224:MAX30100_All.c **** 
 225:MAX30100_All.c **** void MAX30100_readFifoData(){
 1294              		.loc 1 225 0
 1295              		.cfi_startproc
 1296 0000 80B5     		push	{r7, lr}
 1297              		.cfi_def_cfa_offset 8
 1298              		.cfi_offset 7, -8
 1299              		.cfi_offset 14, -4
 1300 0002 82B0     		sub	sp, sp, #8
 1301              		.cfi_def_cfa_offset 16
 1302 0004 00AF     		add	r7, sp, #0
 1303              		.cfi_def_cfa_register 7
 226:MAX30100_All.c ****     uint8_t buffer[4];
 227:MAX30100_All.c **** 
 228:MAX30100_All.c ****     MAX30100_burstRead(MAX30100_REG_FIFO_DATA, buffer, 4);
 1304              		.loc 1 228 0
 1305 0006 3B1D     		add	r3, r7, #4
 1306 0008 0520     		mov	r0, #5
 1307 000a 191C     		mov	r1, r3
 1308 000c 0422     		mov	r2, #4
ARM GAS  C:\Users\Davit\AppData\Local\Temp\cc4XR0T4.s 			page 28


 1309 000e FFF7FEFF 		bl	MAX30100_burstRead
 229:MAX30100_All.c **** 
 230:MAX30100_All.c ****     // Warning: the values are always left-aligned
 231:MAX30100_All.c ****     pulseOximeter.hrm->rawIRValue = (buffer[0] << 8) | buffer[1];
 1310              		.loc 1 231 0
 1311 0012 0E4B     		ldr	r3, .L87
 1312 0014 5B6B     		ldr	r3, [r3, #52]
 1313 0016 3A1D     		add	r2, r7, #4
 1314 0018 1278     		ldrb	r2, [r2]
 1315 001a 1202     		lsl	r2, r2, #8
 1316 001c 91B2     		uxth	r1, r2
 1317 001e 3A1D     		add	r2, r7, #4
 1318 0020 5278     		ldrb	r2, [r2, #1]
 1319 0022 92B2     		uxth	r2, r2
 1320 0024 0A43     		orr	r2, r1
 1321 0026 92B2     		uxth	r2, r2
 1322 0028 92B2     		uxth	r2, r2
 1323 002a 1A80     		strh	r2, [r3]
 232:MAX30100_All.c ****     pulseOximeter.hrm->rawRedValue = (buffer[2] << 8) | buffer[3];
 1324              		.loc 1 232 0
 1325 002c 074B     		ldr	r3, .L87
 1326 002e 5B6B     		ldr	r3, [r3, #52]
 1327 0030 3A1D     		add	r2, r7, #4
 1328 0032 9278     		ldrb	r2, [r2, #2]
 1329 0034 1202     		lsl	r2, r2, #8
 1330 0036 91B2     		uxth	r1, r2
 1331 0038 3A1D     		add	r2, r7, #4
 1332 003a D278     		ldrb	r2, [r2, #3]
 1333 003c 92B2     		uxth	r2, r2
 1334 003e 0A43     		orr	r2, r1
 1335 0040 92B2     		uxth	r2, r2
 1336 0042 92B2     		uxth	r2, r2
 1337 0044 5A80     		strh	r2, [r3, #2]
 233:MAX30100_All.c **** }
 1338              		.loc 1 233 0
 1339 0046 BD46     		mov	sp, r7
 1340 0048 02B0     		add	sp, sp, #8
 1341              		@ sp needed
 1342 004a 80BD     		pop	{r7, pc}
 1343              	.L88:
 1344              		.align	2
 1345              	.L87:
 1346 004c 00000000 		.word	pulseOximeter
 1347              		.cfi_endproc
 1348              	.LFE54:
 1349              		.size	MAX30100_readFifoData, .-MAX30100_readFifoData
 1350              		.section	.text.SpO2Calculator_Init,"ax",%progbits
 1351              		.align	2
 1352              		.global	SpO2Calculator_Init
 1353              		.code	16
 1354              		.thumb_func
 1355              		.type	SpO2Calculator_Init, %function
 1356              	SpO2Calculator_Init:
 1357              	.LFB55:
 234:MAX30100_All.c **** 
 235:MAX30100_All.c **** // SaO2 Look-up Table
 236:MAX30100_All.c **** // http://www.ti.com/lit/an/slaa274b/slaa274b.pdf
ARM GAS  C:\Users\Davit\AppData\Local\Temp\cc4XR0T4.s 			page 29


 237:MAX30100_All.c **** 
 238:MAX30100_All.c **** 
 239:MAX30100_All.c **** void SpO2Calculator_Init(){
 1358              		.loc 1 239 0
 1359              		.cfi_startproc
 1360 0000 80B5     		push	{r7, lr}
 1361              		.cfi_def_cfa_offset 8
 1362              		.cfi_offset 7, -8
 1363              		.cfi_offset 14, -4
 1364 0002 82B0     		sub	sp, sp, #8
 1365              		.cfi_def_cfa_offset 16
 1366 0004 00AF     		add	r7, sp, #0
 1367              		.cfi_def_cfa_register 7
 240:MAX30100_All.c ****     /*spO2calculator.spO2LUT[43] = {100,100,100,100,99,99,99,99,99,99,98,98,98,98,
 241:MAX30100_All.c ****                                              98,97,97,97,97,97,97,96,96,96,96,96,96,95,95,
 242:MAX30100_All.c ****                                              95,95,95,95,94,94,94,94,94,93,93,93,93,93};*/
 243:MAX30100_All.c ****     int i = 0;
 1368              		.loc 1 243 0
 1369 0006 0023     		mov	r3, #0
 1370 0008 7B60     		str	r3, [r7, #4]
 244:MAX30100_All.c ****     for(; i < 4; i++)
 1371              		.loc 1 244 0
 1372 000a 08E0     		b	.L90
 1373              	.L91:
 245:MAX30100_All.c ****         pulseOximeter.spO2calculator->spO2LUT[i] = 100;
 1374              		.loc 1 245 0 discriminator 2
 1375 000c 3F4B     		ldr	r3, .L106
 1376 000e 1A6B     		ldr	r2, [r3, #48]
 1377 0010 7B68     		ldr	r3, [r7, #4]
 1378 0012 D318     		add	r3, r2, r3
 1379 0014 6422     		mov	r2, #100
 1380 0016 1A70     		strb	r2, [r3]
 244:MAX30100_All.c ****     for(; i < 4; i++)
 1381              		.loc 1 244 0 discriminator 2
 1382 0018 7B68     		ldr	r3, [r7, #4]
 1383 001a 0133     		add	r3, r3, #1
 1384 001c 7B60     		str	r3, [r7, #4]
 1385              	.L90:
 244:MAX30100_All.c ****     for(; i < 4; i++)
 1386              		.loc 1 244 0 is_stmt 0 discriminator 1
 1387 001e 7B68     		ldr	r3, [r7, #4]
 1388 0020 032B     		cmp	r3, #3
 1389 0022 F3DD     		ble	.L91
 246:MAX30100_All.c ****     for(; i < 10; i++)
 1390              		.loc 1 246 0 is_stmt 1
 1391 0024 08E0     		b	.L92
 1392              	.L93:
 247:MAX30100_All.c ****         pulseOximeter.spO2calculator->spO2LUT[i] = 99;
 1393              		.loc 1 247 0 discriminator 2
 1394 0026 394B     		ldr	r3, .L106
 1395 0028 1A6B     		ldr	r2, [r3, #48]
 1396 002a 7B68     		ldr	r3, [r7, #4]
 1397 002c D318     		add	r3, r2, r3
 1398 002e 6322     		mov	r2, #99
 1399 0030 1A70     		strb	r2, [r3]
 246:MAX30100_All.c ****     for(; i < 10; i++)
 1400              		.loc 1 246 0 discriminator 2
ARM GAS  C:\Users\Davit\AppData\Local\Temp\cc4XR0T4.s 			page 30


 1401 0032 7B68     		ldr	r3, [r7, #4]
 1402 0034 0133     		add	r3, r3, #1
 1403 0036 7B60     		str	r3, [r7, #4]
 1404              	.L92:
 246:MAX30100_All.c ****     for(; i < 10; i++)
 1405              		.loc 1 246 0 is_stmt 0 discriminator 1
 1406 0038 7B68     		ldr	r3, [r7, #4]
 1407 003a 092B     		cmp	r3, #9
 1408 003c F3DD     		ble	.L93
 248:MAX30100_All.c ****     for(; i < 15; i++)
 1409              		.loc 1 248 0 is_stmt 1
 1410 003e 08E0     		b	.L94
 1411              	.L95:
 249:MAX30100_All.c ****         pulseOximeter.spO2calculator->spO2LUT[i] = 98;
 1412              		.loc 1 249 0 discriminator 2
 1413 0040 324B     		ldr	r3, .L106
 1414 0042 1A6B     		ldr	r2, [r3, #48]
 1415 0044 7B68     		ldr	r3, [r7, #4]
 1416 0046 D318     		add	r3, r2, r3
 1417 0048 6222     		mov	r2, #98
 1418 004a 1A70     		strb	r2, [r3]
 248:MAX30100_All.c ****     for(; i < 15; i++)
 1419              		.loc 1 248 0 discriminator 2
 1420 004c 7B68     		ldr	r3, [r7, #4]
 1421 004e 0133     		add	r3, r3, #1
 1422 0050 7B60     		str	r3, [r7, #4]
 1423              	.L94:
 248:MAX30100_All.c ****     for(; i < 15; i++)
 1424              		.loc 1 248 0 is_stmt 0 discriminator 1
 1425 0052 7B68     		ldr	r3, [r7, #4]
 1426 0054 0E2B     		cmp	r3, #14
 1427 0056 F3DD     		ble	.L95
 250:MAX30100_All.c ****     for(; i < 21; i++)
 1428              		.loc 1 250 0 is_stmt 1
 1429 0058 08E0     		b	.L96
 1430              	.L97:
 251:MAX30100_All.c ****         pulseOximeter.spO2calculator->spO2LUT[i] = 97;
 1431              		.loc 1 251 0 discriminator 2
 1432 005a 2C4B     		ldr	r3, .L106
 1433 005c 1A6B     		ldr	r2, [r3, #48]
 1434 005e 7B68     		ldr	r3, [r7, #4]
 1435 0060 D318     		add	r3, r2, r3
 1436 0062 6122     		mov	r2, #97
 1437 0064 1A70     		strb	r2, [r3]
 250:MAX30100_All.c ****     for(; i < 21; i++)
 1438              		.loc 1 250 0 discriminator 2
 1439 0066 7B68     		ldr	r3, [r7, #4]
 1440 0068 0133     		add	r3, r3, #1
 1441 006a 7B60     		str	r3, [r7, #4]
 1442              	.L96:
 250:MAX30100_All.c ****     for(; i < 21; i++)
 1443              		.loc 1 250 0 is_stmt 0 discriminator 1
 1444 006c 7B68     		ldr	r3, [r7, #4]
 1445 006e 142B     		cmp	r3, #20
 1446 0070 F3DD     		ble	.L97
 252:MAX30100_All.c ****     for(; i < 27; i++)
 1447              		.loc 1 252 0 is_stmt 1
ARM GAS  C:\Users\Davit\AppData\Local\Temp\cc4XR0T4.s 			page 31


 1448 0072 08E0     		b	.L98
 1449              	.L99:
 253:MAX30100_All.c ****         pulseOximeter.spO2calculator->spO2LUT[i] = 96;
 1450              		.loc 1 253 0 discriminator 2
 1451 0074 254B     		ldr	r3, .L106
 1452 0076 1A6B     		ldr	r2, [r3, #48]
 1453 0078 7B68     		ldr	r3, [r7, #4]
 1454 007a D318     		add	r3, r2, r3
 1455 007c 6022     		mov	r2, #96
 1456 007e 1A70     		strb	r2, [r3]
 252:MAX30100_All.c ****     for(; i < 27; i++)
 1457              		.loc 1 252 0 discriminator 2
 1458 0080 7B68     		ldr	r3, [r7, #4]
 1459 0082 0133     		add	r3, r3, #1
 1460 0084 7B60     		str	r3, [r7, #4]
 1461              	.L98:
 252:MAX30100_All.c ****     for(; i < 27; i++)
 1462              		.loc 1 252 0 is_stmt 0 discriminator 1
 1463 0086 7B68     		ldr	r3, [r7, #4]
 1464 0088 1A2B     		cmp	r3, #26
 1465 008a F3DD     		ble	.L99
 254:MAX30100_All.c ****     for(; i < 33; i++)
 1466              		.loc 1 254 0 is_stmt 1
 1467 008c 08E0     		b	.L100
 1468              	.L101:
 255:MAX30100_All.c ****         pulseOximeter.spO2calculator->spO2LUT[i] = 95;
 1469              		.loc 1 255 0 discriminator 2
 1470 008e 1F4B     		ldr	r3, .L106
 1471 0090 1A6B     		ldr	r2, [r3, #48]
 1472 0092 7B68     		ldr	r3, [r7, #4]
 1473 0094 D318     		add	r3, r2, r3
 1474 0096 5F22     		mov	r2, #95
 1475 0098 1A70     		strb	r2, [r3]
 254:MAX30100_All.c ****     for(; i < 33; i++)
 1476              		.loc 1 254 0 discriminator 2
 1477 009a 7B68     		ldr	r3, [r7, #4]
 1478 009c 0133     		add	r3, r3, #1
 1479 009e 7B60     		str	r3, [r7, #4]
 1480              	.L100:
 254:MAX30100_All.c ****     for(; i < 33; i++)
 1481              		.loc 1 254 0 is_stmt 0 discriminator 1
 1482 00a0 7B68     		ldr	r3, [r7, #4]
 1483 00a2 202B     		cmp	r3, #32
 1484 00a4 F3DD     		ble	.L101
 256:MAX30100_All.c ****     for(; i < 38; i++)
 1485              		.loc 1 256 0 is_stmt 1
 1486 00a6 08E0     		b	.L102
 1487              	.L103:
 257:MAX30100_All.c ****         pulseOximeter.spO2calculator->spO2LUT[i] = 94;
 1488              		.loc 1 257 0 discriminator 2
 1489 00a8 184B     		ldr	r3, .L106
 1490 00aa 1A6B     		ldr	r2, [r3, #48]
 1491 00ac 7B68     		ldr	r3, [r7, #4]
 1492 00ae D318     		add	r3, r2, r3
 1493 00b0 5E22     		mov	r2, #94
 1494 00b2 1A70     		strb	r2, [r3]
 256:MAX30100_All.c ****     for(; i < 38; i++)
ARM GAS  C:\Users\Davit\AppData\Local\Temp\cc4XR0T4.s 			page 32


 1495              		.loc 1 256 0 discriminator 2
 1496 00b4 7B68     		ldr	r3, [r7, #4]
 1497 00b6 0133     		add	r3, r3, #1
 1498 00b8 7B60     		str	r3, [r7, #4]
 1499              	.L102:
 256:MAX30100_All.c ****     for(; i < 38; i++)
 1500              		.loc 1 256 0 is_stmt 0 discriminator 1
 1501 00ba 7B68     		ldr	r3, [r7, #4]
 1502 00bc 252B     		cmp	r3, #37
 1503 00be F3DD     		ble	.L103
 258:MAX30100_All.c ****     for(; i < 43; i++)
 1504              		.loc 1 258 0 is_stmt 1
 1505 00c0 08E0     		b	.L104
 1506              	.L105:
 259:MAX30100_All.c ****         pulseOximeter.spO2calculator->spO2LUT[i] = 93;
 1507              		.loc 1 259 0 discriminator 2
 1508 00c2 124B     		ldr	r3, .L106
 1509 00c4 1A6B     		ldr	r2, [r3, #48]
 1510 00c6 7B68     		ldr	r3, [r7, #4]
 1511 00c8 D318     		add	r3, r2, r3
 1512 00ca 5D22     		mov	r2, #93
 1513 00cc 1A70     		strb	r2, [r3]
 258:MAX30100_All.c ****     for(; i < 43; i++)
 1514              		.loc 1 258 0 discriminator 2
 1515 00ce 7B68     		ldr	r3, [r7, #4]
 1516 00d0 0133     		add	r3, r3, #1
 1517 00d2 7B60     		str	r3, [r7, #4]
 1518              	.L104:
 258:MAX30100_All.c ****     for(; i < 43; i++)
 1519              		.loc 1 258 0 is_stmt 0 discriminator 1
 1520 00d4 7B68     		ldr	r3, [r7, #4]
 1521 00d6 2A2B     		cmp	r3, #42
 1522 00d8 F3DD     		ble	.L105
 260:MAX30100_All.c ****     
 261:MAX30100_All.c ****     pulseOximeter.spO2calculator->irACValueSqSum = 0;
 1523              		.loc 1 261 0 is_stmt 1
 1524 00da 0C4B     		ldr	r3, .L106
 1525 00dc 1B6B     		ldr	r3, [r3, #48]
 1526 00de 0022     		mov	r2, #0
 1527 00e0 DA62     		str	r2, [r3, #44]
 262:MAX30100_All.c ****     pulseOximeter.spO2calculator->redACValueSqSum = 0;
 1528              		.loc 1 262 0
 1529 00e2 0A4B     		ldr	r3, .L106
 1530 00e4 1B6B     		ldr	r3, [r3, #48]
 1531 00e6 0022     		mov	r2, #0
 1532 00e8 1A63     		str	r2, [r3, #48]
 263:MAX30100_All.c ****     pulseOximeter.spO2calculator->beatsDetectedNum = 0;
 1533              		.loc 1 263 0
 1534 00ea 084B     		ldr	r3, .L106
 1535 00ec 1B6B     		ldr	r3, [r3, #48]
 1536 00ee 3422     		mov	r2, #52
 1537 00f0 0021     		mov	r1, #0
 1538 00f2 9954     		strb	r1, [r3, r2]
 264:MAX30100_All.c ****     pulseOximeter.spO2calculator->samplesRecorded = 0;
 1539              		.loc 1 264 0
 1540 00f4 054B     		ldr	r3, .L106
 1541 00f6 1B6B     		ldr	r3, [r3, #48]
ARM GAS  C:\Users\Davit\AppData\Local\Temp\cc4XR0T4.s 			page 33


 1542 00f8 0022     		mov	r2, #0
 1543 00fa 9A63     		str	r2, [r3, #56]
 265:MAX30100_All.c ****     pulseOximeter.spO2calculator->spO2 = 0;
 1544              		.loc 1 265 0
 1545 00fc 034B     		ldr	r3, .L106
 1546 00fe 1B6B     		ldr	r3, [r3, #48]
 1547 0100 3C22     		mov	r2, #60
 1548 0102 0021     		mov	r1, #0
 1549 0104 9954     		strb	r1, [r3, r2]
 266:MAX30100_All.c **** }
 1550              		.loc 1 266 0
 1551 0106 BD46     		mov	sp, r7
 1552 0108 02B0     		add	sp, sp, #8
 1553              		@ sp needed
 1554 010a 80BD     		pop	{r7, pc}
 1555              	.L107:
 1556              		.align	2
 1557              	.L106:
 1558 010c 00000000 		.word	pulseOximeter
 1559              		.cfi_endproc
 1560              	.LFE55:
 1561              		.size	SpO2Calculator_Init, .-SpO2Calculator_Init
 1562              		.global	__aeabi_f2uiz
 1563              		.section	.text.SpO2Calculator_update,"ax",%progbits
 1564              		.align	2
 1565              		.global	SpO2Calculator_update
 1566              		.code	16
 1567              		.thumb_func
 1568              		.type	SpO2Calculator_update, %function
 1569              	SpO2Calculator_update:
 1570              	.LFB56:
 267:MAX30100_All.c **** 
 268:MAX30100_All.c **** void SpO2Calculator_update(float irACValue, float redACValue, char beatDetected){
 1571              		.loc 1 268 0
 1572              		.cfi_startproc
 1573 0000 F0B5     		push	{r4, r5, r6, r7, lr}
 1574              		.cfi_def_cfa_offset 20
 1575              		.cfi_offset 4, -20
 1576              		.cfi_offset 5, -16
 1577              		.cfi_offset 6, -12
 1578              		.cfi_offset 7, -8
 1579              		.cfi_offset 14, -4
 1580 0002 87B0     		sub	sp, sp, #28
 1581              		.cfi_def_cfa_offset 48
 1582 0004 00AF     		add	r7, sp, #0
 1583              		.cfi_def_cfa_register 7
 1584 0006 F860     		str	r0, [r7, #12]
 1585 0008 B960     		str	r1, [r7, #8]
 1586 000a FB1D     		add	r3, r7, #7
 1587 000c 1A70     		strb	r2, [r3]
 269:MAX30100_All.c ****     pulseOximeter.spO2calculator->irACValueSqSum += irACValue * irACValue;
 1588              		.loc 1 269 0
 1589 000e 5D4B     		ldr	r3, .L117
 1590 0010 1C6B     		ldr	r4, [r3, #48]
 1591 0012 5C4B     		ldr	r3, .L117
 1592 0014 1B6B     		ldr	r3, [r3, #48]
 1593 0016 DD6A     		ldr	r5, [r3, #44]
ARM GAS  C:\Users\Davit\AppData\Local\Temp\cc4XR0T4.s 			page 34


 1594 0018 F868     		ldr	r0, [r7, #12]
 1595 001a F968     		ldr	r1, [r7, #12]
 1596 001c FFF7FEFF 		bl	__aeabi_fmul
 1597 0020 031C     		add	r3, r0, #0
 1598 0022 281C     		add	r0, r5, #0
 1599 0024 191C     		add	r1, r3, #0
 1600 0026 FFF7FEFF 		bl	__aeabi_fadd
 1601 002a 031C     		add	r3, r0, #0
 1602 002c E362     		str	r3, [r4, #44]
 270:MAX30100_All.c ****     pulseOximeter.spO2calculator->redACValueSqSum += redACValue * redACValue;
 1603              		.loc 1 270 0
 1604 002e 554B     		ldr	r3, .L117
 1605 0030 1C6B     		ldr	r4, [r3, #48]
 1606 0032 544B     		ldr	r3, .L117
 1607 0034 1B6B     		ldr	r3, [r3, #48]
 1608 0036 1D6B     		ldr	r5, [r3, #48]
 1609 0038 B868     		ldr	r0, [r7, #8]
 1610 003a B968     		ldr	r1, [r7, #8]
 1611 003c FFF7FEFF 		bl	__aeabi_fmul
 1612 0040 031C     		add	r3, r0, #0
 1613 0042 281C     		add	r0, r5, #0
 1614 0044 191C     		add	r1, r3, #0
 1615 0046 FFF7FEFF 		bl	__aeabi_fadd
 1616 004a 031C     		add	r3, r0, #0
 1617 004c 2363     		str	r3, [r4, #48]
 271:MAX30100_All.c ****     ++(pulseOximeter.spO2calculator->samplesRecorded);
 1618              		.loc 1 271 0
 1619 004e 4D4B     		ldr	r3, .L117
 1620 0050 1B6B     		ldr	r3, [r3, #48]
 1621 0052 9A6B     		ldr	r2, [r3, #56]
 1622 0054 0132     		add	r2, r2, #1
 1623 0056 9A63     		str	r2, [r3, #56]
 272:MAX30100_All.c **** 
 273:MAX30100_All.c ****     if (beatDetected) {
 1624              		.loc 1 273 0
 1625 0058 FB1D     		add	r3, r7, #7
 1626 005a 1B78     		ldrb	r3, [r3]
 1627 005c 002B     		cmp	r3, #0
 1628 005e 00D1     		bne	.LCB1433
 1629 0060 8CE0     		b	.L108	@long jump
 1630              	.LCB1433:
 274:MAX30100_All.c ****         ++(pulseOximeter.spO2calculator->beatsDetectedNum);
 1631              		.loc 1 274 0
 1632 0062 484B     		ldr	r3, .L117
 1633 0064 1B6B     		ldr	r3, [r3, #48]
 1634 0066 3422     		mov	r2, #52
 1635 0068 9A5C     		ldrb	r2, [r3, r2]
 1636 006a 0132     		add	r2, r2, #1
 1637 006c D1B2     		uxtb	r1, r2
 1638 006e 3422     		mov	r2, #52
 1639 0070 9954     		strb	r1, [r3, r2]
 275:MAX30100_All.c ****         if (pulseOximeter.spO2calculator->beatsDetectedNum == CALCULATE_EVERY_N_BEATS) {
 1640              		.loc 1 275 0
 1641 0072 444B     		ldr	r3, .L117
 1642 0074 1B6B     		ldr	r3, [r3, #48]
 1643 0076 3422     		mov	r2, #52
 1644 0078 9B5C     		ldrb	r3, [r3, r2]
ARM GAS  C:\Users\Davit\AppData\Local\Temp\cc4XR0T4.s 			page 35


 1645 007a 032B     		cmp	r3, #3
 1646 007c 00D0     		beq	.LCB1447
 1647 007e 7DE0     		b	.L108	@long jump
 1648              	.LCB1447:
 1649              	.LBB3:
 276:MAX30100_All.c ****             float acSqRatio = 
 277:MAX30100_All.c ****                 100.0 * 
 278:MAX30100_All.c ****                 log(pulseOximeter.spO2calculator->redACValueSqSum/pulseOximeter.spO2calculator->sam
 1650              		.loc 1 278 0
 1651 0080 404B     		ldr	r3, .L117
 1652 0082 1B6B     		ldr	r3, [r3, #48]
 1653 0084 1C6B     		ldr	r4, [r3, #48]
 1654 0086 3F4B     		ldr	r3, .L117
 1655 0088 1B6B     		ldr	r3, [r3, #48]
 1656 008a 9B6B     		ldr	r3, [r3, #56]
 1657 008c 181C     		mov	r0, r3
 1658 008e FFF7FEFF 		bl	__aeabi_ui2f
 1659 0092 031C     		add	r3, r0, #0
 1660 0094 201C     		add	r0, r4, #0
 1661 0096 191C     		add	r1, r3, #0
 1662 0098 FFF7FEFF 		bl	__aeabi_fdiv
 1663 009c 031C     		add	r3, r0, #0
 1664 009e 181C     		add	r0, r3, #0
 1665 00a0 FFF7FEFF 		bl	__aeabi_f2d
 1666 00a4 031C     		mov	r3, r0
 1667 00a6 0C1C     		mov	r4, r1
 1668 00a8 181C     		mov	r0, r3
 1669 00aa 211C     		mov	r1, r4
 1670 00ac FFF7FEFF 		bl	log
 1671 00b0 031C     		mov	r3, r0
 1672 00b2 0C1C     		mov	r4, r1
 277:MAX30100_All.c ****                 log(pulseOximeter.spO2calculator->redACValueSqSum/pulseOximeter.spO2calculator->sam
 1673              		.loc 1 277 0
 1674 00b4 181C     		mov	r0, r3
 1675 00b6 211C     		mov	r1, r4
 1676 00b8 0022     		mov	r2, #0
 1677 00ba 334B     		ldr	r3, .L117+4
 1678 00bc FFF7FEFF 		bl	__aeabi_dmul
 1679 00c0 031C     		mov	r3, r0
 1680 00c2 0C1C     		mov	r4, r1
 1681 00c4 1D1C     		mov	r5, r3
 1682 00c6 261C     		mov	r6, r4
 279:MAX30100_All.c ****                 log(pulseOximeter.spO2calculator->irACValueSqSum/pulseOximeter.spO2calculator->samp
 1683              		.loc 1 279 0
 1684 00c8 2E4B     		ldr	r3, .L117
 1685 00ca 1B6B     		ldr	r3, [r3, #48]
 1686 00cc DC6A     		ldr	r4, [r3, #44]
 1687 00ce 2D4B     		ldr	r3, .L117
 1688 00d0 1B6B     		ldr	r3, [r3, #48]
 1689 00d2 9B6B     		ldr	r3, [r3, #56]
 1690 00d4 181C     		mov	r0, r3
 1691 00d6 FFF7FEFF 		bl	__aeabi_ui2f
 1692 00da 031C     		add	r3, r0, #0
 1693 00dc 201C     		add	r0, r4, #0
 1694 00de 191C     		add	r1, r3, #0
 1695 00e0 FFF7FEFF 		bl	__aeabi_fdiv
 1696 00e4 031C     		add	r3, r0, #0
ARM GAS  C:\Users\Davit\AppData\Local\Temp\cc4XR0T4.s 			page 36


 1697 00e6 181C     		add	r0, r3, #0
 1698 00e8 FFF7FEFF 		bl	__aeabi_f2d
 1699 00ec 031C     		mov	r3, r0
 1700 00ee 0C1C     		mov	r4, r1
 1701 00f0 181C     		mov	r0, r3
 1702 00f2 211C     		mov	r1, r4
 1703 00f4 FFF7FEFF 		bl	log
 1704 00f8 031C     		mov	r3, r0
 1705 00fa 0C1C     		mov	r4, r1
 278:MAX30100_All.c ****                 log(pulseOximeter.spO2calculator->irACValueSqSum/pulseOximeter.spO2calculator->samp
 1706              		.loc 1 278 0
 1707 00fc 281C     		mov	r0, r5
 1708 00fe 311C     		mov	r1, r6
 1709 0100 1A1C     		mov	r2, r3
 1710 0102 231C     		mov	r3, r4
 1711 0104 FFF7FEFF 		bl	__aeabi_ddiv
 1712 0108 031C     		mov	r3, r0
 1713 010a 0C1C     		mov	r4, r1
 276:MAX30100_All.c ****                 100.0 * 
 1714              		.loc 1 276 0
 1715 010c 181C     		mov	r0, r3
 1716 010e 211C     		mov	r1, r4
 1717 0110 FFF7FEFF 		bl	__aeabi_d2f
 1718 0114 031C     		add	r3, r0, #0
 1719 0116 3B61     		str	r3, [r7, #16]
 280:MAX30100_All.c ****             //float acSqRatio = 60;
 281:MAX30100_All.c ****             uint8_t index = 0;
 1720              		.loc 1 281 0
 1721 0118 1723     		mov	r3, #23
 1722 011a FB18     		add	r3, r7, r3
 1723 011c 0022     		mov	r2, #0
 1724 011e 1A70     		strb	r2, [r3]
 282:MAX30100_All.c **** 
 283:MAX30100_All.c ****             if (acSqRatio > 66) {
 1725              		.loc 1 283 0
 1726 0120 3869     		ldr	r0, [r7, #16]
 1727 0122 1A49     		ldr	r1, .L117+8
 1728 0124 FFF7FEFF 		bl	__aeabi_fcmpgt
 1729 0128 031E     		sub	r3, r0, #0
 1730 012a 09D0     		beq	.L116
 284:MAX30100_All.c ****                 index = (uint8_t)acSqRatio - 66;
 1731              		.loc 1 284 0
 1732 012c 3869     		ldr	r0, [r7, #16]
 1733 012e FFF7FEFF 		bl	__aeabi_f2uiz
 1734 0132 031C     		mov	r3, r0
 1735 0134 DAB2     		uxtb	r2, r3
 1736 0136 1723     		mov	r3, #23
 1737 0138 FB18     		add	r3, r7, r3
 1738 013a 423A     		sub	r2, r2, #66
 1739 013c 1A70     		strb	r2, [r3]
 1740 013e 0EE0     		b	.L112
 1741              	.L116:
 285:MAX30100_All.c ****             } else if (acSqRatio > 50) {
 1742              		.loc 1 285 0
 1743 0140 3869     		ldr	r0, [r7, #16]
 1744 0142 1349     		ldr	r1, .L117+12
 1745 0144 FFF7FEFF 		bl	__aeabi_fcmpgt
ARM GAS  C:\Users\Davit\AppData\Local\Temp\cc4XR0T4.s 			page 37


 1746 0148 031E     		sub	r3, r0, #0
 1747 014a 08D0     		beq	.L112
 286:MAX30100_All.c ****                 index = (uint8_t)acSqRatio - 50;
 1748              		.loc 1 286 0
 1749 014c 3869     		ldr	r0, [r7, #16]
 1750 014e FFF7FEFF 		bl	__aeabi_f2uiz
 1751 0152 031C     		mov	r3, r0
 1752 0154 DAB2     		uxtb	r2, r3
 1753 0156 1723     		mov	r3, #23
 1754 0158 FB18     		add	r3, r7, r3
 1755 015a 323A     		sub	r2, r2, #50
 1756 015c 1A70     		strb	r2, [r3]
 1757              	.L112:
 287:MAX30100_All.c ****             }
 288:MAX30100_All.c ****             SpO2Calculator_reset(pulseOximeter.spO2calculator);
 1758              		.loc 1 288 0
 1759 015e 094B     		ldr	r3, .L117
 1760 0160 1B6B     		ldr	r3, [r3, #48]
 1761 0162 181C     		mov	r0, r3
 1762 0164 FFF7FEFF 		bl	SpO2Calculator_reset
 289:MAX30100_All.c **** 
 290:MAX30100_All.c ****             pulseOximeter.spO2calculator->spO2 = pulseOximeter.spO2calculator->spO2LUT[index];
 1763              		.loc 1 290 0
 1764 0168 064B     		ldr	r3, .L117
 1765 016a 1A6B     		ldr	r2, [r3, #48]
 1766 016c 054B     		ldr	r3, .L117
 1767 016e 196B     		ldr	r1, [r3, #48]
 1768 0170 1723     		mov	r3, #23
 1769 0172 FB18     		add	r3, r7, r3
 1770 0174 1B78     		ldrb	r3, [r3]
 1771 0176 C95C     		ldrb	r1, [r1, r3]
 1772 0178 3C23     		mov	r3, #60
 1773 017a D154     		strb	r1, [r2, r3]
 1774              	.L108:
 1775              	.LBE3:
 291:MAX30100_All.c ****         }
 292:MAX30100_All.c ****     }
 293:MAX30100_All.c **** }
 1776              		.loc 1 293 0
 1777 017c BD46     		mov	sp, r7
 1778 017e 07B0     		add	sp, sp, #28
 1779              		@ sp needed
 1780 0180 F0BD     		pop	{r4, r5, r6, r7, pc}
 1781              	.L118:
 1782 0182 C046     		.align	2
 1783              	.L117:
 1784 0184 00000000 		.word	pulseOximeter
 1785 0188 00005940 		.word	1079574528
 1786 018c 00008442 		.word	1115947008
 1787 0190 00004842 		.word	1112014848
 1788              		.cfi_endproc
 1789              	.LFE56:
 1790              		.size	SpO2Calculator_update, .-SpO2Calculator_update
 1791              		.section	.text.SpO2Calculator_reset,"ax",%progbits
 1792              		.align	2
 1793              		.global	SpO2Calculator_reset
 1794              		.code	16
ARM GAS  C:\Users\Davit\AppData\Local\Temp\cc4XR0T4.s 			page 38


 1795              		.thumb_func
 1796              		.type	SpO2Calculator_reset, %function
 1797              	SpO2Calculator_reset:
 1798              	.LFB57:
 294:MAX30100_All.c **** 
 295:MAX30100_All.c **** void SpO2Calculator_reset(){
 1799              		.loc 1 295 0
 1800              		.cfi_startproc
 1801 0000 80B5     		push	{r7, lr}
 1802              		.cfi_def_cfa_offset 8
 1803              		.cfi_offset 7, -8
 1804              		.cfi_offset 14, -4
 1805 0002 00AF     		add	r7, sp, #0
 1806              		.cfi_def_cfa_register 7
 296:MAX30100_All.c ****     pulseOximeter.spO2calculator->samplesRecorded = 0;
 1807              		.loc 1 296 0
 1808 0004 0B4B     		ldr	r3, .L120
 1809 0006 1B6B     		ldr	r3, [r3, #48]
 1810 0008 0022     		mov	r2, #0
 1811 000a 9A63     		str	r2, [r3, #56]
 297:MAX30100_All.c ****     pulseOximeter.spO2calculator->redACValueSqSum = 0;
 1812              		.loc 1 297 0
 1813 000c 094B     		ldr	r3, .L120
 1814 000e 1B6B     		ldr	r3, [r3, #48]
 1815 0010 0022     		mov	r2, #0
 1816 0012 1A63     		str	r2, [r3, #48]
 298:MAX30100_All.c ****     pulseOximeter.spO2calculator->irACValueSqSum = 0;
 1817              		.loc 1 298 0
 1818 0014 074B     		ldr	r3, .L120
 1819 0016 1B6B     		ldr	r3, [r3, #48]
 1820 0018 0022     		mov	r2, #0
 1821 001a DA62     		str	r2, [r3, #44]
 299:MAX30100_All.c ****     pulseOximeter.spO2calculator->beatsDetectedNum = 0;
 1822              		.loc 1 299 0
 1823 001c 054B     		ldr	r3, .L120
 1824 001e 1B6B     		ldr	r3, [r3, #48]
 1825 0020 3422     		mov	r2, #52
 1826 0022 0021     		mov	r1, #0
 1827 0024 9954     		strb	r1, [r3, r2]
 300:MAX30100_All.c ****     pulseOximeter.spO2calculator->spO2 = 0;
 1828              		.loc 1 300 0
 1829 0026 034B     		ldr	r3, .L120
 1830 0028 1B6B     		ldr	r3, [r3, #48]
 1831 002a 3C22     		mov	r2, #60
 1832 002c 0021     		mov	r1, #0
 1833 002e 9954     		strb	r1, [r3, r2]
 301:MAX30100_All.c **** }
 1834              		.loc 1 301 0
 1835 0030 BD46     		mov	sp, r7
 1836              		@ sp needed
 1837 0032 80BD     		pop	{r7, pc}
 1838              	.L121:
 1839              		.align	2
 1840              	.L120:
 1841 0034 00000000 		.word	pulseOximeter
 1842              		.cfi_endproc
 1843              	.LFE57:
ARM GAS  C:\Users\Davit\AppData\Local\Temp\cc4XR0T4.s 			page 39


 1844              		.size	SpO2Calculator_reset, .-SpO2Calculator_reset
 1845              		.section	.text.SpO2Calculator_getSpO2,"ax",%progbits
 1846              		.align	2
 1847              		.global	SpO2Calculator_getSpO2
 1848              		.code	16
 1849              		.thumb_func
 1850              		.type	SpO2Calculator_getSpO2, %function
 1851              	SpO2Calculator_getSpO2:
 1852              	.LFB58:
 302:MAX30100_All.c **** 
 303:MAX30100_All.c **** uint8_t SpO2Calculator_getSpO2(){
 1853              		.loc 1 303 0
 1854              		.cfi_startproc
 1855 0000 80B5     		push	{r7, lr}
 1856              		.cfi_def_cfa_offset 8
 1857              		.cfi_offset 7, -8
 1858              		.cfi_offset 14, -4
 1859 0002 00AF     		add	r7, sp, #0
 1860              		.cfi_def_cfa_register 7
 304:MAX30100_All.c ****     return pulseOximeter.spO2calculator->spO2;
 1861              		.loc 1 304 0
 1862 0004 034B     		ldr	r3, .L124
 1863 0006 1B6B     		ldr	r3, [r3, #48]
 1864 0008 3C22     		mov	r2, #60
 1865 000a 9B5C     		ldrb	r3, [r3, r2]
 305:MAX30100_All.c **** }
 1866              		.loc 1 305 0
 1867 000c 181C     		mov	r0, r3
 1868 000e BD46     		mov	sp, r7
 1869              		@ sp needed
 1870 0010 80BD     		pop	{r7, pc}
 1871              	.L125:
 1872 0012 C046     		.align	2
 1873              	.L124:
 1874 0014 00000000 		.word	pulseOximeter
 1875              		.cfi_endproc
 1876              	.LFE58:
 1877              		.size	SpO2Calculator_getSpO2, .-SpO2Calculator_getSpO2
 1878              		.section	.text.DCRemover_Init,"ax",%progbits
 1879              		.align	2
 1880              		.global	DCRemover_Init
 1881              		.code	16
 1882              		.thumb_func
 1883              		.type	DCRemover_Init, %function
 1884              	DCRemover_Init:
 1885              	.LFB59:
 306:MAX30100_All.c **** 
 307:MAX30100_All.c **** void DCRemover_Init(char type, float alpha){
 1886              		.loc 1 307 0
 1887              		.cfi_startproc
 1888 0000 80B5     		push	{r7, lr}
 1889              		.cfi_def_cfa_offset 8
 1890              		.cfi_offset 7, -8
 1891              		.cfi_offset 14, -4
 1892 0002 82B0     		sub	sp, sp, #8
 1893              		.cfi_def_cfa_offset 16
 1894 0004 00AF     		add	r7, sp, #0
ARM GAS  C:\Users\Davit\AppData\Local\Temp\cc4XR0T4.s 			page 40


 1895              		.cfi_def_cfa_register 7
 1896 0006 021C     		mov	r2, r0
 1897 0008 3960     		str	r1, [r7]
 1898 000a FB1D     		add	r3, r7, #7
 1899 000c 1A70     		strb	r2, [r3]
 308:MAX30100_All.c ****     if(type == 'i'){
 1900              		.loc 1 308 0
 1901 000e FB1D     		add	r3, r7, #7
 1902 0010 1B78     		ldrb	r3, [r3]
 1903 0012 692B     		cmp	r3, #105
 1904 0014 08D1     		bne	.L127
 309:MAX30100_All.c ****         pulseOximeter.irDCRemover->alpha = alpha;
 1905              		.loc 1 309 0
 1906 0016 0C4B     		ldr	r3, .L129
 1907 0018 5B6A     		ldr	r3, [r3, #36]
 1908 001a 3A68     		ldr	r2, [r7]
 1909 001c 1A60     		str	r2, [r3]
 310:MAX30100_All.c ****         pulseOximeter.irDCRemover->dcw = 0;
 1910              		.loc 1 310 0
 1911 001e 0A4B     		ldr	r3, .L129
 1912 0020 5B6A     		ldr	r3, [r3, #36]
 1913 0022 0022     		mov	r2, #0
 1914 0024 5A60     		str	r2, [r3, #4]
 1915 0026 0BE0     		b	.L126
 1916              	.L127:
 311:MAX30100_All.c ****     }
 312:MAX30100_All.c ****     else if(type =='r'){
 1917              		.loc 1 312 0
 1918 0028 FB1D     		add	r3, r7, #7
 1919 002a 1B78     		ldrb	r3, [r3]
 1920 002c 722B     		cmp	r3, #114
 1921 002e 07D1     		bne	.L126
 313:MAX30100_All.c ****         pulseOximeter.redDCRemover->alpha = alpha;
 1922              		.loc 1 313 0
 1923 0030 054B     		ldr	r3, .L129
 1924 0032 9B6A     		ldr	r3, [r3, #40]
 1925 0034 3A68     		ldr	r2, [r7]
 1926 0036 1A60     		str	r2, [r3]
 314:MAX30100_All.c ****         pulseOximeter.redDCRemover->dcw = 0;
 1927              		.loc 1 314 0
 1928 0038 034B     		ldr	r3, .L129
 1929 003a 9B6A     		ldr	r3, [r3, #40]
 1930 003c 0022     		mov	r2, #0
 1931 003e 5A60     		str	r2, [r3, #4]
 1932              	.L126:
 315:MAX30100_All.c ****     }
 316:MAX30100_All.c **** }
 1933              		.loc 1 316 0
 1934 0040 BD46     		mov	sp, r7
 1935 0042 02B0     		add	sp, sp, #8
 1936              		@ sp needed
 1937 0044 80BD     		pop	{r7, pc}
 1938              	.L130:
 1939 0046 C046     		.align	2
 1940              	.L129:
 1941 0048 00000000 		.word	pulseOximeter
 1942              		.cfi_endproc
ARM GAS  C:\Users\Davit\AppData\Local\Temp\cc4XR0T4.s 			page 41


 1943              	.LFE59:
 1944              		.size	DCRemover_Init, .-DCRemover_Init
 1945              		.global	__aeabi_fsub
 1946              		.section	.text.DCRemover_step,"ax",%progbits
 1947              		.align	2
 1948              		.global	DCRemover_step
 1949              		.code	16
 1950              		.thumb_func
 1951              		.type	DCRemover_step, %function
 1952              	DCRemover_step:
 1953              	.LFB60:
 317:MAX30100_All.c **** float DCRemover_step(char type, float x){
 1954              		.loc 1 317 0
 1955              		.cfi_startproc
 1956 0000 90B5     		push	{r4, r7, lr}
 1957              		.cfi_def_cfa_offset 12
 1958              		.cfi_offset 4, -12
 1959              		.cfi_offset 7, -8
 1960              		.cfi_offset 14, -4
 1961 0002 85B0     		sub	sp, sp, #20
 1962              		.cfi_def_cfa_offset 32
 1963 0004 00AF     		add	r7, sp, #0
 1964              		.cfi_def_cfa_register 7
 1965 0006 021C     		mov	r2, r0
 1966 0008 3960     		str	r1, [r7]
 1967 000a FB1D     		add	r3, r7, #7
 1968 000c 1A70     		strb	r2, [r3]
 318:MAX30100_All.c ****     if(type == 'i'){
 1969              		.loc 1 318 0
 1970 000e FB1D     		add	r3, r7, #7
 1971 0010 1B78     		ldrb	r3, [r3]
 1972 0012 692B     		cmp	r3, #105
 1973 0014 1FD1     		bne	.L132
 1974              	.LBB4:
 319:MAX30100_All.c ****         float olddcw = pulseOximeter.irDCRemover->dcw;
 1975              		.loc 1 319 0
 1976 0016 244B     		ldr	r3, .L135
 1977 0018 5B6A     		ldr	r3, [r3, #36]
 1978 001a 5B68     		ldr	r3, [r3, #4]
 1979 001c FB60     		str	r3, [r7, #12]
 320:MAX30100_All.c **** 	    pulseOximeter.irDCRemover->dcw = (float)x + pulseOximeter.irDCRemover->alpha * pulseOximeter.i
 1980              		.loc 1 320 0
 1981 001e 224B     		ldr	r3, .L135
 1982 0020 5C6A     		ldr	r4, [r3, #36]
 1983 0022 214B     		ldr	r3, .L135
 1984 0024 5B6A     		ldr	r3, [r3, #36]
 1985 0026 1A68     		ldr	r2, [r3]
 1986 0028 1F4B     		ldr	r3, .L135
 1987 002a 5B6A     		ldr	r3, [r3, #36]
 1988 002c 5B68     		ldr	r3, [r3, #4]
 1989 002e 101C     		add	r0, r2, #0
 1990 0030 191C     		add	r1, r3, #0
 1991 0032 FFF7FEFF 		bl	__aeabi_fmul
 1992 0036 031C     		add	r3, r0, #0
 1993 0038 181C     		add	r0, r3, #0
 1994 003a 3968     		ldr	r1, [r7]
 1995 003c FFF7FEFF 		bl	__aeabi_fadd
ARM GAS  C:\Users\Davit\AppData\Local\Temp\cc4XR0T4.s 			page 42


 1996 0040 031C     		add	r3, r0, #0
 1997 0042 6360     		str	r3, [r4, #4]
 321:MAX30100_All.c ****         return pulseOximeter.irDCRemover->dcw - olddcw;
 1998              		.loc 1 321 0
 1999 0044 184B     		ldr	r3, .L135
 2000 0046 5B6A     		ldr	r3, [r3, #36]
 2001 0048 5B68     		ldr	r3, [r3, #4]
 2002 004a 181C     		add	r0, r3, #0
 2003 004c F968     		ldr	r1, [r7, #12]
 2004 004e FFF7FEFF 		bl	__aeabi_fsub
 2005 0052 031C     		add	r3, r0, #0
 2006 0054 24E0     		b	.L133
 2007              	.L132:
 2008              	.LBE4:
 322:MAX30100_All.c ****     }
 323:MAX30100_All.c ****     else if(type == 'r'){
 2009              		.loc 1 323 0
 2010 0056 FB1D     		add	r3, r7, #7
 2011 0058 1B78     		ldrb	r3, [r3]
 2012 005a 722B     		cmp	r3, #114
 2013 005c 1FD1     		bne	.L134
 2014              	.LBB5:
 324:MAX30100_All.c ****         float olddcw = pulseOximeter.redDCRemover->dcw;
 2015              		.loc 1 324 0
 2016 005e 124B     		ldr	r3, .L135
 2017 0060 9B6A     		ldr	r3, [r3, #40]
 2018 0062 5B68     		ldr	r3, [r3, #4]
 2019 0064 BB60     		str	r3, [r7, #8]
 325:MAX30100_All.c **** 	    pulseOximeter.redDCRemover->dcw = (float)x + pulseOximeter.redDCRemover->alpha * pulseOximeter
 2020              		.loc 1 325 0
 2021 0066 104B     		ldr	r3, .L135
 2022 0068 9C6A     		ldr	r4, [r3, #40]
 2023 006a 0F4B     		ldr	r3, .L135
 2024 006c 9B6A     		ldr	r3, [r3, #40]
 2025 006e 1A68     		ldr	r2, [r3]
 2026 0070 0D4B     		ldr	r3, .L135
 2027 0072 9B6A     		ldr	r3, [r3, #40]
 2028 0074 5B68     		ldr	r3, [r3, #4]
 2029 0076 101C     		add	r0, r2, #0
 2030 0078 191C     		add	r1, r3, #0
 2031 007a FFF7FEFF 		bl	__aeabi_fmul
 2032 007e 031C     		add	r3, r0, #0
 2033 0080 181C     		add	r0, r3, #0
 2034 0082 3968     		ldr	r1, [r7]
 2035 0084 FFF7FEFF 		bl	__aeabi_fadd
 2036 0088 031C     		add	r3, r0, #0
 2037 008a 6360     		str	r3, [r4, #4]
 326:MAX30100_All.c ****         return pulseOximeter.redDCRemover->dcw - olddcw;
 2038              		.loc 1 326 0
 2039 008c 064B     		ldr	r3, .L135
 2040 008e 9B6A     		ldr	r3, [r3, #40]
 2041 0090 5B68     		ldr	r3, [r3, #4]
 2042 0092 181C     		add	r0, r3, #0
 2043 0094 B968     		ldr	r1, [r7, #8]
 2044 0096 FFF7FEFF 		bl	__aeabi_fsub
 2045 009a 031C     		add	r3, r0, #0
 2046 009c 00E0     		b	.L133
ARM GAS  C:\Users\Davit\AppData\Local\Temp\cc4XR0T4.s 			page 43


 2047              	.L134:
 2048              	.LBE5:
 327:MAX30100_All.c ****     }
 328:MAX30100_All.c **** 
 329:MAX30100_All.c ****     return 0.0;
 2049              		.loc 1 329 0
 2050 009e 0023     		mov	r3, #0
 2051              	.L133:
 330:MAX30100_All.c **** }
 2052              		.loc 1 330 0
 2053 00a0 181C     		add	r0, r3, #0
 2054 00a2 BD46     		mov	sp, r7
 2055 00a4 05B0     		add	sp, sp, #20
 2056              		@ sp needed
 2057 00a6 90BD     		pop	{r4, r7, pc}
 2058              	.L136:
 2059              		.align	2
 2060              	.L135:
 2061 00a8 00000000 		.word	pulseOximeter
 2062              		.cfi_endproc
 2063              	.LFE60:
 2064              		.size	DCRemover_step, .-DCRemover_step
 2065              		.section	.text.DCRemover_getDCW,"ax",%progbits
 2066              		.align	2
 2067              		.global	DCRemover_getDCW
 2068              		.code	16
 2069              		.thumb_func
 2070              		.type	DCRemover_getDCW, %function
 2071              	DCRemover_getDCW:
 2072              	.LFB61:
 331:MAX30100_All.c **** 
 332:MAX30100_All.c **** float DCRemover_getDCW(char type){
 2073              		.loc 1 332 0
 2074              		.cfi_startproc
 2075 0000 80B5     		push	{r7, lr}
 2076              		.cfi_def_cfa_offset 8
 2077              		.cfi_offset 7, -8
 2078              		.cfi_offset 14, -4
 2079 0002 82B0     		sub	sp, sp, #8
 2080              		.cfi_def_cfa_offset 16
 2081 0004 00AF     		add	r7, sp, #0
 2082              		.cfi_def_cfa_register 7
 2083 0006 021C     		mov	r2, r0
 2084 0008 FB1D     		add	r3, r7, #7
 2085 000a 1A70     		strb	r2, [r3]
 333:MAX30100_All.c ****     if(type == 'i')
 2086              		.loc 1 333 0
 2087 000c FB1D     		add	r3, r7, #7
 2088 000e 1B78     		ldrb	r3, [r3]
 2089 0010 692B     		cmp	r3, #105
 2090 0012 03D1     		bne	.L138
 334:MAX30100_All.c ****         return pulseOximeter.irDCRemover->dcw;
 2091              		.loc 1 334 0
 2092 0014 084B     		ldr	r3, .L141
 2093 0016 5B6A     		ldr	r3, [r3, #36]
 2094 0018 5B68     		ldr	r3, [r3, #4]
 2095 001a 08E0     		b	.L139
ARM GAS  C:\Users\Davit\AppData\Local\Temp\cc4XR0T4.s 			page 44


 2096              	.L138:
 335:MAX30100_All.c ****     else if(type == 'r')
 2097              		.loc 1 335 0
 2098 001c FB1D     		add	r3, r7, #7
 2099 001e 1B78     		ldrb	r3, [r3]
 2100 0020 722B     		cmp	r3, #114
 2101 0022 03D1     		bne	.L140
 336:MAX30100_All.c ****         return pulseOximeter.redDCRemover->dcw;
 2102              		.loc 1 336 0
 2103 0024 044B     		ldr	r3, .L141
 2104 0026 9B6A     		ldr	r3, [r3, #40]
 2105 0028 5B68     		ldr	r3, [r3, #4]
 2106 002a 00E0     		b	.L139
 2107              	.L140:
 337:MAX30100_All.c ****     
 338:MAX30100_All.c ****     return 0.0;
 2108              		.loc 1 338 0
 2109 002c 0023     		mov	r3, #0
 2110              	.L139:
 339:MAX30100_All.c **** }
 2111              		.loc 1 339 0
 2112 002e 181C     		add	r0, r3, #0
 2113 0030 BD46     		mov	sp, r7
 2114 0032 02B0     		add	sp, sp, #8
 2115              		@ sp needed
 2116 0034 80BD     		pop	{r7, pc}
 2117              	.L142:
 2118 0036 C046     		.align	2
 2119              	.L141:
 2120 0038 00000000 		.word	pulseOximeter
 2121              		.cfi_endproc
 2122              	.LFE61:
 2123              		.size	DCRemover_getDCW, .-DCRemover_getDCW
 2124              		.section	.text.FilterBuLp1_Init,"ax",%progbits
 2125              		.align	2
 2126              		.global	FilterBuLp1_Init
 2127              		.code	16
 2128              		.thumb_func
 2129              		.type	FilterBuLp1_Init, %function
 2130              	FilterBuLp1_Init:
 2131              	.LFB62:
 340:MAX30100_All.c **** 
 341:MAX30100_All.c **** void FilterBuLp1_Init(){
 2132              		.loc 1 341 0
 2133              		.cfi_startproc
 2134 0000 80B5     		push	{r7, lr}
 2135              		.cfi_def_cfa_offset 8
 2136              		.cfi_offset 7, -8
 2137              		.cfi_offset 14, -4
 2138 0002 00AF     		add	r7, sp, #0
 2139              		.cfi_def_cfa_register 7
 342:MAX30100_All.c ****     pulseOximeter.lpf->v[0] = 0.0;
 2140              		.loc 1 342 0
 2141 0004 024B     		ldr	r3, .L144
 2142 0006 DB6A     		ldr	r3, [r3, #44]
 2143 0008 0022     		mov	r2, #0
 2144 000a 1A60     		str	r2, [r3]
ARM GAS  C:\Users\Davit\AppData\Local\Temp\cc4XR0T4.s 			page 45


 343:MAX30100_All.c **** }
 2145              		.loc 1 343 0
 2146 000c BD46     		mov	sp, r7
 2147              		@ sp needed
 2148 000e 80BD     		pop	{r7, pc}
 2149              	.L145:
 2150              		.align	2
 2151              	.L144:
 2152 0010 00000000 		.word	pulseOximeter
 2153              		.cfi_endproc
 2154              	.LFE62:
 2155              		.size	FilterBuLp1_Init, .-FilterBuLp1_Init
 2156              		.section	.text.FilterBuLp1_step,"ax",%progbits
 2157              		.align	2
 2158              		.global	FilterBuLp1_step
 2159              		.code	16
 2160              		.thumb_func
 2161              		.type	FilterBuLp1_step, %function
 2162              	FilterBuLp1_step:
 2163              	.LFB63:
 344:MAX30100_All.c **** 
 345:MAX30100_All.c **** float FilterBuLp1_step(float x){
 2164              		.loc 1 345 0
 2165              		.cfi_startproc
 2166 0000 F0B5     		push	{r4, r5, r6, r7, lr}
 2167              		.cfi_def_cfa_offset 20
 2168              		.cfi_offset 4, -20
 2169              		.cfi_offset 5, -16
 2170              		.cfi_offset 6, -12
 2171              		.cfi_offset 7, -8
 2172              		.cfi_offset 14, -4
 2173 0002 83B0     		sub	sp, sp, #12
 2174              		.cfi_def_cfa_offset 32
 2175 0004 00AF     		add	r7, sp, #0
 2176              		.cfi_def_cfa_register 7
 2177 0006 7860     		str	r0, [r7, #4]
 346:MAX30100_All.c ****     pulseOximeter.lpf->v[0] = pulseOximeter.lpf->v[1];
 2178              		.loc 1 346 0
 2179 0008 204B     		ldr	r3, .L148
 2180 000a DB6A     		ldr	r3, [r3, #44]
 2181 000c 1F4A     		ldr	r2, .L148
 2182 000e D26A     		ldr	r2, [r2, #44]
 2183 0010 5268     		ldr	r2, [r2, #4]
 2184 0012 1A60     		str	r2, [r3]
 347:MAX30100_All.c **** 	pulseOximeter.lpf->v[1] = (2.452372752527856026e-1 * x) + (0.50952544949442879485 * pulseOximeter.
 2185              		.loc 1 347 0
 2186 0014 1D4B     		ldr	r3, .L148
 2187 0016 DC6A     		ldr	r4, [r3, #44]
 2188 0018 7868     		ldr	r0, [r7, #4]
 2189 001a FFF7FEFF 		bl	__aeabi_f2d
 2190 001e 021C     		mov	r2, r0
 2191 0020 0B1C     		mov	r3, r1
 2192 0022 101C     		mov	r0, r2
 2193 0024 191C     		mov	r1, r3
 2194 0026 1A4A     		ldr	r2, .L148+4
 2195 0028 1A4B     		ldr	r3, .L148+8
 2196 002a FFF7FEFF 		bl	__aeabi_dmul
ARM GAS  C:\Users\Davit\AppData\Local\Temp\cc4XR0T4.s 			page 46


 2197 002e 021C     		mov	r2, r0
 2198 0030 0B1C     		mov	r3, r1
 2199 0032 151C     		mov	r5, r2
 2200 0034 1E1C     		mov	r6, r3
 2201 0036 154B     		ldr	r3, .L148
 2202 0038 DB6A     		ldr	r3, [r3, #44]
 2203 003a 1B68     		ldr	r3, [r3]
 2204 003c 181C     		add	r0, r3, #0
 2205 003e FFF7FEFF 		bl	__aeabi_f2d
 2206 0042 021C     		mov	r2, r0
 2207 0044 0B1C     		mov	r3, r1
 2208 0046 101C     		mov	r0, r2
 2209 0048 191C     		mov	r1, r3
 2210 004a 134A     		ldr	r2, .L148+12
 2211 004c 134B     		ldr	r3, .L148+16
 2212 004e FFF7FEFF 		bl	__aeabi_dmul
 2213 0052 021C     		mov	r2, r0
 2214 0054 0B1C     		mov	r3, r1
 2215 0056 281C     		mov	r0, r5
 2216 0058 311C     		mov	r1, r6
 2217 005a FFF7FEFF 		bl	__aeabi_dadd
 2218 005e 021C     		mov	r2, r0
 2219 0060 0B1C     		mov	r3, r1
 2220 0062 101C     		mov	r0, r2
 2221 0064 191C     		mov	r1, r3
 2222 0066 FFF7FEFF 		bl	__aeabi_d2f
 2223 006a 031C     		add	r3, r0, #0
 2224 006c 6360     		str	r3, [r4, #4]
 348:MAX30100_All.c **** 	
 349:MAX30100_All.c ****     return (pulseOximeter.lpf->v[0] + pulseOximeter.lpf->v[1]);
 2225              		.loc 1 349 0
 2226 006e 074B     		ldr	r3, .L148
 2227 0070 DB6A     		ldr	r3, [r3, #44]
 2228 0072 1A68     		ldr	r2, [r3]
 2229 0074 054B     		ldr	r3, .L148
 2230 0076 DB6A     		ldr	r3, [r3, #44]
 2231 0078 5B68     		ldr	r3, [r3, #4]
 2232 007a 101C     		add	r0, r2, #0
 2233 007c 191C     		add	r1, r3, #0
 2234 007e FFF7FEFF 		bl	__aeabi_fadd
 2235 0082 031C     		add	r3, r0, #0
 350:MAX30100_All.c **** }
 2236              		.loc 1 350 0
 2237 0084 181C     		add	r0, r3, #0
 2238 0086 BD46     		mov	sp, r7
 2239 0088 03B0     		add	sp, sp, #12
 2240              		@ sp needed
 2241 008a F0BD     		pop	{r4, r5, r6, r7, pc}
 2242              	.L149:
 2243              		.align	2
 2244              	.L148:
 2245 008c 00000000 		.word	pulseOximeter
 2246 0090 48457C5E 		.word	1585202504
 2247 0094 EF63CF3F 		.word	1070556143
 2248 0098 5CDDC150 		.word	1354882396
 2249 009c 084EE03F 		.word	1071664648
 2250              		.cfi_endproc
ARM GAS  C:\Users\Davit\AppData\Local\Temp\cc4XR0T4.s 			page 47


 2251              	.LFE63:
 2252              		.size	FilterBuLp1_step, .-FilterBuLp1_step
 2253              		.section	.text.PulseOximeter_Init,"ax",%progbits
 2254              		.align	2
 2255              		.global	PulseOximeter_Init
 2256              		.code	16
 2257              		.thumb_func
 2258              		.type	PulseOximeter_Init, %function
 2259              	PulseOximeter_Init:
 2260              	.LFB64:
 351:MAX30100_All.c **** 
 352:MAX30100_All.c **** void PulseOximeter_Init(){
 2261              		.loc 1 352 0
 2262              		.cfi_startproc
 2263 0000 98B5     		push	{r3, r4, r7, lr}
 2264              		.cfi_def_cfa_offset 16
 2265              		.cfi_offset 3, -16
 2266              		.cfi_offset 4, -12
 2267              		.cfi_offset 7, -8
 2268              		.cfi_offset 14, -4
 2269 0002 00AF     		add	r7, sp, #0
 2270              		.cfi_def_cfa_register 7
 353:MAX30100_All.c ****     pulseOximeter.state = PULSEOXIMETER_STATE_INIT;
 2271              		.loc 1 353 0
 2272 0004 1C4B     		ldr	r3, .L151
 2273 0006 0022     		mov	r2, #0
 2274 0008 1A70     		strb	r2, [r3]
 354:MAX30100_All.c ****     pulseOximeter.tsFirstBeatDetected = 0;
 2275              		.loc 1 354 0
 2276 000a 1B4B     		ldr	r3, .L151
 2277 000c 0022     		mov	r2, #0
 2278 000e 5A60     		str	r2, [r3, #4]
 355:MAX30100_All.c ****     pulseOximeter.tsLastBeatDetected = 0;
 2279              		.loc 1 355 0
 2280 0010 194B     		ldr	r3, .L151
 2281 0012 0022     		mov	r2, #0
 2282 0014 9A60     		str	r2, [r3, #8]
 356:MAX30100_All.c ****     pulseOximeter.tsLastSample = 0;
 2283              		.loc 1 356 0
 2284 0016 184B     		ldr	r3, .L151
 2285 0018 0022     		mov	r2, #0
 2286 001a DA60     		str	r2, [r3, #12]
 357:MAX30100_All.c ****     pulseOximeter.tsLastBiasCheck = 0;
 2287              		.loc 1 357 0
 2288 001c 164B     		ldr	r3, .L151
 2289 001e 0022     		mov	r2, #0
 2290 0020 1A61     		str	r2, [r3, #16]
 358:MAX30100_All.c ****     pulseOximeter.tsLastCurrentAdjustment = 0;
 2291              		.loc 1 358 0
 2292 0022 154B     		ldr	r3, .L151
 2293 0024 0022     		mov	r2, #0
 2294 0026 5A61     		str	r2, [r3, #20]
 359:MAX30100_All.c ****     pulseOximeter.tsLastTemperaturePoll = 0;
 2295              		.loc 1 359 0
 2296 0028 134B     		ldr	r3, .L151
 2297 002a 0022     		mov	r2, #0
 2298 002c 9A61     		str	r2, [r3, #24]
ARM GAS  C:\Users\Davit\AppData\Local\Temp\cc4XR0T4.s 			page 48


 360:MAX30100_All.c ****     pulseOximeter.redLedPower = (uint8_t)RED_LED_CURRENT_START,
 2299              		.loc 1 360 0
 2300 002e 124B     		ldr	r3, .L151
 2301 0030 0822     		mov	r2, #8
 2302 0032 1A77     		strb	r2, [r3, #28]
 361:MAX30100_All.c ****     //onBeatDetected(NULL);
 362:MAX30100_All.c ****     
 363:MAX30100_All.c ****     pulseOximeter.beatDetector = &globalBeatDetector;
 2303              		.loc 1 363 0
 2304 0034 104B     		ldr	r3, .L151
 2305 0036 114A     		ldr	r2, .L151+4
 2306 0038 1A62     		str	r2, [r3, #32]
 364:MAX30100_All.c ****     pulseOximeter.irDCRemover = &globalIrDCRemover;
 2307              		.loc 1 364 0
 2308 003a 0F4B     		ldr	r3, .L151
 2309 003c 104A     		ldr	r2, .L151+8
 2310 003e 5A62     		str	r2, [r3, #36]
 365:MAX30100_All.c ****     pulseOximeter.redDCRemover = &globalRedDCRemover;
 2311              		.loc 1 365 0
 2312 0040 0D4B     		ldr	r3, .L151
 2313 0042 104A     		ldr	r2, .L151+12
 2314 0044 9A62     		str	r2, [r3, #40]
 366:MAX30100_All.c ****     pulseOximeter.lpf = &globalLpf;
 2315              		.loc 1 366 0
 2316 0046 0C4B     		ldr	r3, .L151
 2317 0048 0F4A     		ldr	r2, .L151+16
 2318 004a DA62     		str	r2, [r3, #44]
 367:MAX30100_All.c ****     pulseOximeter.spO2calculator = &globalSpO2calculator;
 2319              		.loc 1 367 0
 2320 004c 0A4B     		ldr	r3, .L151
 2321 004e 0F4A     		ldr	r2, .L151+20
 2322 0050 1A63     		str	r2, [r3, #48]
 368:MAX30100_All.c ****     pulseOximeter.hrm = &globalHrm;
 2323              		.loc 1 368 0
 2324 0052 094B     		ldr	r3, .L151
 2325 0054 0E4A     		ldr	r2, .L151+24
 2326 0056 5A63     		str	r2, [r3, #52]
 369:MAX30100_All.c ****     
 370:MAX30100_All.c ****     BeatDetector_Init();
 2327              		.loc 1 370 0
 2328 0058 FFF7FEFF 		bl	BeatDetector_Init
 371:MAX30100_All.c ****     FilterBuLp1_Init();
 2329              		.loc 1 371 0
 2330 005c FFF7FEFF 		bl	FilterBuLp1_Init
 372:MAX30100_All.c ****     SpO2Calculator_Init();
 2331              		.loc 1 372 0
 2332 0060 FFF7FEFF 		bl	SpO2Calculator_Init
 373:MAX30100_All.c ****     
 374:MAX30100_All.c ****     pulseOximeter.currentMinute = 0;
 2333              		.loc 1 374 0
 2334 0064 044A     		ldr	r2, .L151
 2335 0066 0023     		mov	r3, #0
 2336 0068 0024     		mov	r4, #0
 2337 006a 9363     		str	r3, [r2, #56]
 2338 006c D463     		str	r4, [r2, #60]
 375:MAX30100_All.c ****     numBeats = 0;
 2339              		.loc 1 375 0
ARM GAS  C:\Users\Davit\AppData\Local\Temp\cc4XR0T4.s 			page 49


 2340 006e 094B     		ldr	r3, .L151+28
 2341 0070 0022     		mov	r2, #0
 2342 0072 1A60     		str	r2, [r3]
 376:MAX30100_All.c **** }
 2343              		.loc 1 376 0
 2344 0074 BD46     		mov	sp, r7
 2345              		@ sp needed
 2346 0076 98BD     		pop	{r3, r4, r7, pc}
 2347              	.L152:
 2348              		.align	2
 2349              	.L151:
 2350 0078 00000000 		.word	pulseOximeter
 2351 007c 00000000 		.word	globalBeatDetector
 2352 0080 00000000 		.word	globalIrDCRemover
 2353 0084 00000000 		.word	globalRedDCRemover
 2354 0088 00000000 		.word	globalLpf
 2355 008c 00000000 		.word	globalSpO2calculator
 2356 0090 00000000 		.word	globalHrm
 2357 0094 00000000 		.word	numBeats
 2358              		.cfi_endproc
 2359              	.LFE64:
 2360              		.size	PulseOximeter_Init, .-PulseOximeter_Init
 2361              		.section	.text.millis,"ax",%progbits
 2362              		.align	2
 2363              		.global	millis
 2364              		.code	16
 2365              		.thumb_func
 2366              		.type	millis, %function
 2367              	millis:
 2368              	.LFB65:
 377:MAX30100_All.c **** 
 378:MAX30100_All.c **** long millis(){
 2369              		.loc 1 378 0
 2370              		.cfi_startproc
 2371 0000 98B5     		push	{r3, r4, r7, lr}
 2372              		.cfi_def_cfa_offset 16
 2373              		.cfi_offset 3, -16
 2374              		.cfi_offset 4, -12
 2375              		.cfi_offset 7, -8
 2376              		.cfi_offset 14, -4
 2377 0002 00AF     		add	r7, sp, #0
 2378              		.cfi_def_cfa_register 7
 379:MAX30100_All.c ****     return (pulseOximeter.currentMinute * 60000) + (60000 - Timer_minute_ReadCounter());
 2379              		.loc 1 379 0
 2380 0004 084B     		ldr	r3, .L155
 2381 0006 DC6B     		ldr	r4, [r3, #60]
 2382 0008 9B6B     		ldr	r3, [r3, #56]
 2383 000a 1A1C     		mov	r2, r3
 2384 000c 074B     		ldr	r3, .L155+4
 2385 000e 5343     		mul	r3, r2
 2386 0010 1C1C     		mov	r4, r3
 2387 0012 FFF7FEFF 		bl	Timer_minute_ReadCounter
 2388 0016 031C     		mov	r3, r0
 2389 0018 E31A     		sub	r3, r4, r3
 2390 001a 044A     		ldr	r2, .L155+4
 2391 001c 9446     		mov	ip, r2
 2392 001e 6344     		add	r3, r3, ip
ARM GAS  C:\Users\Davit\AppData\Local\Temp\cc4XR0T4.s 			page 50


 380:MAX30100_All.c **** }
 2393              		.loc 1 380 0
 2394 0020 181C     		mov	r0, r3
 2395 0022 BD46     		mov	sp, r7
 2396              		@ sp needed
 2397 0024 98BD     		pop	{r3, r4, r7, pc}
 2398              	.L156:
 2399 0026 C046     		.align	2
 2400              	.L155:
 2401 0028 00000000 		.word	pulseOximeter
 2402 002c 60EA0000 		.word	60000
 2403              		.cfi_endproc
 2404              	.LFE65:
 2405              		.size	millis, .-millis
 2406              		.section	.text.PulseOximeter_begin,"ax",%progbits
 2407              		.align	2
 2408              		.global	PulseOximeter_begin
 2409              		.code	16
 2410              		.thumb_func
 2411              		.type	PulseOximeter_begin, %function
 2412              	PulseOximeter_begin:
 2413              	.LFB66:
 381:MAX30100_All.c **** 
 382:MAX30100_All.c **** void PulseOximeter_begin(PulseOximeterDebuggingMode debuggingMode_)
 383:MAX30100_All.c **** {
 2414              		.loc 1 383 0
 2415              		.cfi_startproc
 2416 0000 80B5     		push	{r7, lr}
 2417              		.cfi_def_cfa_offset 8
 2418              		.cfi_offset 7, -8
 2419              		.cfi_offset 14, -4
 2420 0002 82B0     		sub	sp, sp, #8
 2421              		.cfi_def_cfa_offset 16
 2422 0004 00AF     		add	r7, sp, #0
 2423              		.cfi_def_cfa_register 7
 2424 0006 021C     		mov	r2, r0
 2425 0008 FB1D     		add	r3, r7, #7
 2426 000a 1A70     		strb	r2, [r3]
 384:MAX30100_All.c ****     pulseOximeter.debuggingMode = debuggingMode_;
 2427              		.loc 1 384 0
 2428 000c 0E4B     		ldr	r3, .L158
 2429 000e FA1D     		add	r2, r7, #7
 2430 0010 1278     		ldrb	r2, [r2]
 2431 0012 5A70     		strb	r2, [r3, #1]
 385:MAX30100_All.c **** 
 386:MAX30100_All.c ****     MAX30100_begin();
 2432              		.loc 1 386 0
 2433 0014 FFF7FEFF 		bl	MAX30100_begin
 387:MAX30100_All.c ****     MAX30100_setMode(MAX30100_MODE_SPO2_HR);
 2434              		.loc 1 387 0
 2435 0018 0320     		mov	r0, #3
 2436 001a FFF7FEFF 		bl	MAX30100_setMode
 388:MAX30100_All.c ****     MAX30100_setLedsCurrent(IR_LED_CURRENT, RED_LED_CURRENT_START);
 2437              		.loc 1 388 0
 2438 001e 0F20     		mov	r0, #15
 2439 0020 0821     		mov	r1, #8
 2440 0022 FFF7FEFF 		bl	MAX30100_setLedsCurrent
ARM GAS  C:\Users\Davit\AppData\Local\Temp\cc4XR0T4.s 			page 51


 389:MAX30100_All.c ****     
 390:MAX30100_All.c ****     DCRemover_Init('i', DC_REMOVER_ALPHA);
 2441              		.loc 1 390 0
 2442 0026 094B     		ldr	r3, .L158+4
 2443 0028 6920     		mov	r0, #105
 2444 002a 191C     		add	r1, r3, #0
 2445 002c FFF7FEFF 		bl	DCRemover_Init
 391:MAX30100_All.c ****     DCRemover_Init('r', DC_REMOVER_ALPHA);
 2446              		.loc 1 391 0
 2447 0030 064B     		ldr	r3, .L158+4
 2448 0032 7220     		mov	r0, #114
 2449 0034 191C     		add	r1, r3, #0
 2450 0036 FFF7FEFF 		bl	DCRemover_Init
 392:MAX30100_All.c **** 
 393:MAX30100_All.c ****     pulseOximeter.state = PULSEOXIMETER_STATE_IDLE;
 2451              		.loc 1 393 0
 2452 003a 034B     		ldr	r3, .L158
 2453 003c 0122     		mov	r2, #1
 2454 003e 1A70     		strb	r2, [r3]
 394:MAX30100_All.c **** }
 2455              		.loc 1 394 0
 2456 0040 BD46     		mov	sp, r7
 2457 0042 02B0     		add	sp, sp, #8
 2458              		@ sp needed
 2459 0044 80BD     		pop	{r7, pc}
 2460              	.L159:
 2461 0046 C046     		.align	2
 2462              	.L158:
 2463 0048 00000000 		.word	pulseOximeter
 2464 004c 3333733F 		.word	1064514355
 2465              		.cfi_endproc
 2466              	.LFE66:
 2467              		.size	PulseOximeter_begin, .-PulseOximeter_begin
 2468              		.section	.text.PulseOximeter_update,"ax",%progbits
 2469              		.align	2
 2470              		.global	PulseOximeter_update
 2471              		.code	16
 2472              		.thumb_func
 2473              		.type	PulseOximeter_update, %function
 2474              	PulseOximeter_update:
 2475              	.LFB67:
 395:MAX30100_All.c **** 
 396:MAX30100_All.c **** void PulseOximeter_update()
 397:MAX30100_All.c **** {
 2476              		.loc 1 397 0
 2477              		.cfi_startproc
 2478 0000 90B5     		push	{r4, r7, lr}
 2479              		.cfi_def_cfa_offset 12
 2480              		.cfi_offset 4, -12
 2481              		.cfi_offset 7, -8
 2482              		.cfi_offset 14, -4
 2483 0002 8DB0     		sub	sp, sp, #52
 2484              		.cfi_def_cfa_offset 64
 2485 0004 0CAF     		add	r7, sp, #48
 2486              		.cfi_def_cfa 7, 16
 398:MAX30100_All.c ****     PulseOximeter_checkSample(pulseOximeter);
 2487              		.loc 1 398 0
ARM GAS  C:\Users\Davit\AppData\Local\Temp\cc4XR0T4.s 			page 52


 2488 0006 114C     		ldr	r4, .L161
 2489 0008 6B46     		mov	r3, sp
 2490 000a 191C     		mov	r1, r3
 2491 000c 231C     		mov	r3, r4
 2492 000e 1033     		add	r3, r3, #16
 2493 0010 3022     		mov	r2, #48
 2494 0012 081C     		mov	r0, r1
 2495 0014 191C     		mov	r1, r3
 2496 0016 FFF7FEFF 		bl	memcpy
 2497 001a 2068     		ldr	r0, [r4]
 2498 001c 6168     		ldr	r1, [r4, #4]
 2499 001e A268     		ldr	r2, [r4, #8]
 2500 0020 E368     		ldr	r3, [r4, #12]
 2501 0022 FFF7FEFF 		bl	PulseOximeter_checkSample
 399:MAX30100_All.c ****     PulseOximeter_checkCurrentBias(pulseOximeter);
 2502              		.loc 1 399 0
 2503 0026 094C     		ldr	r4, .L161
 2504 0028 6B46     		mov	r3, sp
 2505 002a 191C     		mov	r1, r3
 2506 002c 231C     		mov	r3, r4
 2507 002e 1033     		add	r3, r3, #16
 2508 0030 3022     		mov	r2, #48
 2509 0032 081C     		mov	r0, r1
 2510 0034 191C     		mov	r1, r3
 2511 0036 FFF7FEFF 		bl	memcpy
 2512 003a 2068     		ldr	r0, [r4]
 2513 003c 6168     		ldr	r1, [r4, #4]
 2514 003e A268     		ldr	r2, [r4, #8]
 2515 0040 E368     		ldr	r3, [r4, #12]
 2516 0042 FFF7FEFF 		bl	PulseOximeter_checkCurrentBias
 400:MAX30100_All.c **** }
 2517              		.loc 1 400 0
 2518 0046 BD46     		mov	sp, r7
 2519 0048 01B0     		add	sp, sp, #4
 2520              		@ sp needed
 2521 004a 90BD     		pop	{r4, r7, pc}
 2522              	.L162:
 2523              		.align	2
 2524              	.L161:
 2525 004c 00000000 		.word	pulseOximeter
 2526              		.cfi_endproc
 2527              	.LFE67:
 2528              		.size	PulseOximeter_update, .-PulseOximeter_update
 2529              		.section	.text.PulseOximeter_getHeartRate,"ax",%progbits
 2530              		.align	2
 2531              		.global	PulseOximeter_getHeartRate
 2532              		.code	16
 2533              		.thumb_func
 2534              		.type	PulseOximeter_getHeartRate, %function
 2535              	PulseOximeter_getHeartRate:
 2536              	.LFB68:
 401:MAX30100_All.c **** 
 402:MAX30100_All.c **** float PulseOximeter_getHeartRate()
 403:MAX30100_All.c **** {
 2537              		.loc 1 403 0
 2538              		.cfi_startproc
 2539 0000 80B5     		push	{r7, lr}
ARM GAS  C:\Users\Davit\AppData\Local\Temp\cc4XR0T4.s 			page 53


 2540              		.cfi_def_cfa_offset 8
 2541              		.cfi_offset 7, -8
 2542              		.cfi_offset 14, -4
 2543 0002 00AF     		add	r7, sp, #0
 2544              		.cfi_def_cfa_register 7
 404:MAX30100_All.c ****     return BeatDetector_getRate();
 2545              		.loc 1 404 0
 2546 0004 FFF7FEFF 		bl	BeatDetector_getRate
 2547 0008 031C     		add	r3, r0, #0
 405:MAX30100_All.c **** }
 2548              		.loc 1 405 0
 2549 000a 181C     		add	r0, r3, #0
 2550 000c BD46     		mov	sp, r7
 2551              		@ sp needed
 2552 000e 80BD     		pop	{r7, pc}
 2553              		.cfi_endproc
 2554              	.LFE68:
 2555              		.size	PulseOximeter_getHeartRate, .-PulseOximeter_getHeartRate
 2556              		.section	.text.PulseOximeter_getSpO2,"ax",%progbits
 2557              		.align	2
 2558              		.global	PulseOximeter_getSpO2
 2559              		.code	16
 2560              		.thumb_func
 2561              		.type	PulseOximeter_getSpO2, %function
 2562              	PulseOximeter_getSpO2:
 2563              	.LFB69:
 406:MAX30100_All.c **** 
 407:MAX30100_All.c **** uint8_t PulseOximeter_getSpO2()
 408:MAX30100_All.c **** {
 2564              		.loc 1 408 0
 2565              		.cfi_startproc
 2566 0000 80B5     		push	{r7, lr}
 2567              		.cfi_def_cfa_offset 8
 2568              		.cfi_offset 7, -8
 2569              		.cfi_offset 14, -4
 2570 0002 00AF     		add	r7, sp, #0
 2571              		.cfi_def_cfa_register 7
 409:MAX30100_All.c ****     return SpO2Calculator_getSpO2();
 2572              		.loc 1 409 0
 2573 0004 FFF7FEFF 		bl	SpO2Calculator_getSpO2
 2574 0008 031C     		mov	r3, r0
 410:MAX30100_All.c **** }
 2575              		.loc 1 410 0
 2576 000a 181C     		mov	r0, r3
 2577 000c BD46     		mov	sp, r7
 2578              		@ sp needed
 2579 000e 80BD     		pop	{r7, pc}
 2580              		.cfi_endproc
 2581              	.LFE69:
 2582              		.size	PulseOximeter_getSpO2, .-PulseOximeter_getSpO2
 2583              		.section	.text.PulseOximeter_getRedLedCurrentBias,"ax",%progbits
 2584              		.align	2
 2585              		.global	PulseOximeter_getRedLedCurrentBias
 2586              		.code	16
 2587              		.thumb_func
 2588              		.type	PulseOximeter_getRedLedCurrentBias, %function
 2589              	PulseOximeter_getRedLedCurrentBias:
ARM GAS  C:\Users\Davit\AppData\Local\Temp\cc4XR0T4.s 			page 54


 2590              	.LFB70:
 411:MAX30100_All.c **** 
 412:MAX30100_All.c **** uint8_t PulseOximeter_getRedLedCurrentBias()
 413:MAX30100_All.c **** {
 2591              		.loc 1 413 0
 2592              		.cfi_startproc
 2593 0000 80B5     		push	{r7, lr}
 2594              		.cfi_def_cfa_offset 8
 2595              		.cfi_offset 7, -8
 2596              		.cfi_offset 14, -4
 2597 0002 00AF     		add	r7, sp, #0
 2598              		.cfi_def_cfa_register 7
 414:MAX30100_All.c ****     return pulseOximeter.redLedPower;
 2599              		.loc 1 414 0
 2600 0004 024B     		ldr	r3, .L169
 2601 0006 1B7F     		ldrb	r3, [r3, #28]
 415:MAX30100_All.c **** }
 2602              		.loc 1 415 0
 2603 0008 181C     		mov	r0, r3
 2604 000a BD46     		mov	sp, r7
 2605              		@ sp needed
 2606 000c 80BD     		pop	{r7, pc}
 2607              	.L170:
 2608 000e C046     		.align	2
 2609              	.L169:
 2610 0010 00000000 		.word	pulseOximeter
 2611              		.cfi_endproc
 2612              	.LFE70:
 2613              		.size	PulseOximeter_getRedLedCurrentBias, .-PulseOximeter_getRedLedCurrentBias
 2614              		.section	.text.PulseOximeter_setOnBeatDetectedCallback,"ax",%progbits
 2615              		.align	2
 2616              		.global	PulseOximeter_setOnBeatDetectedCallback
 2617              		.code	16
 2618              		.thumb_func
 2619              		.type	PulseOximeter_setOnBeatDetectedCallback, %function
 2620              	PulseOximeter_setOnBeatDetectedCallback:
 2621              	.LFB71:
 416:MAX30100_All.c **** 
 417:MAX30100_All.c **** void PulseOximeter_setOnBeatDetectedCallback(void (*cb)())
 418:MAX30100_All.c **** {
 2622              		.loc 1 418 0
 2623              		.cfi_startproc
 2624 0000 80B5     		push	{r7, lr}
 2625              		.cfi_def_cfa_offset 8
 2626              		.cfi_offset 7, -8
 2627              		.cfi_offset 14, -4
 2628 0002 82B0     		sub	sp, sp, #8
 2629              		.cfi_def_cfa_offset 16
 2630 0004 00AF     		add	r7, sp, #0
 2631              		.cfi_def_cfa_register 7
 2632 0006 7860     		str	r0, [r7, #4]
 419:MAX30100_All.c ****     //onBeatDetected = cb;
 420:MAX30100_All.c **** }
 2633              		.loc 1 420 0
 2634 0008 BD46     		mov	sp, r7
 2635 000a 02B0     		add	sp, sp, #8
 2636              		@ sp needed
ARM GAS  C:\Users\Davit\AppData\Local\Temp\cc4XR0T4.s 			page 55


 2637 000c 80BD     		pop	{r7, pc}
 2638              		.cfi_endproc
 2639              	.LFE71:
 2640              		.size	PulseOximeter_setOnBeatDetectedCallback, .-PulseOximeter_setOnBeatDetectedCallback
 2641              		.global	__aeabi_ui2d
 2642              		.global	__aeabi_dcmpgt
 2643 000e C046     		.section	.text.PulseOximeter_checkSample,"ax",%progbits
 2644              		.align	2
 2645              		.global	PulseOximeter_checkSample
 2646              		.code	16
 2647              		.thumb_func
 2648              		.type	PulseOximeter_checkSample, %function
 2649              	PulseOximeter_checkSample:
 2650              	.LFB72:
 421:MAX30100_All.c **** 
 422:MAX30100_All.c **** void PulseOximeter_checkSample(){
 2651              		.loc 1 422 0
 2652              		.cfi_startproc
 2653 0000 90B5     		push	{r4, r7, lr}
 2654              		.cfi_def_cfa_offset 12
 2655              		.cfi_offset 4, -12
 2656              		.cfi_offset 7, -8
 2657              		.cfi_offset 14, -4
 2658 0002 85B0     		sub	sp, sp, #20
 2659              		.cfi_def_cfa_offset 32
 2660 0004 00AF     		add	r7, sp, #0
 2661              		.cfi_def_cfa_register 7
 423:MAX30100_All.c ****     if (millis() - pulseOximeter.tsLastSample > 1.0 / SAMPLING_FREQUENCY * 1000.0) {
 2662              		.loc 1 423 0
 2663 0006 FFF7FEFF 		bl	millis
 2664 000a 031C     		mov	r3, r0
 2665 000c 1A1C     		mov	r2, r3
 2666 000e 364B     		ldr	r3, .L181
 2667 0010 DB68     		ldr	r3, [r3, #12]
 2668 0012 D31A     		sub	r3, r2, r3
 2669 0014 181C     		mov	r0, r3
 2670 0016 FFF7FEFF 		bl	__aeabi_ui2d
 2671 001a 031C     		mov	r3, r0
 2672 001c 0C1C     		mov	r4, r1
 2673 001e 181C     		mov	r0, r3
 2674 0020 211C     		mov	r1, r4
 2675 0022 0022     		mov	r2, #0
 2676 0024 314B     		ldr	r3, .L181+4
 2677 0026 FFF7FEFF 		bl	__aeabi_dcmpgt
 2678 002a 031E     		sub	r3, r0, #0
 2679 002c 59D0     		beq	.L172
 2680              	.LBB6:
 424:MAX30100_All.c ****         pulseOximeter.tsLastSample = millis();
 2681              		.loc 1 424 0
 2682 002e FFF7FEFF 		bl	millis
 2683 0032 031C     		mov	r3, r0
 2684 0034 1A1C     		mov	r2, r3
 2685 0036 2C4B     		ldr	r3, .L181
 2686 0038 DA60     		str	r2, [r3, #12]
 425:MAX30100_All.c ****         MAX30100_update();
 2687              		.loc 1 425 0
 2688 003a FFF7FEFF 		bl	MAX30100_update
ARM GAS  C:\Users\Davit\AppData\Local\Temp\cc4XR0T4.s 			page 56


 426:MAX30100_All.c ****         float irACValue = DCRemover_step('i', pulseOximeter.hrm->rawIRValue);
 2689              		.loc 1 426 0
 2690 003e 2A4B     		ldr	r3, .L181
 2691 0040 5B6B     		ldr	r3, [r3, #52]
 2692 0042 1B88     		ldrh	r3, [r3]
 2693 0044 181C     		mov	r0, r3
 2694 0046 FFF7FEFF 		bl	__aeabi_ui2f
 2695 004a 031C     		add	r3, r0, #0
 2696 004c 6920     		mov	r0, #105
 2697 004e 191C     		add	r1, r3, #0
 2698 0050 FFF7FEFF 		bl	DCRemover_step
 2699 0054 031C     		add	r3, r0, #0
 2700 0056 FB60     		str	r3, [r7, #12]
 427:MAX30100_All.c ****         float redACValue = DCRemover_step('r', pulseOximeter.hrm->rawRedValue);
 2701              		.loc 1 427 0
 2702 0058 234B     		ldr	r3, .L181
 2703 005a 5B6B     		ldr	r3, [r3, #52]
 2704 005c 5B88     		ldrh	r3, [r3, #2]
 2705 005e 181C     		mov	r0, r3
 2706 0060 FFF7FEFF 		bl	__aeabi_ui2f
 2707 0064 031C     		add	r3, r0, #0
 2708 0066 7220     		mov	r0, #114
 2709 0068 191C     		add	r1, r3, #0
 2710 006a FFF7FEFF 		bl	DCRemover_step
 2711 006e 031C     		add	r3, r0, #0
 2712 0070 BB60     		str	r3, [r7, #8]
 428:MAX30100_All.c **** 
 429:MAX30100_All.c ****         // The signal fed to the beat detector is mirrored since the cleanest monotonic spike is be
 430:MAX30100_All.c ****         float filteredPulseValue = FilterBuLp1_step(-irACValue);
 2713              		.loc 1 430 0
 2714 0072 FB68     		ldr	r3, [r7, #12]
 2715 0074 8022     		mov	r2, #128
 2716 0076 1206     		lsl	r2, r2, #24
 2717 0078 5340     		eor	r3, r2
 2718 007a 181C     		add	r0, r3, #0
 2719 007c FFF7FEFF 		bl	FilterBuLp1_step
 2720 0080 031C     		add	r3, r0, #0
 2721 0082 7B60     		str	r3, [r7, #4]
 431:MAX30100_All.c ****         char beatDetected = BeatDetector_addSample(filteredPulseValue);
 2722              		.loc 1 431 0
 2723 0084 FC1C     		add	r4, r7, #3
 2724 0086 7B68     		ldr	r3, [r7, #4]
 2725 0088 181C     		add	r0, r3, #0
 2726 008a FFF7FEFF 		bl	BeatDetector_addSample
 2727 008e 031C     		mov	r3, r0
 2728 0090 2370     		strb	r3, [r4]
 432:MAX30100_All.c **** 
 433:MAX30100_All.c ****         if (BeatDetector_getRate() > 0) {
 2729              		.loc 1 433 0
 2730 0092 FFF7FEFF 		bl	BeatDetector_getRate
 2731 0096 031C     		add	r3, r0, #0
 2732 0098 181C     		add	r0, r3, #0
 2733 009a 0021     		mov	r1, #0
 2734 009c FFF7FEFF 		bl	__aeabi_fcmpgt
 2735 00a0 031E     		sub	r3, r0, #0
 2736 00a2 0CD0     		beq	.L180
 434:MAX30100_All.c ****             pulseOximeter.state = PULSEOXIMETER_STATE_DETECTING;
ARM GAS  C:\Users\Davit\AppData\Local\Temp\cc4XR0T4.s 			page 57


 2737              		.loc 1 434 0
 2738 00a4 104B     		ldr	r3, .L181
 2739 00a6 0222     		mov	r2, #2
 2740 00a8 1A70     		strb	r2, [r3]
 435:MAX30100_All.c ****             SpO2Calculator_update(irACValue, redACValue, beatDetected);
 2741              		.loc 1 435 0
 2742 00aa F968     		ldr	r1, [r7, #12]
 2743 00ac BA68     		ldr	r2, [r7, #8]
 2744 00ae FB1C     		add	r3, r7, #3
 2745 00b0 1B78     		ldrb	r3, [r3]
 2746 00b2 081C     		add	r0, r1, #0
 2747 00b4 111C     		add	r1, r2, #0
 2748 00b6 1A1C     		mov	r2, r3
 2749 00b8 FFF7FEFF 		bl	SpO2Calculator_update
 2750 00bc 08E0     		b	.L177
 2751              	.L180:
 436:MAX30100_All.c ****         } else if (pulseOximeter.state == PULSEOXIMETER_STATE_DETECTING) {
 2752              		.loc 1 436 0
 2753 00be 0A4B     		ldr	r3, .L181
 2754 00c0 1B78     		ldrb	r3, [r3]
 2755 00c2 022B     		cmp	r3, #2
 2756 00c4 04D1     		bne	.L177
 437:MAX30100_All.c ****             pulseOximeter.state = PULSEOXIMETER_STATE_IDLE;
 2757              		.loc 1 437 0
 2758 00c6 084B     		ldr	r3, .L181
 2759 00c8 0122     		mov	r2, #1
 2760 00ca 1A70     		strb	r2, [r3]
 438:MAX30100_All.c ****             SpO2Calculator_reset();
 2761              		.loc 1 438 0
 2762 00cc FFF7FEFF 		bl	SpO2Calculator_reset
 2763              	.L177:
 439:MAX30100_All.c ****         }
 440:MAX30100_All.c **** 
 441:MAX30100_All.c ****         if (beatDetected){// && onBeatDetected) {
 2764              		.loc 1 441 0
 2765 00d0 FB1C     		add	r3, r7, #3
 2766 00d2 1B78     		ldrb	r3, [r3]
 2767 00d4 002B     		cmp	r3, #0
 2768 00d6 04D0     		beq	.L172
 442:MAX30100_All.c ****             //onBeatDetected();
 443:MAX30100_All.c ****             numBeats++;
 2769              		.loc 1 443 0
 2770 00d8 054B     		ldr	r3, .L181+8
 2771 00da 1B68     		ldr	r3, [r3]
 2772 00dc 5A1C     		add	r2, r3, #1
 2773 00de 044B     		ldr	r3, .L181+8
 2774 00e0 1A60     		str	r2, [r3]
 2775              	.L172:
 2776              	.LBE6:
 444:MAX30100_All.c ****         }
 445:MAX30100_All.c ****     }
 446:MAX30100_All.c **** }
 2777              		.loc 1 446 0
 2778 00e2 BD46     		mov	sp, r7
 2779 00e4 05B0     		add	sp, sp, #20
 2780              		@ sp needed
 2781 00e6 90BD     		pop	{r4, r7, pc}
ARM GAS  C:\Users\Davit\AppData\Local\Temp\cc4XR0T4.s 			page 58


 2782              	.L182:
 2783              		.align	2
 2784              	.L181:
 2785 00e8 00000000 		.word	pulseOximeter
 2786 00ec 00002440 		.word	1076101120
 2787 00f0 00000000 		.word	numBeats
 2788              		.cfi_endproc
 2789              	.LFE72:
 2790              		.size	PulseOximeter_checkSample, .-PulseOximeter_checkSample
 2791              		.section	.text.PulseOximeter_checkCurrentBias,"ax",%progbits
 2792              		.align	2
 2793              		.global	PulseOximeter_checkCurrentBias
 2794              		.code	16
 2795              		.thumb_func
 2796              		.type	PulseOximeter_checkCurrentBias, %function
 2797              	PulseOximeter_checkCurrentBias:
 2798              	.LFB73:
 447:MAX30100_All.c **** 
 448:MAX30100_All.c **** void PulseOximeter_checkCurrentBias()
 449:MAX30100_All.c **** {
 2799              		.loc 1 449 0
 2800              		.cfi_startproc
 2801 0000 90B5     		push	{r4, r7, lr}
 2802              		.cfi_def_cfa_offset 12
 2803              		.cfi_offset 4, -12
 2804              		.cfi_offset 7, -8
 2805              		.cfi_offset 14, -4
 2806 0002 83B0     		sub	sp, sp, #12
 2807              		.cfi_def_cfa_offset 24
 2808 0004 00AF     		add	r7, sp, #0
 2809              		.cfi_def_cfa_register 7
 450:MAX30100_All.c ****     // Follower that adjusts the red led current in order to have comparable DC baselines between
 451:MAX30100_All.c ****     // red and IR leds. The numbers are really magic: the less possible to avoid oscillations
 452:MAX30100_All.c ****     if (millis() - pulseOximeter.tsLastBiasCheck > CURRENT_ADJUSTMENT_PERIOD_MS) {
 2810              		.loc 1 452 0
 2811 0006 FFF7FEFF 		bl	millis
 2812 000a 031C     		mov	r3, r0
 2813 000c 1A1C     		mov	r2, r3
 2814 000e 324B     		ldr	r3, .L192
 2815 0010 1B69     		ldr	r3, [r3, #16]
 2816 0012 D21A     		sub	r2, r2, r3
 2817 0014 FA23     		mov	r3, #250
 2818 0016 5B00     		lsl	r3, r3, #1
 2819 0018 9A42     		cmp	r2, r3
 2820 001a 59D9     		bls	.L183
 2821              	.LBB7:
 453:MAX30100_All.c ****         char changed = 0;
 2822              		.loc 1 453 0
 2823 001c FB1D     		add	r3, r7, #7
 2824 001e 0022     		mov	r2, #0
 2825 0020 1A70     		strb	r2, [r3]
 454:MAX30100_All.c ****         if (DCRemover_getDCW('i') - DCRemover_getDCW('r') > 70000 && pulseOximeter.redLedPower < MA
 2826              		.loc 1 454 0
 2827 0022 6920     		mov	r0, #105
 2828 0024 FFF7FEFF 		bl	DCRemover_getDCW
 2829 0028 041C     		add	r4, r0, #0
 2830 002a 7220     		mov	r0, #114
ARM GAS  C:\Users\Davit\AppData\Local\Temp\cc4XR0T4.s 			page 59


 2831 002c FFF7FEFF 		bl	DCRemover_getDCW
 2832 0030 031C     		add	r3, r0, #0
 2833 0032 201C     		add	r0, r4, #0
 2834 0034 191C     		add	r1, r3, #0
 2835 0036 FFF7FEFF 		bl	__aeabi_fsub
 2836 003a 031C     		add	r3, r0, #0
 2837 003c 181C     		add	r0, r3, #0
 2838 003e 2749     		ldr	r1, .L192+4
 2839 0040 FFF7FEFF 		bl	__aeabi_fcmpgt
 2840 0044 031E     		sub	r3, r0, #0
 2841 0046 0DD0     		beq	.L185
 2842              		.loc 1 454 0 is_stmt 0 discriminator 1
 2843 0048 234B     		ldr	r3, .L192
 2844 004a 1B7F     		ldrb	r3, [r3, #28]
 2845 004c 0E2B     		cmp	r3, #14
 2846 004e 09D8     		bhi	.L185
 455:MAX30100_All.c ****             ++(pulseOximeter.redLedPower);
 2847              		.loc 1 455 0 is_stmt 1
 2848 0050 214B     		ldr	r3, .L192
 2849 0052 1B7F     		ldrb	r3, [r3, #28]
 2850 0054 0133     		add	r3, r3, #1
 2851 0056 DAB2     		uxtb	r2, r3
 2852 0058 1F4B     		ldr	r3, .L192
 2853 005a 1A77     		strb	r2, [r3, #28]
 456:MAX30100_All.c ****             changed = 1;
 2854              		.loc 1 456 0
 2855 005c FB1D     		add	r3, r7, #7
 2856 005e 0122     		mov	r2, #1
 2857 0060 1A70     		strb	r2, [r3]
 2858 0062 1FE0     		b	.L187
 2859              	.L185:
 457:MAX30100_All.c ****         } else if (DCRemover_getDCW('r') - DCRemover_getDCW('i') > 70000 && pulseOximeter.redLedPow
 2860              		.loc 1 457 0
 2861 0064 7220     		mov	r0, #114
 2862 0066 FFF7FEFF 		bl	DCRemover_getDCW
 2863 006a 041C     		add	r4, r0, #0
 2864 006c 6920     		mov	r0, #105
 2865 006e FFF7FEFF 		bl	DCRemover_getDCW
 2866 0072 031C     		add	r3, r0, #0
 2867 0074 201C     		add	r0, r4, #0
 2868 0076 191C     		add	r1, r3, #0
 2869 0078 FFF7FEFF 		bl	__aeabi_fsub
 2870 007c 031C     		add	r3, r0, #0
 2871 007e 181C     		add	r0, r3, #0
 2872 0080 1649     		ldr	r1, .L192+4
 2873 0082 FFF7FEFF 		bl	__aeabi_fcmpgt
 2874 0086 031E     		sub	r3, r0, #0
 2875 0088 0CD0     		beq	.L187
 2876              		.loc 1 457 0 is_stmt 0 discriminator 1
 2877 008a 134B     		ldr	r3, .L192
 2878 008c 1B7F     		ldrb	r3, [r3, #28]
 2879 008e 002B     		cmp	r3, #0
 2880 0090 08D0     		beq	.L187
 458:MAX30100_All.c ****             --(pulseOximeter.redLedPower);
 2881              		.loc 1 458 0 is_stmt 1
 2882 0092 114B     		ldr	r3, .L192
 2883 0094 1B7F     		ldrb	r3, [r3, #28]
ARM GAS  C:\Users\Davit\AppData\Local\Temp\cc4XR0T4.s 			page 60


 2884 0096 013B     		sub	r3, r3, #1
 2885 0098 DAB2     		uxtb	r2, r3
 2886 009a 0F4B     		ldr	r3, .L192
 2887 009c 1A77     		strb	r2, [r3, #28]
 459:MAX30100_All.c ****             changed = 1;
 2888              		.loc 1 459 0
 2889 009e FB1D     		add	r3, r7, #7
 2890 00a0 0122     		mov	r2, #1
 2891 00a2 1A70     		strb	r2, [r3]
 2892              	.L187:
 460:MAX30100_All.c ****         }
 461:MAX30100_All.c **** 
 462:MAX30100_All.c ****         if (changed) {
 2893              		.loc 1 462 0
 2894 00a4 FB1D     		add	r3, r7, #7
 2895 00a6 1B78     		ldrb	r3, [r3]
 2896 00a8 002B     		cmp	r3, #0
 2897 00aa 0BD0     		beq	.L189
 463:MAX30100_All.c ****             MAX30100_setLedsCurrent(IR_LED_CURRENT, (LEDCurrent)pulseOximeter.redLedPower);
 2898              		.loc 1 463 0
 2899 00ac 0A4B     		ldr	r3, .L192
 2900 00ae 1B7F     		ldrb	r3, [r3, #28]
 2901 00b0 0F20     		mov	r0, #15
 2902 00b2 191C     		mov	r1, r3
 2903 00b4 FFF7FEFF 		bl	MAX30100_setLedsCurrent
 464:MAX30100_All.c ****             pulseOximeter.tsLastCurrentAdjustment = millis();
 2904              		.loc 1 464 0
 2905 00b8 FFF7FEFF 		bl	millis
 2906 00bc 031C     		mov	r3, r0
 2907 00be 1A1C     		mov	r2, r3
 2908 00c0 054B     		ldr	r3, .L192
 2909 00c2 5A61     		str	r2, [r3, #20]
 2910              	.L189:
 465:MAX30100_All.c ****         }
 466:MAX30100_All.c **** 
 467:MAX30100_All.c ****         pulseOximeter.tsLastBiasCheck = millis();
 2911              		.loc 1 467 0
 2912 00c4 FFF7FEFF 		bl	millis
 2913 00c8 031C     		mov	r3, r0
 2914 00ca 1A1C     		mov	r2, r3
 2915 00cc 024B     		ldr	r3, .L192
 2916 00ce 1A61     		str	r2, [r3, #16]
 2917              	.L183:
 2918              	.LBE7:
 468:MAX30100_All.c ****     }
 469:MAX30100_All.c **** }...
 2919              		.loc 1 469 0
 2920 00d0 BD46     		mov	sp, r7
 2921 00d2 03B0     		add	sp, sp, #12
 2922              		@ sp needed
 2923 00d4 90BD     		pop	{r4, r7, pc}
 2924              	.L193:
 2925 00d6 C046     		.align	2
 2926              	.L192:
 2927 00d8 00000000 		.word	pulseOximeter
 2928 00dc 00B88847 		.word	1200142336
 2929              		.cfi_endproc
ARM GAS  C:\Users\Davit\AppData\Local\Temp\cc4XR0T4.s 			page 61


 2930              	.LFE73:
 2931              		.size	PulseOximeter_checkCurrentBias, .-PulseOximeter_checkCurrentBias
 2932              		.text
 2933              	.Letext0:
 2934              		.file 2 "c:\\program files (x86)\\cypress\\psoc creator\\4.0\\psoc creator\\import\\gnu\\arm\\4.9.
 2935              		.file 3 "c:\\program files (x86)\\cypress\\psoc creator\\4.0\\psoc creator\\import\\gnu\\arm\\4.9.
 2936              		.file 4 "./MAX30100_Registers.h"
 2937              		.file 5 "Generated_Source\\PSoC4/cytypes.h"
 2938              		.file 6 "./MAX30100_All.h"
 2939              		.file 7 "Generated_Source\\PSoC4/BLE_1_Stack.h"