ARM GAS  C:\Users\Davit\AppData\Local\Temp\cc4XR0T4.s 			page 1


   1              		.cpu cortex-m0
   2              		.fpu softvfp
   3              		.eabi_attribute 20, 1
   4              		.eabi_attribute 21, 1
   5              		.eabi_attribute 23, 3
   6              		.eabi_attribute 24, 1
   7              		.eabi_attribute 25, 1
   8              		.eabi_attribute 26, 1
   9              		.eabi_attribute 30, 6
  10              		.eabi_attribute 34, 0
  11              		.eabi_attribute 18, 4
  12              		.code	16
  13              		.file	"MAX30100_All.c"
  14              		.text
  15              	.Ltext0:
  16              		.cfi_sections	.debug_frame
  17              		.comm	pulseOximeter,64,8
  18              		.comm	globalBeatDetector,20,4
  19              		.comm	globalIrDCRemover,8,4
  20              		.comm	globalRedDCRemover,8,4
  21              		.comm	globalLpf,8,4
  22              		.comm	globalSpO2calculator,64,4
  23              		.comm	globalHrm,4,4
  24              		.comm	numBeats,4,4
  25              		.global	__aeabi_dcmplt
  26              		.section	.text.min,"ax",%progbits
  27              		.align	2
  28              		.global	min
  29              		.code	16
  30              		.thumb_func
  31              		.type	min, %function
  32              	min:
  33              	.LFB37:
  34              		.file 1 "MAX30100_All.c"
   1:MAX30100_All.c **** #include <MAX30100_All.h>
   2:MAX30100_All.c **** 
   3:MAX30100_All.c **** double min(double a, double b) {
  35              		.loc 1 3 0
  36              		.cfi_startproc
  37 0000 90B5     		push	{r4, r7, lr}
  38              		.cfi_def_cfa_offset 12
  39              		.cfi_offset 4, -12
  40              		.cfi_offset 7, -8
  41              		.cfi_offset 14, -4
  42 0002 85B0     		sub	sp, sp, #20
  43              		.cfi_def_cfa_offset 32
  44 0004 00AF     		add	r7, sp, #0
  45              		.cfi_def_cfa_register 7
  46 0006 B860     		str	r0, [r7, #8]
  47 0008 F960     		str	r1, [r7, #12]
  48 000a 3A60     		str	r2, [r7]
  49 000c 7B60     		str	r3, [r7, #4]
   4:MAX30100_All.c ****     return a<b ? a : b;
  50              		.loc 1 4 0
  51 000e B868     		ldr	r0, [r7, #8]
  52 0010 F968     		ldr	r1, [r7, #12]
  53 0012 3A68     		ldr	r2, [r7]
ARM GAS  C:\Users\Davit\AppData\Local\Temp\cc4XR0T4.s 			page 2


  54 0014 7B68     		ldr	r3, [r7, #4]
  55 0016 FFF7FEFF 		bl	__aeabi_dcmplt
  56 001a 031E     		sub	r3, r0, #0
  57 001c 02D0     		beq	.L7
  58              		.loc 1 4 0 is_stmt 0 discriminator 1
  59 001e BB68     		ldr	r3, [r7, #8]
  60 0020 FC68     		ldr	r4, [r7, #12]
  61 0022 01E0     		b	.L4
  62              	.L7:
  63              		.loc 1 4 0 discriminator 2
  64 0024 3B68     		ldr	r3, [r7]
  65 0026 7C68     		ldr	r4, [r7, #4]
  66              	.L4:
   5:MAX30100_All.c **** }
  67              		.loc 1 5 0 is_stmt 1 discriminator 4
  68 0028 181C     		mov	r0, r3
  69 002a 211C     		mov	r1, r4
  70 002c BD46     		mov	sp, r7
  71 002e 05B0     		add	sp, sp, #20
  72              		@ sp needed
  73 0030 90BD     		pop	{r4, r7, pc}
  74              		.cfi_endproc
  75              	.LFE37:
  76              		.size	min, .-min
  77 0032 C046     		.section	.text.BeatDetector_Init,"ax",%progbits
  78              		.align	2
  79              		.global	BeatDetector_Init
  80              		.code	16
  81              		.thumb_func
  82              		.type	BeatDetector_Init, %function
  83              	BeatDetector_Init:
  84              	.LFB38:
   6:MAX30100_All.c **** 
   7:MAX30100_All.c **** void BeatDetector_Init(){ 
  85              		.loc 1 7 0
  86              		.cfi_startproc
  87 0000 80B5     		push	{r7, lr}
  88              		.cfi_def_cfa_offset 8
  89              		.cfi_offset 7, -8
  90              		.cfi_offset 14, -4
  91 0002 00AF     		add	r7, sp, #0
  92              		.cfi_def_cfa_register 7
   8:MAX30100_All.c ****     pulseOximeter.beatDetector->state = BEATDETECTOR_STATE_INIT;// BEATDETECTOR_STATE_INIT;
  93              		.loc 1 8 0
  94 0004 0A4B     		ldr	r3, .L9
  95 0006 1B6A     		ldr	r3, [r3, #32]
  96 0008 0022     		mov	r2, #0
  97 000a 1A70     		strb	r2, [r3]
   9:MAX30100_All.c ****     pulseOximeter.beatDetector->threshold = BEATDETECTOR_MIN_THRESHOLD;
  98              		.loc 1 9 0
  99 000c 084B     		ldr	r3, .L9
 100 000e 1B6A     		ldr	r3, [r3, #32]
 101 0010 084A     		ldr	r2, .L9+4
 102 0012 5A60     		str	r2, [r3, #4]
  10:MAX30100_All.c ****     pulseOximeter.beatDetector->beatPeriod = 0;
 103              		.loc 1 10 0
 104 0014 064B     		ldr	r3, .L9
ARM GAS  C:\Users\Davit\AppData\Local\Temp\cc4XR0T4.s 			page 3


 105 0016 1B6A     		ldr	r3, [r3, #32]
 106 0018 0022     		mov	r2, #0
 107 001a 9A60     		str	r2, [r3, #8]
  11:MAX30100_All.c ****     pulseOximeter.beatDetector->lastMaxValue = 0;
 108              		.loc 1 11 0
 109 001c 044B     		ldr	r3, .L9
 110 001e 1B6A     		ldr	r3, [r3, #32]
 111 0020 0022     		mov	r2, #0
 112 0022 DA60     		str	r2, [r3, #12]
  12:MAX30100_All.c ****     pulseOximeter.beatDetector->tsLastBeat = 0;
 113              		.loc 1 12 0
 114 0024 024B     		ldr	r3, .L9
 115 0026 1B6A     		ldr	r3, [r3, #32]
 116 0028 0022     		mov	r2, #0
 117 002a 1A61     		str	r2, [r3, #16]
  13:MAX30100_All.c **** }
 118              		.loc 1 13 0
 119 002c BD46     		mov	sp, r7
 120              		@ sp needed
 121 002e 80BD     		pop	{r7, pc}
 122              	.L10:
 123              		.align	2
 124              	.L9:
 125 0030 00000000 		.word	pulseOximeter
 126 0034 0000A041 		.word	1101004800
 127              		.cfi_endproc
 128              	.LFE38:
 129              		.size	BeatDetector_Init, .-BeatDetector_Init
 130              		.section	.text.BeatDetector_addSample,"ax",%progbits
 131              		.align	2
 132              		.global	BeatDetector_addSample
 133              		.code	16
 134              		.thumb_func
 135              		.type	BeatDetector_addSample, %function
 136              	BeatDetector_addSample:
 137              	.LFB39:
  14:MAX30100_All.c **** 
  15:MAX30100_All.c **** char BeatDetector_addSample(float sample)
  16:MAX30100_All.c **** {
 138              		.loc 1 16 0
 139              		.cfi_startproc
 140 0000 80B5     		push	{r7, lr}
 141              		.cfi_def_cfa_offset 8
 142              		.cfi_offset 7, -8
 143              		.cfi_offset 14, -4
 144 0002 82B0     		sub	sp, sp, #8
 145              		.cfi_def_cfa_offset 16
 146 0004 00AF     		add	r7, sp, #0
 147              		.cfi_def_cfa_register 7
 148 0006 7860     		str	r0, [r7, #4]
  17:MAX30100_All.c ****     return BeatDetector_checkForBeat(sample);
 149              		.loc 1 17 0
 150 0008 7B68     		ldr	r3, [r7, #4]
 151 000a 181C     		add	r0, r3, #0
 152 000c FFF7FEFF 		bl	BeatDetector_checkForBeat
 153 0010 031C     		mov	r3, r0
  18:MAX30100_All.c **** }
ARM GAS  C:\Users\Davit\AppData\Local\Temp\cc4XR0T4.s 			page 4


 154              		.loc 1 18 0
 155 0012 181C     		mov	r0, r3
 156 0014 BD46     		mov	sp, r7
 157 0016 02B0     		add	sp, sp, #8
 158              		@ sp needed
 159 0018 80BD     		pop	{r7, pc}
 160              		.cfi_endproc
 161              	.LFE39:
 162              		.size	BeatDetector_addSample, .-BeatDetector_addSample
 163              		.global	__aeabi_fcmpeq
 164              		.global	__aeabi_fdiv
 165              		.global	__aeabi_fmul
 166 001a C046     		.section	.text.BeatDetector_getRate,"ax",%progbits
 167              		.align	2
 168              		.global	BeatDetector_getRate
 169              		.code	16
 170              		.thumb_func
 171              		.type	BeatDetector_getRate, %function
 172              	BeatDetector_getRate:
 173              	.LFB40:
  19:MAX30100_All.c **** 
  20:MAX30100_All.c **** float BeatDetector_getRate(){
 174              		.loc 1 20 0
 175              		.cfi_startproc
 176 0000 80B5     		push	{r7, lr}
 177              		.cfi_def_cfa_offset 8
 178              		.cfi_offset 7, -8
 179              		.cfi_offset 14, -4
 180 0002 00AF     		add	r7, sp, #0
 181              		.cfi_def_cfa_register 7
  21:MAX30100_All.c ****     if (pulseOximeter.beatDetector->beatPeriod != 0) {
 182              		.loc 1 21 0
 183 0004 104B     		ldr	r3, .L19
 184 0006 1B6A     		ldr	r3, [r3, #32]
 185 0008 9B68     		ldr	r3, [r3, #8]
 186 000a 181C     		add	r0, r3, #0
 187 000c 0021     		mov	r1, #0
 188 000e FFF7FEFF 		bl	__aeabi_fcmpeq
 189 0012 031E     		sub	r3, r0, #0
 190 0014 13D1     		bne	.L18
  22:MAX30100_All.c ****         return 1 / pulseOximeter.beatDetector->beatPeriod * 1000 * 60;
 191              		.loc 1 22 0
 192 0016 0C4B     		ldr	r3, .L19
 193 0018 1B6A     		ldr	r3, [r3, #32]
 194 001a 9B68     		ldr	r3, [r3, #8]
 195 001c FE20     		mov	r0, #254
 196 001e 8005     		lsl	r0, r0, #22
 197 0020 191C     		add	r1, r3, #0
 198 0022 FFF7FEFF 		bl	__aeabi_fdiv
 199 0026 031C     		add	r3, r0, #0
 200 0028 181C     		add	r0, r3, #0
 201 002a 0849     		ldr	r1, .L19+4
 202 002c FFF7FEFF 		bl	__aeabi_fmul
 203 0030 031C     		add	r3, r0, #0
 204 0032 181C     		add	r0, r3, #0
 205 0034 0649     		ldr	r1, .L19+8
 206 0036 FFF7FEFF 		bl	__aeabi_fmul
ARM GAS  C:\Users\Davit\AppData\Local\Temp\cc4XR0T4.s 			page 5


 207 003a 031C     		add	r3, r0, #0
 208 003c 00E0     		b	.L16
 209              	.L18:
  23:MAX30100_All.c ****     } else {
  24:MAX30100_All.c ****         return 0;
 210              		.loc 1 24 0
 211 003e 0023     		mov	r3, #0
 212              	.L16:
  25:MAX30100_All.c ****     }
  26:MAX30100_All.c **** }
 213              		.loc 1 26 0
 214 0040 181C     		add	r0, r3, #0
 215 0042 BD46     		mov	sp, r7
 216              		@ sp needed
 217 0044 80BD     		pop	{r7, pc}
 218              	.L20:
 219 0046 C046     		.align	2
 220              	.L19:
 221 0048 00000000 		.word	pulseOximeter
 222 004c 00007A44 		.word	1148846080
 223 0050 00007042 		.word	1114636288
 224              		.cfi_endproc
 225              	.LFE40:
 226              		.size	BeatDetector_getRate, .-BeatDetector_getRate
 227              		.section	.text.BeatDetector_getCurrentThreshold,"ax",%progbits
 228              		.align	2
 229              		.global	BeatDetector_getCurrentThreshold
 230              		.code	16
 231              		.thumb_func
 232              		.type	BeatDetector_getCurrentThreshold, %function
 233              	BeatDetector_getCurrentThreshold:
 234              	.LFB41:
  27:MAX30100_All.c **** 
  28:MAX30100_All.c **** float BeatDetector_getCurrentThreshold(){
 235              		.loc 1 28 0
 236              		.cfi_startproc
 237 0000 80B5     		push	{r7, lr}
 238              		.cfi_def_cfa_offset 8
 239              		.cfi_offset 7, -8
 240              		.cfi_offset 14, -4
 241 0002 00AF     		add	r7, sp, #0
 242              		.cfi_def_cfa_register 7
  29:MAX30100_All.c ****     return pulseOximeter.beatDetector->threshold;
 243              		.loc 1 29 0
 244 0004 024B     		ldr	r3, .L23
 245 0006 1B6A     		ldr	r3, [r3, #32]
 246 0008 5B68     		ldr	r3, [r3, #4]
  30:MAX30100_All.c **** }
 247              		.loc 1 30 0
 248 000a 181C     		add	r0, r3, #0
 249 000c BD46     		mov	sp, r7
 250              		@ sp needed
 251 000e 80BD     		pop	{r7, pc}
 252              	.L24:
 253              		.align	2
 254              	.L23:
 255 0010 00000000 		.word	pulseOximeter
ARM GAS  C:\Users\Davit\AppData\Local\Temp\cc4XR0T4.s 			page 6


 256              		.cfi_endproc
 257              	.LFE41:
 258              		.size	BeatDetector_getCurrentThreshold, .-BeatDetector_getCurrentThreshold
 259              		.global	__aeabi_fcmplt
 260              		.global	__aeabi_f2d
 261              		.global	__aeabi_d2f
 262              		.global	__aeabi_fcmpgt
 263              		.global	__aeabi_fadd
 264              		.global	__aeabi_ui2f
 265              		.global	__aeabi_dmul
 266              		.global	__aeabi_dadd
 267              		.section	.text.BeatDetector_checkForBeat,"ax",%progbits
 268              		.align	2
 269              		.global	BeatDetector_checkForBeat
 270              		.code	16
 271              		.thumb_func
 272              		.type	BeatDetector_checkForBeat, %function
 273              	BeatDetector_checkForBeat:
 274              	.LFB42:
  31:MAX30100_All.c **** 
  32:MAX30100_All.c **** char BeatDetector_checkForBeat(float sample){
 275              		.loc 1 32 0
 276              		.cfi_startproc
 277 0000 F0B5     		push	{r4, r5, r6, r7, lr}
 278              		.cfi_def_cfa_offset 20
 279              		.cfi_offset 4, -20
 280              		.cfi_offset 5, -16
 281              		.cfi_offset 6, -12
 282              		.cfi_offset 7, -8
 283              		.cfi_offset 14, -4
 284 0002 85B0     		sub	sp, sp, #20
 285              		.cfi_def_cfa_offset 40
 286 0004 00AF     		add	r7, sp, #0
 287              		.cfi_def_cfa_register 7
 288 0006 7860     		str	r0, [r7, #4]
  33:MAX30100_All.c ****     char beatDetected = 0;
 289              		.loc 1 33 0
 290 0008 0F23     		mov	r3, #15
 291 000a FB18     		add	r3, r7, r3
 292 000c 0022     		mov	r2, #0
 293 000e 1A70     		strb	r2, [r3]
  34:MAX30100_All.c **** 
  35:MAX30100_All.c ****     switch (pulseOximeter.beatDetector->state) {
 294              		.loc 1 35 0
 295 0010 754B     		ldr	r3, .L53
 296 0012 1B6A     		ldr	r3, [r3, #32]
 297 0014 1B78     		ldrb	r3, [r3]
 298 0016 042B     		cmp	r3, #4
 299 0018 00D9     		bls	.LCB227
 300 001a DEE0     		b	.L26	@long jump
 301              	.LCB227:
 302 001c 9A00     		lsl	r2, r3, #2
 303 001e 734B     		ldr	r3, .L53+4
 304 0020 D318     		add	r3, r2, r3
 305 0022 1B68     		ldr	r3, [r3]
 306 0024 9F46     		mov	pc, r3
 307              		.section	.rodata
ARM GAS  C:\Users\Davit\AppData\Local\Temp\cc4XR0T4.s 			page 7


 308              		.align	2
 309              	.L28:
 310 0000 26000000 		.word	.L27
 311 0004 40000000 		.word	.L29
 312 0008 AA000000 		.word	.L30
 313 000c EA000000 		.word	.L31
 314 0010 B8010000 		.word	.L32
 315              		.section	.text.BeatDetector_checkForBeat
 316              	.L27:
  36:MAX30100_All.c ****         case BEATDETECTOR_STATE_INIT:
  37:MAX30100_All.c ****             if (millis() > BEATDETECTOR_INIT_HOLDOFF) {
 317              		.loc 1 37 0
 318 0026 FFF7FEFF 		bl	millis
 319 002a 021C     		mov	r2, r0
 320 002c FA23     		mov	r3, #250
 321 002e DB00     		lsl	r3, r3, #3
 322 0030 9A42     		cmp	r2, r3
 323 0032 04DD     		ble	.L33
  38:MAX30100_All.c ****                 pulseOximeter.beatDetector->state = BEATDETECTOR_STATE_WAITING;
 324              		.loc 1 38 0
 325 0034 6C4B     		ldr	r3, .L53
 326 0036 1B6A     		ldr	r3, [r3, #32]
 327 0038 0122     		mov	r2, #1
 328 003a 1A70     		strb	r2, [r3]
  39:MAX30100_All.c ****             }
  40:MAX30100_All.c ****             break;
 329              		.loc 1 40 0
 330 003c CDE0     		b	.L26
 331              	.L33:
 332 003e CCE0     		b	.L26
 333              	.L29:
  41:MAX30100_All.c **** 
  42:MAX30100_All.c ****         case BEATDETECTOR_STATE_WAITING:
  43:MAX30100_All.c ****             if (sample > pulseOximeter.beatDetector->threshold) {
 334              		.loc 1 43 0
 335 0040 694B     		ldr	r3, .L53
 336 0042 1B6A     		ldr	r3, [r3, #32]
 337 0044 5B68     		ldr	r3, [r3, #4]
 338 0046 181C     		add	r0, r3, #0
 339 0048 7968     		ldr	r1, [r7, #4]
 340 004a FFF7FEFF 		bl	__aeabi_fcmplt
 341 004e 031E     		sub	r3, r0, #0
 342 0050 14D0     		beq	.L34
  44:MAX30100_All.c ****                 pulseOximeter.beatDetector->threshold = min(sample, BEATDETECTOR_MAX_THRESHOLD);
 343              		.loc 1 44 0
 344 0052 654B     		ldr	r3, .L53
 345 0054 1C6A     		ldr	r4, [r3, #32]
 346 0056 7868     		ldr	r0, [r7, #4]
 347 0058 FFF7FEFF 		bl	__aeabi_f2d
 348 005c 0022     		mov	r2, #0
 349 005e 644B     		ldr	r3, .L53+8
 350 0060 FFF7FEFF 		bl	min
 351 0064 021C     		mov	r2, r0
 352 0066 0B1C     		mov	r3, r1
 353 0068 101C     		mov	r0, r2
 354 006a 191C     		mov	r1, r3
 355 006c FFF7FEFF 		bl	__aeabi_d2f
ARM GAS  C:\Users\Davit\AppData\Local\Temp\cc4XR0T4.s 			page 8


 356 0070 031C     		add	r3, r0, #0
 357 0072 6360     		str	r3, [r4, #4]
  45:MAX30100_All.c ****                 pulseOximeter.beatDetector->state = BEATDETECTOR_STATE_FOLLOWING_SLOPE;
 358              		.loc 1 45 0
 359 0074 5C4B     		ldr	r3, .L53
 360 0076 1B6A     		ldr	r3, [r3, #32]
 361 0078 0222     		mov	r2, #2
 362 007a 1A70     		strb	r2, [r3]
 363              	.L34:
  46:MAX30100_All.c ****             }
  47:MAX30100_All.c **** 
  48:MAX30100_All.c ****             // Tracking lost, resetting
  49:MAX30100_All.c ****             if (millis() - pulseOximeter.beatDetector->tsLastBeat > BEATDETECTOR_INVALID_READOUT_DE
 364              		.loc 1 49 0
 365 007c FFF7FEFF 		bl	millis
 366 0080 031C     		mov	r3, r0
 367 0082 1A1C     		mov	r2, r3
 368 0084 584B     		ldr	r3, .L53
 369 0086 1B6A     		ldr	r3, [r3, #32]
 370 0088 1B69     		ldr	r3, [r3, #16]
 371 008a D21A     		sub	r2, r2, r3
 372 008c FA23     		mov	r3, #250
 373 008e DB00     		lsl	r3, r3, #3
 374 0090 9A42     		cmp	r2, r3
 375 0092 07D9     		bls	.L36
  50:MAX30100_All.c ****                 pulseOximeter.beatDetector->beatPeriod = 0;
 376              		.loc 1 50 0
 377 0094 544B     		ldr	r3, .L53
 378 0096 1B6A     		ldr	r3, [r3, #32]
 379 0098 0022     		mov	r2, #0
 380 009a 9A60     		str	r2, [r3, #8]
  51:MAX30100_All.c ****                 pulseOximeter.beatDetector->lastMaxValue = 0;
 381              		.loc 1 51 0
 382 009c 524B     		ldr	r3, .L53
 383 009e 1B6A     		ldr	r3, [r3, #32]
 384 00a0 0022     		mov	r2, #0
 385 00a2 DA60     		str	r2, [r3, #12]
 386              	.L36:
  52:MAX30100_All.c ****             }
  53:MAX30100_All.c **** 
  54:MAX30100_All.c ****             BeatDetector_decreaseThreshold();
 387              		.loc 1 54 0
 388 00a4 FFF7FEFF 		bl	BeatDetector_decreaseThreshold
  55:MAX30100_All.c ****             break;
 389              		.loc 1 55 0
 390 00a8 97E0     		b	.L26
 391              	.L30:
  56:MAX30100_All.c **** 
  57:MAX30100_All.c ****         case BEATDETECTOR_STATE_FOLLOWING_SLOPE:
  58:MAX30100_All.c ****             if (sample < pulseOximeter.beatDetector->threshold) {
 392              		.loc 1 58 0
 393 00aa 4F4B     		ldr	r3, .L53
 394 00ac 1B6A     		ldr	r3, [r3, #32]
 395 00ae 5B68     		ldr	r3, [r3, #4]
 396 00b0 181C     		add	r0, r3, #0
 397 00b2 7968     		ldr	r1, [r7, #4]
 398 00b4 FFF7FEFF 		bl	__aeabi_fcmpgt
ARM GAS  C:\Users\Davit\AppData\Local\Temp\cc4XR0T4.s 			page 9


 399 00b8 031E     		sub	r3, r0, #0
 400 00ba 04D0     		beq	.L51
  59:MAX30100_All.c ****                 pulseOximeter.beatDetector->state = BEATDETECTOR_STATE_MAYBE_DETECTED;
 401              		.loc 1 59 0
 402 00bc 4A4B     		ldr	r3, .L53
 403 00be 1B6A     		ldr	r3, [r3, #32]
 404 00c0 0322     		mov	r2, #3
 405 00c2 1A70     		strb	r2, [r3]
  60:MAX30100_All.c ****             } else {
  61:MAX30100_All.c ****                 pulseOximeter.beatDetector->threshold = min(sample, BEATDETECTOR_MAX_THRESHOLD);
  62:MAX30100_All.c ****             }
  63:MAX30100_All.c ****             break;
 406              		.loc 1 63 0
 407 00c4 89E0     		b	.L26
 408              	.L51:
  61:MAX30100_All.c ****             }
 409              		.loc 1 61 0
 410 00c6 484B     		ldr	r3, .L53
 411 00c8 1C6A     		ldr	r4, [r3, #32]
 412 00ca 7868     		ldr	r0, [r7, #4]
 413 00cc FFF7FEFF 		bl	__aeabi_f2d
 414 00d0 0022     		mov	r2, #0
 415 00d2 474B     		ldr	r3, .L53+8
 416 00d4 FFF7FEFF 		bl	min
 417 00d8 021C     		mov	r2, r0
 418 00da 0B1C     		mov	r3, r1
 419 00dc 101C     		mov	r0, r2
 420 00de 191C     		mov	r1, r3
 421 00e0 FFF7FEFF 		bl	__aeabi_d2f
 422 00e4 031C     		add	r3, r0, #0
 423 00e6 6360     		str	r3, [r4, #4]
 424              		.loc 1 63 0
 425 00e8 77E0     		b	.L26
 426              	.L31:
  64:MAX30100_All.c **** 
  65:MAX30100_All.c ****         case BEATDETECTOR_STATE_MAYBE_DETECTED:
  66:MAX30100_All.c ****             if (sample + BEATDETECTOR_STEP_RESILIENCY < pulseOximeter.beatDetector->threshold) {
 427              		.loc 1 66 0
 428 00ea 7868     		ldr	r0, [r7, #4]
 429 00ec 4149     		ldr	r1, .L53+12
 430 00ee FFF7FEFF 		bl	__aeabi_fadd
 431 00f2 031C     		add	r3, r0, #0
 432 00f4 1A1C     		add	r2, r3, #0
 433 00f6 3C4B     		ldr	r3, .L53
 434 00f8 1B6A     		ldr	r3, [r3, #32]
 435 00fa 5B68     		ldr	r3, [r3, #4]
 436 00fc 101C     		add	r0, r2, #0
 437 00fe 191C     		add	r1, r3, #0
 438 0100 FFF7FEFF 		bl	__aeabi_fcmplt
 439 0104 031E     		sub	r3, r0, #0
 440 0106 52D0     		beq	.L52
 441              	.LBB2:
  67:MAX30100_All.c ****                 // Found a beat
  68:MAX30100_All.c ****                 beatDetected = 1;
 442              		.loc 1 68 0
 443 0108 0F23     		mov	r3, #15
 444 010a FB18     		add	r3, r7, r3
ARM GAS  C:\Users\Davit\AppData\Local\Temp\cc4XR0T4.s 			page 10


 445 010c 0122     		mov	r2, #1
 446 010e 1A70     		strb	r2, [r3]
  69:MAX30100_All.c ****                 pulseOximeter.beatDetector->lastMaxValue = sample;
 447              		.loc 1 69 0
 448 0110 354B     		ldr	r3, .L53
 449 0112 1B6A     		ldr	r3, [r3, #32]
 450 0114 7A68     		ldr	r2, [r7, #4]
 451 0116 DA60     		str	r2, [r3, #12]
  70:MAX30100_All.c ****                 pulseOximeter.beatDetector->state = BEATDETECTOR_STATE_MASKING;
 452              		.loc 1 70 0
 453 0118 334B     		ldr	r3, .L53
 454 011a 1B6A     		ldr	r3, [r3, #32]
 455 011c 0422     		mov	r2, #4
 456 011e 1A70     		strb	r2, [r3]
  71:MAX30100_All.c ****                 float delta = millis() - pulseOximeter.beatDetector->tsLastBeat;
 457              		.loc 1 71 0
 458 0120 FFF7FEFF 		bl	millis
 459 0124 031C     		mov	r3, r0
 460 0126 1A1C     		mov	r2, r3
 461 0128 2F4B     		ldr	r3, .L53
 462 012a 1B6A     		ldr	r3, [r3, #32]
 463 012c 1B69     		ldr	r3, [r3, #16]
 464 012e D31A     		sub	r3, r2, r3
 465 0130 181C     		mov	r0, r3
 466 0132 FFF7FEFF 		bl	__aeabi_ui2f
 467 0136 031C     		add	r3, r0, #0
 468 0138 BB60     		str	r3, [r7, #8]
  72:MAX30100_All.c ****                 
  73:MAX30100_All.c ****                 if (delta) {
 469              		.loc 1 73 0
 470 013a B868     		ldr	r0, [r7, #8]
 471 013c 0021     		mov	r1, #0
 472 013e FFF7FEFF 		bl	__aeabi_fcmpeq
 473 0142 031E     		sub	r3, r0, #0
 474 0144 2CD1     		bne	.L42
  74:MAX30100_All.c ****                     pulseOximeter.beatDetector->beatPeriod = BEATDETECTOR_BPFILTER_ALPHA * delta + 
 475              		.loc 1 74 0
 476 0146 284B     		ldr	r3, .L53
 477 0148 1C6A     		ldr	r4, [r3, #32]
 478 014a B868     		ldr	r0, [r7, #8]
 479 014c FFF7FEFF 		bl	__aeabi_f2d
 480 0150 021C     		mov	r2, r0
 481 0152 0B1C     		mov	r3, r1
 482 0154 101C     		mov	r0, r2
 483 0156 191C     		mov	r1, r3
 484 0158 274A     		ldr	r2, .L53+16
 485 015a 284B     		ldr	r3, .L53+20
 486 015c FFF7FEFF 		bl	__aeabi_dmul
 487 0160 021C     		mov	r2, r0
 488 0162 0B1C     		mov	r3, r1
 489 0164 151C     		mov	r5, r2
 490 0166 1E1C     		mov	r6, r3
 491 0168 1F4B     		ldr	r3, .L53
 492 016a 1B6A     		ldr	r3, [r3, #32]
 493 016c 9B68     		ldr	r3, [r3, #8]
 494 016e 181C     		add	r0, r3, #0
 495 0170 FFF7FEFF 		bl	__aeabi_f2d
ARM GAS  C:\Users\Davit\AppData\Local\Temp\cc4XR0T4.s 			page 11


 496 0174 021C     		mov	r2, r0
 497 0176 0B1C     		mov	r3, r1
 498 0178 101C     		mov	r0, r2
 499 017a 191C     		mov	r1, r3
 500 017c 204A     		ldr	r2, .L53+24
 501 017e 214B     		ldr	r3, .L53+28
 502 0180 FFF7FEFF 		bl	__aeabi_dmul
 503 0184 021C     		mov	r2, r0
 504 0186 0B1C     		mov	r3, r1
 505 0188 281C     		mov	r0, r5
 506 018a 311C     		mov	r1, r6
 507 018c FFF7FEFF 		bl	__aeabi_dadd
 508 0190 021C     		mov	r2, r0
 509 0192 0B1C     		mov	r3, r1
 510 0194 101C     		mov	r0, r2
 511 0196 191C     		mov	r1, r3
 512 0198 FFF7FEFF 		bl	__aeabi_d2f
 513 019c 031C     		add	r3, r0, #0
 514 019e A360     		str	r3, [r4, #8]
 515              	.L42:
  75:MAX30100_All.c ****                 }
  76:MAX30100_All.c **** 
  77:MAX30100_All.c ****                 pulseOximeter.beatDetector->tsLastBeat = millis();
 516              		.loc 1 77 0
 517 01a0 114B     		ldr	r3, .L53
 518 01a2 1C6A     		ldr	r4, [r3, #32]
 519 01a4 FFF7FEFF 		bl	millis
 520 01a8 031C     		mov	r3, r0
 521 01aa 2361     		str	r3, [r4, #16]
 522              	.LBE2:
  78:MAX30100_All.c ****             } else {
  79:MAX30100_All.c ****                 pulseOximeter.beatDetector->state = BEATDETECTOR_STATE_FOLLOWING_SLOPE;
  80:MAX30100_All.c ****             }
  81:MAX30100_All.c ****             break;
 523              		.loc 1 81 0
 524 01ac 15E0     		b	.L26
 525              	.L52:
  79:MAX30100_All.c ****             }
 526              		.loc 1 79 0
 527 01ae 0E4B     		ldr	r3, .L53
 528 01b0 1B6A     		ldr	r3, [r3, #32]
 529 01b2 0222     		mov	r2, #2
 530 01b4 1A70     		strb	r2, [r3]
 531              		.loc 1 81 0
 532 01b6 10E0     		b	.L26
 533              	.L32:
  82:MAX30100_All.c **** 
  83:MAX30100_All.c ****         case BEATDETECTOR_STATE_MASKING:
  84:MAX30100_All.c ****             if (millis() - pulseOximeter.beatDetector->tsLastBeat > BEATDETECTOR_MASKING_HOLDOFF) {
 534              		.loc 1 84 0
 535 01b8 FFF7FEFF 		bl	millis
 536 01bc 031C     		mov	r3, r0
 537 01be 1A1C     		mov	r2, r3
 538 01c0 094B     		ldr	r3, .L53
 539 01c2 1B6A     		ldr	r3, [r3, #32]
 540 01c4 1B69     		ldr	r3, [r3, #16]
 541 01c6 D31A     		sub	r3, r2, r3
ARM GAS  C:\Users\Davit\AppData\Local\Temp\cc4XR0T4.s 			page 12


 542 01c8 C82B     		cmp	r3, #200
 543 01ca 03D9     		bls	.L45
  85:MAX30100_All.c ****                 pulseOximeter.beatDetector->state = BEATDETECTOR_STATE_WAITING;
 544              		.loc 1 85 0
 545 01cc 064B     		ldr	r3, .L53
 546 01ce 1B6A     		ldr	r3, [r3, #32]
 547 01d0 0122     		mov	r2, #1
 548 01d2 1A70     		strb	r2, [r3]
 549              	.L45:
  86:MAX30100_All.c ****             }
  87:MAX30100_All.c ****             BeatDetector_decreaseThreshold();
 550              		.loc 1 87 0
 551 01d4 FFF7FEFF 		bl	BeatDetector_decreaseThreshold
  88:MAX30100_All.c ****             break;
 552              		.loc 1 88 0
 553 01d8 C046     		mov	r8, r8
 554              	.L26:
  89:MAX30100_All.c ****     }
  90:MAX30100_All.c **** 
  91:MAX30100_All.c ****     return beatDetected;
 555              		.loc 1 91 0
 556 01da 0F23     		mov	r3, #15
 557 01dc FB18     		add	r3, r7, r3
 558 01de 1B78     		ldrb	r3, [r3]
  92:MAX30100_All.c **** }
 559              		.loc 1 92 0
 560 01e0 181C     		mov	r0, r3
 561 01e2 BD46     		mov	sp, r7
 562 01e4 05B0     		add	sp, sp, #20
 563              		@ sp needed
 564 01e6 F0BD     		pop	{r4, r5, r6, r7, pc}
 565              	.L54:
 566              		.align	2
 567              	.L53:
 568 01e8 00000000 		.word	pulseOximeter
 569 01ec 00000000 		.word	.L28
 570 01f0 00008940 		.word	1082720256
 571 01f4 0000F041 		.word	1106247680
 572 01f8 33333333 		.word	858993459
 573 01fc 3333E33F 		.word	1071854387
 574 0200 9A999999 		.word	-1717986918
 575 0204 9999D93F 		.word	1071225241
 576              		.cfi_endproc
 577              	.LFE42:
 578              		.size	BeatDetector_checkForBeat, .-BeatDetector_checkForBeat
 579              		.global	__aeabi_ddiv
 580              		.global	__aeabi_dsub
 581              		.section	.text.BeatDetector_decreaseThreshold,"ax",%progbits
 582              		.align	2
 583              		.global	BeatDetector_decreaseThreshold
 584              		.code	16
 585              		.thumb_func
 586              		.type	BeatDetector_decreaseThreshold, %function
 587              	BeatDetector_decreaseThreshold:
 588              	.LFB43:
  93:MAX30100_All.c **** 
  94:MAX30100_All.c **** void BeatDetector_decreaseThreshold(){
ARM GAS  C:\Users\Davit\AppData\Local\Temp\cc4XR0T4.s 			page 13


 589              		.loc 1 94 0
 590              		.cfi_startproc
 591 0000 F0B5     		push	{r4, r5, r6, r7, lr}
 592              		.cfi_def_cfa_offset 20
 593              		.cfi_offset 4, -20
 594              		.cfi_offset 5, -16
 595              		.cfi_offset 6, -12
 596              		.cfi_offset 7, -8
 597              		.cfi_offset 14, -4
 598 0002 83B0     		sub	sp, sp, #12
 599              		.cfi_def_cfa_offset 32
 600 0004 00AF     		add	r7, sp, #0
 601              		.cfi_def_cfa_register 7
  95:MAX30100_All.c ****     // When a valid beat rate readout is present, target the
  96:MAX30100_All.c ****     if (pulseOximeter.beatDetector->lastMaxValue > 0 && pulseOximeter.beatDetector->beatPeriod > 0)
 602              		.loc 1 96 0
 603 0006 3B4B     		ldr	r3, .L65
 604 0008 1B6A     		ldr	r3, [r3, #32]
 605 000a DB68     		ldr	r3, [r3, #12]
 606 000c 181C     		add	r0, r3, #0
 607 000e 0021     		mov	r1, #0
 608 0010 FFF7FEFF 		bl	__aeabi_fcmpgt
 609 0014 031E     		sub	r3, r0, #0
 610 0016 44D0     		beq	.L56
 611              		.loc 1 96 0 is_stmt 0 discriminator 1
 612 0018 364B     		ldr	r3, .L65
 613 001a 1B6A     		ldr	r3, [r3, #32]
 614 001c 9B68     		ldr	r3, [r3, #8]
 615 001e 181C     		add	r0, r3, #0
 616 0020 0021     		mov	r1, #0
 617 0022 FFF7FEFF 		bl	__aeabi_fcmpgt
 618 0026 031E     		sub	r3, r0, #0
 619 0028 3BD0     		beq	.L56
  97:MAX30100_All.c ****         pulseOximeter.beatDetector->threshold -= pulseOximeter.beatDetector->lastMaxValue * (1 - BE
 620              		.loc 1 97 0 is_stmt 1
 621 002a 324B     		ldr	r3, .L65
 622 002c 1C6A     		ldr	r4, [r3, #32]
 623 002e 314B     		ldr	r3, .L65
 624 0030 1B6A     		ldr	r3, [r3, #32]
 625 0032 5B68     		ldr	r3, [r3, #4]
 626 0034 181C     		add	r0, r3, #0
 627 0036 FFF7FEFF 		bl	__aeabi_f2d
 628 003a 051C     		mov	r5, r0
 629 003c 0E1C     		mov	r6, r1
 630 003e 2D4B     		ldr	r3, .L65
 631 0040 1B6A     		ldr	r3, [r3, #32]
 632 0042 DB68     		ldr	r3, [r3, #12]
 633 0044 181C     		add	r0, r3, #0
 634 0046 FFF7FEFF 		bl	__aeabi_f2d
 635 004a 021C     		mov	r2, r0
 636 004c 0B1C     		mov	r3, r1
 637 004e 101C     		mov	r0, r2
 638 0050 191C     		mov	r1, r3
 639 0052 294A     		ldr	r2, .L65+4
 640 0054 294B     		ldr	r3, .L65+8
 641 0056 FFF7FEFF 		bl	__aeabi_dmul
 642 005a 021C     		mov	r2, r0
ARM GAS  C:\Users\Davit\AppData\Local\Temp\cc4XR0T4.s 			page 14


 643 005c 0B1C     		mov	r3, r1
 644 005e 3A60     		str	r2, [r7]
 645 0060 7B60     		str	r3, [r7, #4]
  98:MAX30100_All.c ****                 (pulseOximeter.beatDetector->beatPeriod / BEATDETECTOR_SAMPLES_PERIOD);
 646              		.loc 1 98 0
 647 0062 244B     		ldr	r3, .L65
 648 0064 1B6A     		ldr	r3, [r3, #32]
 649 0066 9B68     		ldr	r3, [r3, #8]
 650 0068 181C     		add	r0, r3, #0
 651 006a 2549     		ldr	r1, .L65+12
 652 006c FFF7FEFF 		bl	__aeabi_fdiv
 653 0070 031C     		add	r3, r0, #0
  97:MAX30100_All.c ****         pulseOximeter.beatDetector->threshold -= pulseOximeter.beatDetector->lastMaxValue * (1 - BE
 654              		.loc 1 97 0
 655 0072 181C     		add	r0, r3, #0
 656 0074 FFF7FEFF 		bl	__aeabi_f2d
 657 0078 021C     		mov	r2, r0
 658 007a 0B1C     		mov	r3, r1
 659 007c 3868     		ldr	r0, [r7]
 660 007e 7968     		ldr	r1, [r7, #4]
 661 0080 FFF7FEFF 		bl	__aeabi_ddiv
 662 0084 021C     		mov	r2, r0
 663 0086 0B1C     		mov	r3, r1
 664 0088 281C     		mov	r0, r5
 665 008a 311C     		mov	r1, r6
 666 008c FFF7FEFF 		bl	__aeabi_dsub
 667 0090 021C     		mov	r2, r0
 668 0092 0B1C     		mov	r3, r1
 669 0094 101C     		mov	r0, r2
 670 0096 191C     		mov	r1, r3
 671 0098 FFF7FEFF 		bl	__aeabi_d2f
 672 009c 031C     		add	r3, r0, #0
 673 009e 6360     		str	r3, [r4, #4]
 674 00a0 17E0     		b	.L59
 675              	.L56:
  99:MAX30100_All.c ****     } else {
 100:MAX30100_All.c ****         // Asymptotic decay
 101:MAX30100_All.c ****         pulseOximeter.beatDetector->threshold *= BEATDETECTOR_THRESHOLD_DECAY_FACTOR;
 676              		.loc 1 101 0
 677 00a2 144B     		ldr	r3, .L65
 678 00a4 1C6A     		ldr	r4, [r3, #32]
 679 00a6 134B     		ldr	r3, .L65
 680 00a8 1B6A     		ldr	r3, [r3, #32]
 681 00aa 5B68     		ldr	r3, [r3, #4]
 682 00ac 181C     		add	r0, r3, #0
 683 00ae FFF7FEFF 		bl	__aeabi_f2d
 684 00b2 021C     		mov	r2, r0
 685 00b4 0B1C     		mov	r3, r1
 686 00b6 101C     		mov	r0, r2
 687 00b8 191C     		mov	r1, r3
 688 00ba 124A     		ldr	r2, .L65+16
 689 00bc 124B     		ldr	r3, .L65+20
 690 00be FFF7FEFF 		bl	__aeabi_dmul
 691 00c2 021C     		mov	r2, r0
 692 00c4 0B1C     		mov	r3, r1
 693 00c6 101C     		mov	r0, r2
 694 00c8 191C     		mov	r1, r3
ARM GAS  C:\Users\Davit\AppData\Local\Temp\cc4XR0T4.s 			page 15


 695 00ca FFF7FEFF 		bl	__aeabi_d2f
 696 00ce 031C     		add	r3, r0, #0
 697 00d0 6360     		str	r3, [r4, #4]
 698              	.L59:
 102:MAX30100_All.c ****     }
 103:MAX30100_All.c **** 
 104:MAX30100_All.c ****     if (pulseOximeter.beatDetector->threshold < BEATDETECTOR_MIN_THRESHOLD) {
 699              		.loc 1 104 0
 700 00d2 084B     		ldr	r3, .L65
 701 00d4 1B6A     		ldr	r3, [r3, #32]
 702 00d6 5B68     		ldr	r3, [r3, #4]
 703 00d8 181C     		add	r0, r3, #0
 704 00da 0C49     		ldr	r1, .L65+24
 705 00dc FFF7FEFF 		bl	__aeabi_fcmplt
 706 00e0 031E     		sub	r3, r0, #0
 707 00e2 03D0     		beq	.L55
 105:MAX30100_All.c ****         pulseOximeter.beatDetector->threshold = BEATDETECTOR_MIN_THRESHOLD;
 708              		.loc 1 105 0
 709 00e4 034B     		ldr	r3, .L65
 710 00e6 1B6A     		ldr	r3, [r3, #32]
 711 00e8 084A     		ldr	r2, .L65+24
 712 00ea 5A60     		str	r2, [r3, #4]
 713              	.L55:
 106:MAX30100_All.c ****     }
 107:MAX30100_All.c **** }
 714              		.loc 1 107 0
 715 00ec BD46     		mov	sp, r7
 716 00ee 03B0     		add	sp, sp, #12
 717              		@ sp needed
 718 00f0 F0BD     		pop	{r4, r5, r6, r7, pc}
 719              	.L66:
 720 00f2 C046     		.align	2
 721              	.L65:
 722 00f4 00000000 		.word	pulseOximeter
 723 00f8 66666666 		.word	1717986918
 724 00fc 6666E63F 		.word	1072064102
 725 0100 00002041 		.word	1092616192
 726 0104 AE47E17A 		.word	2061584302
 727 0108 14AEEF3F 		.word	1072672276
 728 010c 0000A041 		.word	1101004800
 729              		.cfi_endproc
 730              	.LFE43:
 731              		.size	BeatDetector_decreaseThreshold, .-BeatDetector_decreaseThreshold
 732              		.section	.text.MAX30100_begin,"ax",%progbits
 733              		.align	2
 734              		.global	MAX30100_begin
 735              		.code	16
 736              		.thumb_func
 737              		.type	MAX30100_begin, %function
 738              	MAX30100_begin:
 739              	.LFB44:
 108:MAX30100_All.c **** 
 109:MAX30100_All.c **** void MAX30100_begin(){
 740              		.loc 1 109 0
 741              		.cfi_startproc
 742 0000 80B5     		push	{r7, lr}
 743              		.cfi_def_cfa_offset 8
ARM GAS  C:\Users\Davit\AppData\Local\Temp\cc4XR0T4.s 			page 16


 744              		.cfi_offset 7, -8
 745              		.cfi_offset 14, -4
 746 0002 00AF     		add	r7, sp, #0
 747              		.cfi_def_cfa_register 7
 110:MAX30100_All.c **** 	//Start I2C
 111:MAX30100_All.c **** 	//Set I2C bus speed
 112:MAX30100_All.c **** 	
 113:MAX30100_All.c **** 	MAX30100_setMode(DEFAULT_MODE);
 748              		.loc 1 113 0
 749 0004 0220     		mov	r0, #2
 750 0006 FFF7FEFF 		bl	MAX30100_setMode
 114:MAX30100_All.c **** 	MAX30100_setMode(DEFAULT_MODE);
 751              		.loc 1 114 0
 752 000a 0220     		mov	r0, #2
 753 000c FFF7FEFF 		bl	MAX30100_setMode
 115:MAX30100_All.c ****     MAX30100_setLedsPulseWidth(DEFAULT_PULSE_WIDTH);
 754              		.loc 1 115 0
 755 0010 0320     		mov	r0, #3
 756 0012 FFF7FEFF 		bl	MAX30100_setLedsPulseWidth
 116:MAX30100_All.c ****     MAX30100_setSamplingRate(DEFAULT_SAMPLING_RATE);
 757              		.loc 1 116 0
 758 0016 0120     		mov	r0, #1
 759 0018 FFF7FEFF 		bl	MAX30100_setSamplingRate
 117:MAX30100_All.c ****     //MAX30100_setLedsCurrent(DEFAULT_IR_LED_CURRENT, DEFAULT_RED_LED_CURRENT);
 118:MAX30100_All.c ****     MAX30100_setLedsCurrent(THREE_FIFTHS_IR_LED_CURRENT, THREE_FIFTHS_RED_LED_CURRENT);
 760              		.loc 1 118 0
 761 001c 0920     		mov	r0, #9
 762 001e 0921     		mov	r1, #9
 763 0020 FFF7FEFF 		bl	MAX30100_setLedsCurrent
 119:MAX30100_All.c ****     MAX30100_setHighresModeEnabled(1);
 764              		.loc 1 119 0
 765 0024 0120     		mov	r0, #1
 766 0026 FFF7FEFF 		bl	MAX30100_setHighresModeEnabled
 120:MAX30100_All.c **** 	
 121:MAX30100_All.c **** }
 767              		.loc 1 121 0
 768 002a BD46     		mov	sp, r7
 769              		@ sp needed
 770 002c 80BD     		pop	{r7, pc}
 771              		.cfi_endproc
 772              	.LFE44:
 773              		.size	MAX30100_begin, .-MAX30100_begin
 774 002e C046     		.section	.text.MAX30100_setMode,"ax",%progbits
 775              		.align	2
 776              		.global	MAX30100_setMode
 777              		.code	16
 778              		.thumb_func
 779              		.type	MAX30100_setMode, %function
 780              	MAX30100_setMode:
 781              	.LFB45:
 122:MAX30100_All.c **** 
 123:MAX30100_All.c **** void MAX30100_setMode(Mode mode){
 782              		.loc 1 123 0
 783              		.cfi_startproc
 784 0000 80B5     		push	{r7, lr}
 785              		.cfi_def_cfa_offset 8
 786              		.cfi_offset 7, -8
ARM GAS  C:\Users\Davit\AppData\Local\Temp\cc4XR0T4.s 			page 17


 787              		.cfi_offset 14, -4
 788 0002 82B0     		sub	sp, sp, #8
 789              		.cfi_def_cfa_offset 16
 790 0004 00AF     		add	r7, sp, #0
 791              		.cfi_def_cfa_register 7
 792 0006 021C     		mov	r2, r0
 793 0008 FB1D     		add	r3, r7, #7
 794 000a 1A70     		strb	r2, [r3]
 124:MAX30100_All.c ****     MAX30100_writeRegister(MAX30100_REG_MODE_CONFIGURATION, mode);
 795              		.loc 1 124 0
 796 000c FB1D     		add	r3, r7, #7
 797 000e 1B78     		ldrb	r3, [r3]
 798 0010 0620     		mov	r0, #6
 799 0012 191C     		mov	r1, r3
 800 0014 FFF7FEFF 		bl	MAX30100_writeRegister
 125:MAX30100_All.c **** }
 801              		.loc 1 125 0
 802 0018 BD46     		mov	sp, r7
 803 001a 02B0     		add	sp, sp, #8
 804              		@ sp needed
 805 001c 80BD     		pop	{r7, pc}
 806              		.cfi_endproc
 807              	.LFE45:
 808              		.size	MAX30100_setMode, .-MAX30100_setMode
 809 001e C046     		.section	.text.MAX30100_setLedsPulseWidth,"ax",%progbits
 810              		.align	2
 811              		.global	MAX30100_setLedsPulseWidth
 812              		.code	16
 813              		.thumb_func
 814              		.type	MAX30100_setLedsPulseWidth, %function
 815              	MAX30100_setLedsPulseWidth:
 816              	.LFB46:
 126:MAX30100_All.c **** 
 127:MAX30100_All.c **** void MAX30100_setLedsPulseWidth(LEDPulseWidth ledPulseWidth){
 817              		.loc 1 127 0
 818              		.cfi_startproc
 819 0000 90B5     		push	{r4, r7, lr}
 820              		.cfi_def_cfa_offset 12
 821              		.cfi_offset 4, -12
 822              		.cfi_offset 7, -8
 823              		.cfi_offset 14, -4
 824 0002 85B0     		sub	sp, sp, #20
 825              		.cfi_def_cfa_offset 32
 826 0004 00AF     		add	r7, sp, #0
 827              		.cfi_def_cfa_register 7
 828 0006 021C     		mov	r2, r0
 829 0008 FB1D     		add	r3, r7, #7
 830 000a 1A70     		strb	r2, [r3]
 128:MAX30100_All.c ****     uint8_t previous = MAX30100_readRegister(MAX30100_REG_SPO2_CONFIGURATION);
 831              		.loc 1 128 0
 832 000c 0F23     		mov	r3, #15
 833 000e FC18     		add	r4, r7, r3
 834 0010 0720     		mov	r0, #7
 835 0012 FFF7FEFF 		bl	MAX30100_readRegister
 836 0016 031C     		mov	r3, r0
 837 0018 2370     		strb	r3, [r4]
 129:MAX30100_All.c ****     MAX30100_writeRegister(MAX30100_REG_SPO2_CONFIGURATION, (previous & 0xfc) | ledPulseWidth);
ARM GAS  C:\Users\Davit\AppData\Local\Temp\cc4XR0T4.s 			page 18


 838              		.loc 1 129 0
 839 001a 0F23     		mov	r3, #15
 840 001c FB18     		add	r3, r7, r3
 841 001e 1B78     		ldrb	r3, [r3]
 842 0020 1A1C     		add	r2, r3, #0
 843 0022 0323     		mov	r3, #3
 844 0024 9A43     		bic	r2, r3
 845 0026 131C     		mov	r3, r2
 846 0028 DAB2     		uxtb	r2, r3
 847 002a FB1D     		add	r3, r7, #7
 848 002c 1B78     		ldrb	r3, [r3]
 849 002e 1343     		orr	r3, r2
 850 0030 DBB2     		uxtb	r3, r3
 851 0032 DBB2     		uxtb	r3, r3
 852 0034 0720     		mov	r0, #7
 853 0036 191C     		mov	r1, r3
 854 0038 FFF7FEFF 		bl	MAX30100_writeRegister
 130:MAX30100_All.c **** }
 855              		.loc 1 130 0
 856 003c BD46     		mov	sp, r7
 857 003e 05B0     		add	sp, sp, #20
 858              		@ sp needed
 859 0040 90BD     		pop	{r4, r7, pc}
 860              		.cfi_endproc
 861              	.LFE46:
 862              		.size	MAX30100_setLedsPulseWidth, .-MAX30100_setLedsPulseWidth
 863 0042 C046     		.section	.text.MAX30100_setSamplingRate,"ax",%progbits
 864              		.align	2
 865              		.global	MAX30100_setSamplingRate
 866              		.code	16
 867              		.thumb_func
 868              		.type	MAX30100_setSamplingRate, %function
 869              	MAX30100_setSamplingRate:
 870              	.LFB47:
 131:MAX30100_All.c **** 
 132:MAX30100_All.c **** void MAX30100_setSamplingRate(SamplingRate samplingRate){
 871              		.loc 1 132 0
 872              		.cfi_startproc
 873 0000 90B5     		push	{r4, r7, lr}
 874              		.cfi_def_cfa_offset 12
 875              		.cfi_offset 4, -12
 876              		.cfi_offset 7, -8
 877              		.cfi_offset 14, -4
 878 0002 85B0     		sub	sp, sp, #20
 879              		.cfi_def_cfa_offset 32
 880 0004 00AF     		add	r7, sp, #0
 881              		.cfi_def_cfa_register 7
 882 0006 021C     		mov	r2, r0
 883 0008 FB1D     		add	r3, r7, #7
 884 000a 1A70     		strb	r2, [r3]
 133:MAX30100_All.c ****     uint8_t previous = MAX30100_readRegister(MAX30100_REG_SPO2_CONFIGURATION);
 885              		.loc 1 133 0
 886 000c 0F23     		mov	r3, #15
 887 000e FC18     		add	r4, r7, r3
 888 0010 0720     		mov	r0, #7
 889 0012 FFF7FEFF 		bl	MAX30100_readRegister
 890 0016 031C     		mov	r3, r0
ARM GAS  C:\Users\Davit\AppData\Local\Temp\cc4XR0T4.s 			page 19


 891 0018 2370     		strb	r3, [r4]
 134:MAX30100_All.c ****     MAX30100_writeRegister(MAX30100_REG_SPO2_CONFIGURATION, (previous & 0xe3) | (samplingRate << 2)
 892              		.loc 1 134 0
 893 001a 0F23     		mov	r3, #15
 894 001c FB18     		add	r3, r7, r3
 895 001e 1B78     		ldrb	r3, [r3]
 896 0020 1A1C     		add	r2, r3, #0
 897 0022 1C23     		mov	r3, #28
 898 0024 9A43     		bic	r2, r3
 899 0026 131C     		mov	r3, r2
 900 0028 DAB2     		uxtb	r2, r3
 901 002a FB1D     		add	r3, r7, #7
 902 002c 1B78     		ldrb	r3, [r3]
 903 002e 9B00     		lsl	r3, r3, #2
 904 0030 DBB2     		uxtb	r3, r3
 905 0032 1343     		orr	r3, r2
 906 0034 DBB2     		uxtb	r3, r3
 907 0036 DBB2     		uxtb	r3, r3
 908 0038 0720     		mov	r0, #7
 909 003a 191C     		mov	r1, r3
 910 003c FFF7FEFF 		bl	MAX30100_writeRegister
 135:MAX30100_All.c **** }
 911              		.loc 1 135 0
 912 0040 BD46     		mov	sp, r7
 913 0042 05B0     		add	sp, sp, #20
 914              		@ sp needed
 915 0044 90BD     		pop	{r4, r7, pc}
 916              		.cfi_endproc
 917              	.LFE47:
 918              		.size	MAX30100_setSamplingRate, .-MAX30100_setSamplingRate
 919 0046 C046     		.section	.text.MAX30100_setLedsCurrent,"ax",%progbits
 920              		.align	2
 921              		.global	MAX30100_setLedsCurrent
 922              		.code	16
 923              		.thumb_func
 924              		.type	MAX30100_setLedsCurrent, %function
 925              	MAX30100_setLedsCurrent:
 926              	.LFB48:
 136:MAX30100_All.c **** 
 137:MAX30100_All.c **** void MAX30100_setLedsCurrent(LEDCurrent irLedCurrent, LEDCurrent redLedCurrent){
 927              		.loc 1 137 0
 928              		.cfi_startproc
 929 0000 80B5     		push	{r7, lr}
 930              		.cfi_def_cfa_offset 8
 931              		.cfi_offset 7, -8
 932              		.cfi_offset 14, -4
 933 0002 82B0     		sub	sp, sp, #8
 934              		.cfi_def_cfa_offset 16
 935 0004 00AF     		add	r7, sp, #0
 936              		.cfi_def_cfa_register 7
 937 0006 021C     		mov	r2, r0
 938 0008 FB1D     		add	r3, r7, #7
 939 000a 1A70     		strb	r2, [r3]
 940 000c BB1D     		add	r3, r7, #6
 941 000e 0A1C     		add	r2, r1, #0
 942 0010 1A70     		strb	r2, [r3]
 138:MAX30100_All.c ****     MAX30100_writeRegister(MAX30100_REG_LED_CONFIGURATION, redLedCurrent << 4 | irLedCurrent);
ARM GAS  C:\Users\Davit\AppData\Local\Temp\cc4XR0T4.s 			page 20


 943              		.loc 1 138 0
 944 0012 BB1D     		add	r3, r7, #6
 945 0014 1B78     		ldrb	r3, [r3]
 946 0016 1B01     		lsl	r3, r3, #4
 947 0018 DAB2     		uxtb	r2, r3
 948 001a FB1D     		add	r3, r7, #7
 949 001c 1B78     		ldrb	r3, [r3]
 950 001e 1343     		orr	r3, r2
 951 0020 DBB2     		uxtb	r3, r3
 952 0022 DBB2     		uxtb	r3, r3
 953 0024 0920     		mov	r0, #9
 954 0026 191C     		mov	r1, r3
 955 0028 FFF7FEFF 		bl	MAX30100_writeRegister
 139:MAX30100_All.c **** }
 956              		.loc 1 139 0
 957 002c BD46     		mov	sp, r7
 958 002e 02B0     		add	sp, sp, #8
 959              		@ sp needed
 960 0030 80BD     		pop	{r7, pc}
 961              		.cfi_endproc
 962              	.LFE48:
 963              		.size	MAX30100_setLedsCurrent, .-MAX30100_setLedsCurrent
 964 0032 C046     		.section	.text.MAX30100_setHighresModeEnabled,"ax",%progbits
 965              		.align	2
 966              		.global	MAX30100_setHighresModeEnabled
 967              		.code	16
 968              		.thumb_func
 969              		.type	MAX30100_setHighresModeEnabled, %function
 970              	MAX30100_setHighresModeEnabled:
 971              	.LFB49:
 140:MAX30100_All.c **** 
 141:MAX30100_All.c **** void MAX30100_setHighresModeEnabled(char enabled){
 972              		.loc 1 141 0
 973              		.cfi_startproc
 974 0000 90B5     		push	{r4, r7, lr}
 975              		.cfi_def_cfa_offset 12
 976              		.cfi_offset 4, -12
 977              		.cfi_offset 7, -8
 978              		.cfi_offset 14, -4
 979 0002 85B0     		sub	sp, sp, #20
 980              		.cfi_def_cfa_offset 32
 981 0004 00AF     		add	r7, sp, #0
 982              		.cfi_def_cfa_register 7
 983 0006 021C     		mov	r2, r0
 984 0008 FB1D     		add	r3, r7, #7
 985 000a 1A70     		strb	r2, [r3]
 142:MAX30100_All.c ****     uint8_t previous = MAX30100_readRegister(MAX30100_REG_SPO2_CONFIGURATION);
 986              		.loc 1 142 0
 987 000c 0F23     		mov	r3, #15
 988 000e FC18     		add	r4, r7, r3
 989 0010 0720     		mov	r0, #7
 990 0012 FFF7FEFF 		bl	MAX30100_readRegister
 991 0016 031C     		mov	r3, r0
 992 0018 2370     		strb	r3, [r4]
 143:MAX30100_All.c ****     if (enabled) {
 993              		.loc 1 143 0
 994 001a FB1D     		add	r3, r7, #7
ARM GAS  C:\Users\Davit\AppData\Local\Temp\cc4XR0T4.s 			page 21


 995 001c 1B78     		ldrb	r3, [r3]
 996 001e 002B     		cmp	r3, #0
 997 0020 0AD0     		beq	.L73
 144:MAX30100_All.c ****         MAX30100_writeRegister(MAX30100_REG_SPO2_CONFIGURATION, previous | MAX30100_SPC_SPO2_HI_RES
 998              		.loc 1 144 0
 999 0022 0F23     		mov	r3, #15
 1000 0024 FB18     		add	r3, r7, r3
 1001 0026 1B78     		ldrb	r3, [r3]
 1002 0028 4022     		mov	r2, #64
 1003 002a 1343     		orr	r3, r2
 1004 002c DBB2     		uxtb	r3, r3
 1005 002e 0720     		mov	r0, #7
 1006 0030 191C     		mov	r1, r3
 1007 0032 FFF7FEFF 		bl	MAX30100_writeRegister
 1008 0036 09E0     		b	.L72
 1009              	.L73:
 145:MAX30100_All.c ****     } else {
 146:MAX30100_All.c ****         MAX30100_writeRegister(MAX30100_REG_SPO2_CONFIGURATION, previous & ~MAX30100_SPC_SPO2_HI_RE
 1010              		.loc 1 146 0
 1011 0038 0F23     		mov	r3, #15
 1012 003a FB18     		add	r3, r7, r3
 1013 003c 1B78     		ldrb	r3, [r3]
 1014 003e 4022     		mov	r2, #64
 1015 0040 9343     		bic	r3, r2
 1016 0042 DBB2     		uxtb	r3, r3
 1017 0044 0720     		mov	r0, #7
 1018 0046 191C     		mov	r1, r3
 1019 0048 FFF7FEFF 		bl	MAX30100_writeRegister
 1020              	.L72:
 147:MAX30100_All.c ****     }
 148:MAX30100_All.c **** }
 1021              		.loc 1 148 0
 1022 004c BD46     		mov	sp, r7
 1023 004e 05B0     		add	sp, sp, #20
 1024              		@ sp needed
 1025 0050 90BD     		pop	{r4, r7, pc}
 1026              		.cfi_endproc
 1027              	.LFE49:
 1028              		.size	MAX30100_setHighresModeEnabled, .-MAX30100_setHighresModeEnabled
 1029 0052 C046     		.section	.text.MAX30100_update,"ax",%progbits
 1030              		.align	2
 1031              		.global	MAX30100_update
 1032              		.code	16
 1033              		.thumb_func
 1034              		.type	MAX30100_update, %function
 1035              	MAX30100_update:
 1036              	.LFB50:
 149:MAX30100_All.c **** 
 150:MAX30100_All.c **** void MAX30100_update(){
 1037              		.loc 1 150 0
 1038              		.cfi_startproc
 1039 0000 80B5     		push	{r7, lr}
 1040              		.cfi_def_cfa_offset 8
 1041              		.cfi_offset 7, -8
 1042              		.cfi_offset 14, -4
 1043 0002 00AF     		add	r7, sp, #0
 1044              		.cfi_def_cfa_register 7
ARM GAS  C:\Users\Davit\AppData\Local\Temp\cc4XR0T4.s 			page 22


 151:MAX30100_All.c ****     MAX30100_readFifoData();
 1045              		.loc 1 151 0
 1046 0004 FFF7FEFF 		bl	MAX30100_readFifoData
 152:MAX30100_All.c **** }
 1047              		.loc 1 152 0
 1048 0008 BD46     		mov	sp, r7
 1049              		@ sp needed
 1050 000a 80BD     		pop	{r7, pc}
 1051              		.cfi_endproc
 1052              	.LFE50:
 1053              		.size	MAX30100_update, .-MAX30100_update
 1054              		.section	.text.MAX30100_readRegister,"ax",%progbits
 1055              		.align	2
 1056              		.global	MAX30100_readRegister
 1057              		.code	16
 1058              		.thumb_func
 1059              		.type	MAX30100_readRegister, %function
 1060              	MAX30100_readRegister:
 1061              	.LFB51:
 153:MAX30100_All.c **** 
 154:MAX30100_All.c **** uint8_t MAX30100_readRegister(uint8_t address){
 1062              		.loc 1 154 0
 1063              		.cfi_startproc
 1064 0000 80B5     		push	{r7, lr}
 1065              		.cfi_def_cfa_offset 8
 1066              		.cfi_offset 7, -8
 1067              		.cfi_offset 14, -4
 1068 0002 84B0     		sub	sp, sp, #16
 1069              		.cfi_def_cfa_offset 24
 1070 0004 00AF     		add	r7, sp, #0
 1071              		.cfi_def_cfa_register 7
 1072 0006 021C     		mov	r2, r0
 1073 0008 FB1D     		add	r3, r7, #7
 1074 000a 1A70     		strb	r2, [r3]
 155:MAX30100_All.c ****     /*Wire.beginTransmission(MAX30100_I2C_ADDRESS);
 156:MAX30100_All.c ****     Wire.write(address);
 157:MAX30100_All.c ****     Wire.endTransmission(false);
 158:MAX30100_All.c ****     Wire.requestFrom(MAX30100_I2C_ADDRESS, 1);
 159:MAX30100_All.c **** 
 160:MAX30100_All.c ****     return Wire.read();*/
 161:MAX30100_All.c ****     
 162:MAX30100_All.c ****     uint8 Write_Buf[1] = {0}; //Buffer that will contain the register that will be read from
 1075              		.loc 1 162 0
 1076 000c 0C23     		mov	r3, #12
 1077 000e FB18     		add	r3, r7, r3
 1078 0010 0022     		mov	r2, #0
 1079 0012 1A70     		strb	r2, [r3]
 163:MAX30100_All.c ****     Write_Buf[0] = address;
 1080              		.loc 1 163 0
 1081 0014 0C23     		mov	r3, #12
 1082 0016 FB18     		add	r3, r7, r3
 1083 0018 FA1D     		add	r2, r7, #7
 1084 001a 1278     		ldrb	r2, [r2]
 1085 001c 1A70     		strb	r2, [r3]
 164:MAX30100_All.c ****     
 165:MAX30100_All.c ****     uint8 Read_Buf[1]={0};  //Buffer that will store the value read from the register
 1086              		.loc 1 165 0
ARM GAS  C:\Users\Davit\AppData\Local\Temp\cc4XR0T4.s 			page 23


 1087 001e 0823     		mov	r3, #8
 1088 0020 FB18     		add	r3, r7, r3
 1089 0022 0022     		mov	r2, #0
 1090 0024 1A70     		strb	r2, [r3]
 166:MAX30100_All.c ****     
 167:MAX30100_All.c ****     //Step 1
 168:MAX30100_All.c ****     I2C_1_I2CMasterWriteBuf(MAX30100_I2C_ADDRESS, (uint8 *)Write_Buf, 1, I2C_1_I2C_MODE_NO_STOP);
 1091              		.loc 1 168 0
 1092 0026 0C23     		mov	r3, #12
 1093 0028 FB18     		add	r3, r7, r3
 1094 002a 5720     		mov	r0, #87
 1095 002c 191C     		mov	r1, r3
 1096 002e 0122     		mov	r2, #1
 1097 0030 0223     		mov	r3, #2
 1098 0032 FFF7FEFF 		bl	I2C_1_I2CMasterWriteBuf
 169:MAX30100_All.c ****     while((I2C_1_I2CMasterStatus() & I2C_1_I2C_MSTAT_WR_CMPLT)==0){}
 1099              		.loc 1 169 0
 1100 0036 C046     		mov	r8, r8
 1101              	.L77:
 1102              		.loc 1 169 0 is_stmt 0 discriminator 1
 1103 0038 FFF7FEFF 		bl	I2C_1_I2CMasterStatus
 1104 003c 021C     		mov	r2, r0
 1105 003e 0223     		mov	r3, #2
 1106 0040 1340     		and	r3, r2
 1107 0042 F9D0     		beq	.L77
 170:MAX30100_All.c ****     
 171:MAX30100_All.c ****     //Step 2
 172:MAX30100_All.c ****     I2C_1_I2CMasterReadBuf(MAX30100_I2C_ADDRESS, (uint8 *)Read_Buf, 1, I2C_1_I2C_MODE_REPEAT_START)
 1108              		.loc 1 172 0 is_stmt 1
 1109 0044 0823     		mov	r3, #8
 1110 0046 FB18     		add	r3, r7, r3
 1111 0048 5720     		mov	r0, #87
 1112 004a 191C     		mov	r1, r3
 1113 004c 0122     		mov	r2, #1
 1114 004e 0123     		mov	r3, #1
 1115 0050 FFF7FEFF 		bl	I2C_1_I2CMasterReadBuf
 173:MAX30100_All.c ****     while((I2C_1_I2CMasterStatus() & I2C_1_I2C_MSTAT_RD_CMPLT)==0){}
 1116              		.loc 1 173 0
 1117 0054 C046     		mov	r8, r8
 1118              	.L78:
 1119              		.loc 1 173 0 is_stmt 0 discriminator 1
 1120 0056 FFF7FEFF 		bl	I2C_1_I2CMasterStatus
 1121 005a 021C     		mov	r2, r0
 1122 005c 0123     		mov	r3, #1
 1123 005e 1340     		and	r3, r2
 1124 0060 F9D0     		beq	.L78
 174:MAX30100_All.c ****     
 175:MAX30100_All.c ****     return Read_Buf[0];
 1125              		.loc 1 175 0 is_stmt 1
 1126 0062 0823     		mov	r3, #8
 1127 0064 FB18     		add	r3, r7, r3
 1128 0066 1B78     		ldrb	r3, [r3]
 176:MAX30100_All.c **** }
 1129              		.loc 1 176 0
 1130 0068 181C     		mov	r0, r3
 1131 006a BD46     		mov	sp, r7
 1132 006c 04B0     		add	sp, sp, #16
ARM GAS  C:\Users\Davit\AppData\Local\Temp\cc4XR0T4.s 			page 24


 1133              		@ sp needed
 1134 006e 80BD     		pop	{r7, pc}
 1135              		.cfi_endproc
 1136              	.LFE51:
 1137              		.size	MAX30100_readRegister, .-MAX30100_readRegister
 1138              		.section	.text.MAX30100_writeRegister,"ax",%progbits
 1139              		.align	2
 1140              		.global	MAX30100_writeRegister
 1141              		.code	16
 1142              		.thumb_func
 1143              		.type	MAX30100_writeRegister, %function
 1144              	MAX30100_writeRegister:
 1145              	.LFB52:
 177:MAX30100_All.c **** 
 178:MAX30100_All.c **** void MAX30100_writeRegister(uint8_t address, uint8_t data){
 1146              		.loc 1 178 0
 1147              		.cfi_startproc
 1148 0000 80B5     		push	{r7, lr}
 1149              		.cfi_def_cfa_offset 8
 1150              		.cfi_offset 7, -8
 1151              		.cfi_offset 14, -4
 1152 0002 84B0     		sub	sp, sp, #16
 1153              		.cfi_def_cfa_offset 24
 1154 0004 00AF     		add	r7, sp, #0
 1155              		.cfi_def_cfa_register 7
 1156 0006 021C     		mov	r2, r0
 1157 0008 FB1D     		add	r3, r7, #7
 1158 000a 1A70     		strb	r2, [r3]
 1159 000c BB1D     		add	r3, r7, #6
 1160 000e 0A1C     		add	r2, r1, #0
 1161 0010 1A70     		strb	r2, [r3]
 179:MAX30100_All.c ****     /*Wire.beginTransmission(MAX30100_I2C_ADDRESS);
 180:MAX30100_All.c ****     Wire.write(address);
 181:MAX30100_All.c ****     Wire.write(data);
 182:MAX30100_All.c ****     Wire.endTransmission();*/
 183:MAX30100_All.c ****     
 184:MAX30100_All.c ****     uint8 Write_Buf[2]={0};
 1162              		.loc 1 184 0
 1163 0012 0C23     		mov	r3, #12
 1164 0014 FB18     		add	r3, r7, r3
 1165 0016 0022     		mov	r2, #0
 1166 0018 1A80     		strh	r2, [r3]
 185:MAX30100_All.c ****     Write_Buf[0] = address;          //Assign the first element to be the register you want to writ
 1167              		.loc 1 185 0
 1168 001a 0C23     		mov	r3, #12
 1169 001c FB18     		add	r3, r7, r3
 1170 001e FA1D     		add	r2, r7, #7
 1171 0020 1278     		ldrb	r2, [r2]
 1172 0022 1A70     		strb	r2, [r3]
 186:MAX30100_All.c ****     Write_Buf[1] = data;             //Assign the second elemnt to be the value you wish to write t
 1173              		.loc 1 186 0
 1174 0024 0C23     		mov	r3, #12
 1175 0026 FB18     		add	r3, r7, r3
 1176 0028 BA1D     		add	r2, r7, #6
 1177 002a 1278     		ldrb	r2, [r2]
 1178 002c 5A70     		strb	r2, [r3, #1]
 187:MAX30100_All.c ****     
ARM GAS  C:\Users\Davit\AppData\Local\Temp\cc4XR0T4.s 			page 25


 188:MAX30100_All.c ****     
 189:MAX30100_All.c ****     I2C_1_I2CMasterWriteBuf(MAX30100_I2C_ADDRESS, (uint8 *)Write_Buf, 2, I2C_1_I2C_MODE_COMPLETE_XF
 1179              		.loc 1 189 0
 1180 002e 0C23     		mov	r3, #12
 1181 0030 FB18     		add	r3, r7, r3
 1182 0032 5720     		mov	r0, #87
 1183 0034 191C     		mov	r1, r3
 1184 0036 0222     		mov	r2, #2
 1185 0038 0023     		mov	r3, #0
 1186 003a FFF7FEFF 		bl	I2C_1_I2CMasterWriteBuf
 190:MAX30100_All.c ****     while((I2C_1_I2CMasterStatus()&I2C_1_I2C_MSTAT_WR_CMPLT)==0);
 1187              		.loc 1 190 0
 1188 003e C046     		mov	r8, r8
 1189              	.L81:
 1190              		.loc 1 190 0 is_stmt 0 discriminator 1
 1191 0040 FFF7FEFF 		bl	I2C_1_I2CMasterStatus
 1192 0044 021C     		mov	r2, r0
 1193 0046 0223     		mov	r3, #2
 1194 0048 1340     		and	r3, r2
 1195 004a F9D0     		beq	.L81
 191:MAX30100_All.c ****         
 192:MAX30100_All.c ****     return;
 1196              		.loc 1 192 0 is_stmt 1
 1197 004c C046     		mov	r8, r8
 193:MAX30100_All.c **** }
 1198              		.loc 1 193 0
 1199 004e BD46     		mov	sp, r7
 1200 0050 04B0     		add	sp, sp, #16
 1201              		@ sp needed
 1202 0052 80BD     		pop	{r7, pc}
 1203              		.cfi_endproc
 1204              	.LFE52:
 1205              		.size	MAX30100_writeRegister, .-MAX30100_writeRegister
 1206              		.section	.text.MAX30100_burstRead,"ax",%progbits
 1207              		.align	2
 1208              		.global	MAX30100_burstRead
 1209              		.code	16
 1210              		.thumb_func
 1211              		.type	MAX30100_burstRead, %function
 1212              	MAX30100_burstRead:
 1213              	.LFB53:
 194:MAX30100_All.c **** 
 195:MAX30100_All.c **** void MAX30100_burstRead(uint8_t baseAddress, uint8_t *buffer, uint8_t length){
 1214              		.loc 1 195 0
 1215              		.cfi_startproc
 1216 0000 80B5     		push	{r7, lr}
 1217              		.cfi_def_cfa_offset 8
 1218              		.cfi_offset 7, -8
 1219              		.cfi_offset 14, -4
 1220 0002 84B0     		sub	sp, sp, #16
 1221              		.cfi_def_cfa_offset 24
 1222 0004 00AF     		add	r7, sp, #0
 1223              		.cfi_def_cfa_register 7
 1224 0006 3960     		str	r1, [r7]
 1225 0008 111C     		mov	r1, r2
 1226 000a FB1D     		add	r3, r7, #7
 1227 000c 021C     		add	r2, r0, #0
ARM GAS  C:\Users\Davit\AppData\Local\Temp\cc4XR0T4.s 			page 26


 1228 000e 1A70     		strb	r2, [r3]
 1229 0010 BB1D     		add	r3, r7, #6
 1230 0012 0A1C     		add	r2, r1, #0
 1231 0014 1A70     		strb	r2, [r3]
 196:MAX30100_All.c ****     /*Wire.beginTransmission(MAX30100_I2C_ADDRESS);
 197:MAX30100_All.c ****     Wire.write(baseAddress);
 198:MAX30100_All.c ****     Wire.endTransmission(0);
 199:MAX30100_All.c ****     Wire.requestFrom((uint8_t)MAX30100_I2C_ADDRESS, length);
 200:MAX30100_All.c **** 
 201:MAX30100_All.c ****     uint8_t idx = 0;
 202:MAX30100_All.c ****     while (Wire.available()) {
 203:MAX30100_All.c ****         buffer[idx++] = Wire.read();
 204:MAX30100_All.c ****     }*/
 205:MAX30100_All.c ****     
 206:MAX30100_All.c ****     /*int i = 0;
 207:MAX30100_All.c ****     for(; i < length; i++){
 208:MAX30100_All.c ****         buffer[i++] = MAX30100_readRegister(baseAddress);
 209:MAX30100_All.c ****     }*/
 210:MAX30100_All.c ****     
 211:MAX30100_All.c ****     uint8 Write_Buf[1] = {0}; //Buffer that will contain the register that will be read from
 1232              		.loc 1 211 0
 1233 0016 0C23     		mov	r3, #12
 1234 0018 FB18     		add	r3, r7, r3
 1235 001a 0022     		mov	r2, #0
 1236 001c 1A70     		strb	r2, [r3]
 212:MAX30100_All.c ****     Write_Buf[0] = baseAddress;
 1237              		.loc 1 212 0
 1238 001e 0C23     		mov	r3, #12
 1239 0020 FB18     		add	r3, r7, r3
 1240 0022 FA1D     		add	r2, r7, #7
 1241 0024 1278     		ldrb	r2, [r2]
 1242 0026 1A70     		strb	r2, [r3]
 213:MAX30100_All.c ****     
 214:MAX30100_All.c ****     //uint8 Read_Buf[1] ={0};  //Buffer that will store the value read from the register
 215:MAX30100_All.c ****     
 216:MAX30100_All.c ****     //Step 1
 217:MAX30100_All.c ****     I2C_1_I2CMasterWriteBuf(MAX30100_I2C_ADDRESS, (uint8 *)Write_Buf, 1, I2C_1_I2C_MODE_NO_STOP);
 1243              		.loc 1 217 0
 1244 0028 0C23     		mov	r3, #12
 1245 002a FB18     		add	r3, r7, r3
 1246 002c 5720     		mov	r0, #87
 1247 002e 191C     		mov	r1, r3
 1248 0030 0122     		mov	r2, #1
 1249 0032 0223     		mov	r3, #2
 1250 0034 FFF7FEFF 		bl	I2C_1_I2CMasterWriteBuf
 218:MAX30100_All.c ****     while((I2C_1_I2CMasterStatus() & I2C_1_I2C_MSTAT_WR_CMPLT)==0){}
 1251              		.loc 1 218 0
 1252 0038 C046     		mov	r8, r8
 1253              	.L84:
 1254              		.loc 1 218 0 is_stmt 0 discriminator 1
 1255 003a FFF7FEFF 		bl	I2C_1_I2CMasterStatus
 1256 003e 021C     		mov	r2, r0
 1257 0040 0223     		mov	r3, #2
 1258 0042 1340     		and	r3, r2
 1259 0044 F9D0     		beq	.L84
 219:MAX30100_All.c ****     
 220:MAX30100_All.c ****     //Step 2
ARM GAS  C:\Users\Davit\AppData\Local\Temp\cc4XR0T4.s 			page 27


 221:MAX30100_All.c ****     I2C_1_I2CMasterReadBuf(MAX30100_I2C_ADDRESS, buffer, length, I2C_1_I2C_MODE_REPEAT_START);
 1260              		.loc 1 221 0 is_stmt 1
 1261 0046 BB1D     		add	r3, r7, #6
 1262 0048 1B78     		ldrb	r3, [r3]
 1263 004a 3A68     		ldr	r2, [r7]
 1264 004c 5720     		mov	r0, #87
 1265 004e 111C     		mov	r1, r2
 1266 0050 1A1C     		mov	r2, r3
 1267 0052 0123     		mov	r3, #1
 1268 0054 FFF7FEFF 		bl	I2C_1_I2CMasterReadBuf
 222:MAX30100_All.c ****     while((I2C_1_I2CMasterStatus() & I2C_1_I2C_MSTAT_RD_CMPLT)==0){}
 1269              		.loc 1 222 0
 1270 0058 C046     		mov	r8, r8
 1271              	.L85:
 1272              		.loc 1 222 0 is_stmt 0 discriminator 1
 1273 005a FFF7FEFF 		bl	I2C_1_I2CMasterStatus
 1274 005e 021C     		mov	r2, r0
 1275 0060 0123     		mov	r3, #1
 1276 0062 1340     		and	r3, r2
 1277 0064 F9D0     		beq	.L85
 223:MAX30100_All.c **** }
 1278              		.loc 1 223 0 is_stmt 1
 1279 0066 BD46     		mov	sp, r7
 1280 0068 04B0     		add	sp, sp, #16
 1281              		@ sp needed
 1282 006a 80BD     		pop	{r7, pc}
 1283              		.cfi_endproc
 1284              	.LFE53:
 1285              		.size	MAX30100_burstRead, .-MAX30100_burstRead
 1286              		.section	.text.MAX30100_readFifoData,"ax",%progbits
 1287              		.align	2
 1288              		.global	MAX30100_readFifoData
 1289              		.code	16
 1290              		.thumb_func
 1291              		.type	MAX30100_readFifoData, %function
 1292              	MAX30100_readFifoData:
 1293              	.LFB54:
 224:MAX30100_All.c **** 
 225:MAX30100_All.c **** void MAX30100_readFifoData(){
 1294              		.loc 1 225 0
 1295              		.cfi_startproc
 1296 0000 80B5     		push	{r7, lr}
 1297              		.cfi_def_cfa_offset 8
 1298              		.cfi_offset 7, -8
 1299              		.cfi_offset 14, -4
 1300 0002 82B0     		sub	sp, sp, #8
 1301              		.cfi_def_cfa_offset 16
 1302 0004 00AF     		add	r7, sp, #0
 1303              		.cfi_def_cfa_register 7
 226:MAX30100_All.c ****     uint8_t buffer[4];
 227:MAX30100_All.c **** 
 228:MAX30100_All.c ****     MAX30100_burstRead(MAX30100_REG_FIFO_DATA, buffer, 4);
 1304              		.loc 1 228 0
 1305 0006 3B1D     		add	r3, r7, #4
 1306 0008 0520     		mov	r0, #5
 1307 000a 191C     		mov	r1, r3
 1308 000c 0422     		mov	r2, #4
ARM GAS  C:\Users\Davit\AppData\Local\Temp\cc4XR0T4.s 			page 28


 1309 000e FFF7FEFF 		bl	MAX30100_burstRead
 229:MAX30100_All.c **** 
 230:MAX30100_All.c ****     // Warning: the values are always left-aligned
 231:MAX30100_All.c ****     pulseOximeter.hrm->rawIRValue = (buffer[0] << 8) | buffer[1];
 1310              		.loc 1 231 0
 1311 0012 0E4B     		ldr	r3, .L87
 1312 0014 5B6B     		ldr	r3, [r3, #52]
 1313 0016 3A1D     		add	r2, r7, #4
 1314 0018 1278     		ldrb	r2, [r2]
 1315 001a 1202     		lsl	r2, r2, #8
 1316 001c 91B2     		uxth	r1, r2
 1317 001e 3A1D     		add	r2, r7, #4
 1318 0020 5278     		ldrb	r2, [r2, #1]
 1319 0022 92B2     		uxth	r2, r2
 1320 0024 0A43     		orr	r2, r1
 1321 0026 92B2     		uxth	r2, r2
 1322 0028 92B2     		uxth	r2, r2
 1323 002a 1A80     		strh	r2, [r3]
 232:MAX30100_All.c ****     pulseOximeter.hrm->rawRedValue = (buffer[2] << 8) | buffer[3];
 1324              		.loc 1 232 0
 1325 002c 074B     		ldr	r3, .L87
 1326 002e 5B6B     		ldr	r3, [r3, #52]
 1327 0030 3A1D     		add	r2, r7, #4
 1328 0032 9278     		ldrb	r2, [r2, #2]
 1329 0034 1202     		lsl	r2, r2, #8
 1330 0036 91B2     		uxth	r1, r2
 1331 0038 3A1D     		add	r2, r7, #4
 1332 003a D278     		ldrb	r2, [r2, #3]
 1333 003c 92B2     		uxth	r2, r2
 1334 003e 0A43     		orr	r2, r1
 1335 0040 92B2     		uxth	r2, r2
 1336 0042 92B2     		uxth	r2, r2
 1337 0044 5A80     		strh	r2, [r3, #2]
 233:MAX30100_All.c **** }
 1338              		.loc 1 233 0
 1339 0046 BD46     		mov	sp, r7
 1340 0048 02B0     		add	sp, sp, #8
 1341              		@ sp needed
 1342 004a 80BD     		pop	{r7, pc}
 1343              	.L88:
 1344              		.align	2
 1345              	.L87:
 1346 004c 00000000 		.word	pulseOximeter
 1347              		.cfi_endproc
 1348              	.LFE54:
 1349              		.size	MAX30100_readFifoData, .-MAX30100_readFifoData
 1350              		.section	.text.SpO2Calculator_Init,"ax",%progbits
 1351              		.align	2
 1352              		.global	SpO2Calculator_Init
 1353              		.code	16
 1354              		.thumb_func
 1355              		.type	SpO2Calculator_Init, %function
 1356              	SpO2Calculator_Init:
 1357              	.LFB55:
 234:MAX30100_All.c **** 
 235:MAX30100_All.c **** // SaO2 Look-up Table
 236:MAX30100_All.c **** // http://www.ti.com/lit/an/slaa274b/slaa274b.pdf
ARM GAS  C:\Users\Davit\AppData\Local\Temp\cc4XR0T4.s 			page 29


 237:MAX30100_All.c **** 
 238:MAX30100_All.c **** 
 239:MAX30100_All.c **** void SpO2Calculator_Init(){
 1358              		.loc 1 239 0
 1359              		.cfi_startproc
 1360 0000 80B5     		push	{r7, lr}
 1361              		.cfi_def_cfa_offset 8
 1362              		.cfi_offset 7, -8
 1363              		.cfi_offset 14, -4
 1364 0002 82B0     		sub	sp, sp, #8
 1365              		.cfi_def_cfa_offset 16
 1366 0004 00AF     		add	r7, sp, #0
 1367              		.cfi_def_cfa_register 7
 240:MAX30100_All.c ****     /*spO2calculator.spO2LUT[43] = {100,100,100,100,99,99,99,99,99,99,98,98,98,98,
 241:MAX30100_All.c ****                                              98,97,97,97,97,97,97,96,96,96,96,96,96,95,95,
 242:MAX30100_All.c ****                                              95,95,95,95,94,94,94,94,94,93,93,93,93,93};*/
 243:MAX30100_All.c ****     int i = 0;
 1368              		.loc 1 243 0
 1369 0006 0023     		mov	r3, #0
 1370 0008 7B60     		str	r3, [r7, #4]
 244:MAX30100_All.c ****     for(; i < 4; i++)
 1371              		.loc 1 244 0
 1372 000a 08E0     		b	.L90
 1373              	.L91:
 245:MAX30100_All.c ****         pulseOximeter.spO2calculator->spO2LUT[i] = 100;
 1374              		.loc 1 245 0 discriminator 2
 1375 000c 3F4B     		ldr	r3, .L106
 1376 000e 1A6B     		ldr	r2, [r3, #48]
 1377 0010 7B68     		ldr	r3, [r7, #4]
 1378 0012 D318     		add	r3, r2, r3
 1379 0014 6422     		mov	r2, #100
 1380 0016 1A70     		strb	r2, [r3]
 244:MAX30100_All.c ****     for(; i < 4; i++)
 1381              		.loc 1 244 0 discriminator 2
 1382 0018 7B68     		ldr	r3, [r7, #4]
 1383 001a 0133     		add	r3, r3, #1
 1384 001c 7B60     		str	r3, [r7, #4]
 1385              	.L90:
 244:MAX30100_All.c ****     for(; i < 4; i++)
 1386              		.loc 1 244 0 is_stmt 0 discriminator 1
 1387 001e 7B68     		ldr	r3, [r7, #4]
 1388 0020 032B     		cmp	r3, #3
 1389 0022 F3DD     		ble	.L91
 246:MAX30100_All.c ****     for(; i < 10; i++)
 1390              		.loc 1 246 0 is_stmt 1
 1391 0024 08E0     		b	.L92
 1392              	.L93:
 247:MAX30100_All.c ****         pulseOximeter.spO2calculator->spO2LUT[i] = 99;
 1393              		.loc 1 247 0 discriminator 2
 1394 0026 394B     		ldr	r3, .L106
 1395 0028 1A6B     		ldr	r2, [r3, #48]
 1396 002a 7B68     		ldr	r3, [r7, #4]
 1397 002c D318     		add	r3, r2, r3
 1398 002e 6322     		mov	r2, #99
 1399 0030 1A70     		strb	r2, [r3]
 246:MAX30100_All.c ****     for(; i < 10; i++)
 1400              		.loc 1 246 0 discriminator 2
ARM GAS  C:\Users\Davit\AppData\Local\Temp\cc4XR0T4.s 			page 30


 1401 0032 7B68     		ldr	r3, [r7, #4]
 1402 0034 0133     		add	r3, r3, #1
 1403 0036 7B60     		str	r3, [r7, #4]
 1404              	.L92:
 246:MAX30100_All.c ****     for(; i < 10; i++)
 1405              		.loc 1 246 0 is_stmt 0 discriminator 1
 1406 0038 7B68     		ldr	r3, [r7, #4]
 1407 003a 092B     		cmp	r3, #9
 1408 003c F3DD     		ble	.L93
 248:MAX30100_All.c ****     for(; i < 15; i++)
 1409              		.loc 1 248 0 is_stmt 1
 1410 003e 08E0     		b	.L94
 1411              	.L95:
 249:MAX30100_All.c ****         pulseOximeter.spO2calculator->spO2LUT[i] = 98;
 1412              		.loc 1 249 0 discriminator 2
 1413 0040 324B     		ldr	r3, .L106
 1414 0042 1A6B     		ldr	r2, [r3, #48]
 1415 0044 7B68     		ldr	r3, [r7, #4]
 1416 0046 D318     		add	r3, r2, r3
 1417 0048 6222     		mov	r2, #98
 1418 004a 1A70     		strb	r2, [r3]
 248:MAX30100_All.c ****     for(; i < 15; i++)
 1419              		.loc 1 248 0 discriminator 2
 1420 004c 7B68     		ldr	r3, [r7, #4]
 1421 004e 0133     		add	r3, r3, #1
 1422 0050 7B60     		str	r3, [r7, #4]
 1423              	.L94:
 248:MAX30100_All.c ****     for(; i < 15; i++)
 1424              		.loc 1 248 0 is_stmt 0 discriminator 1
 1425 0052 7B68     		ldr	r3, [r7, #4]
 1426 0054 0E2B     		cmp	r3, #14
 1427 0056 F3DD     		ble	.L95
 250:MAX30100_All.c ****     for(; i < 21; i++)
 1428              		.loc 1 250 0 is_stmt 1
 1429 0058 08E0     		b	.L96
 1430              	.L97:
 251:MAX30100_All.c ****         pulseOximeter.spO2calculator->spO2LUT[i] = 97;
 1431              		.loc 1 251 0 discriminator 2
 1432 005a 2C4B     		ldr	r3, .L106
 1433 005c 1A6B     		ldr	r2, [r3, #48]
 1434 005e 7B68     		ldr	r3, [r7, #4]
 1435 0060 D318     		add	r3, r2, r3
 1436 0062 6122     		mov	r2, #97
 1437 0064 1A70     		strb	r2, [r3]
 250:MAX30100_All.c ****     for(; i < 21; i++)
 1438              		.loc 1 250 0 discriminator 2
 1439 0066 7B68     		ldr	r3, [r7, #4]
 1440 0068 0133     		add	r3, r3, #1
 1441 006a 7B60     		str	r3, [r7, #4]
 1442              	.L96:
 250:MAX30100_All.c ****     for(; i < 21; i++)
 1443              		.loc 1 250 0 is_stmt 0 discriminator 1
 1444 006c 7B68     		ldr	r3, [r7, #4]
 1445 006e 142B     		cmp	r3, #20
 1446 0070 F3DD     		ble	.L97
 252:MAX30100_All.c ****     for(; i < 27; i++)
 1447              		.loc 1 252 0 is_stmt 1
ARM GAS  C:\Users\Davit\AppData\Local\Temp\cc4XR0T4.s 			page 31


 1448 0072 08E0     		b	.L98
 1449              	.L99:
 253:MAX30100_All.c ****         pulseOximeter.spO2calculator->spO2LUT[i] = 96;
 1450              		.loc 1 253 0 discriminator 2
 1451 0074 254B     		ldr	r3, .L106
 1452 0076 1A6B     		ldr	r2, [r3, #48]
 1453 0078 7B68     		ldr	r3, [r7, #4]
 1454 007a D318     		add	r3, r2, r3
 1455 007c 6022     		mov	r2, #96
 1456 007e 1A70     		strb	r2, [r3]
 252:MAX30100_All.c ****     for(; i < 27; i++)
 1457              		.loc 1 252 0 discriminator 2
 1458 0080 7B68     		ldr	r3, [r7, #4]
 1459 0082 0133     		add	r3, r3, #1
 1460 0084 7B60     		str	r3, [r7, #4]
 1461              	.L98:
 252:MAX30100_All.c ****     for(; i < 27; i++)
 1462              		.loc 1 252 0 is_stmt 0 discriminator 1
 1463 0086 7B68     		ldr	r3, [r7, #4]
 1464 0088 1A2B     		cmp	r3, #26
 1465 008a F3DD     		ble	.L99
 254:MAX30100_All.c ****     for(; i < 33; i++)
 1466              		.loc 1 254 0 is_stmt 1
 1467 008c 08E0     		b	.L100
 1468              	.L101:
 255:MAX30100_All.c ****         pulseOximeter.spO2calculator->spO2LUT[i] = 95;
 1469              		.loc 1 255 0 discriminator 2
 1470 008e 1F4B     		ldr	r3, .L106
 1471 0090 1A6B     		ldr	r2, [r3, #48]
 1472 0092 7B68     		ldr	r3, [r7, #4]
 1473 0094 D318     		add	r3, r2, r3
 1474 0096 5F22     		mov	r2, #95
 1475 0098 1A70     		strb	r2, [r3]
 254:MAX30100_All.c ****     for(; i < 33; i++)
 1476              		.loc 1 254 0 discriminator 2
 1477 009a 7B68     		ldr	r3, [r7, #4]
 1478 009c 0133     		add	r3, r3, #1
 1479 009e 7B60     		str	r3, [r7, #4]
 1480              	.L100:
 254:MAX30100_All.c ****     for(; i < 33; i++)
 1481              		.loc 1 254 0 is_stmt 0 discriminator 1
 1482 00a0 7B68     		ldr	r3, [r7, #4]
 1483 00a2 202B     		cmp	r3, #32
 1484 00a4 F3DD     		ble	.L101
 256:MAX30100_All.c ****     for(; i < 38; i++)
 1485              		.loc 1 256 0 is_stmt 1
 1486 00a6 08E0     		b	.L102
 1487              	.L103:
 257:MAX30100_All.c ****         pulseOximeter.spO2calculator->spO2LUT[i] = 94;
 1488              		.loc 1 257 0 discriminator 2
 1489 00a8 184B     		ldr	r3, .L106
 1490 00aa 1A6B     		ldr	r2, [r3, #48]
 1491 00ac 7B68     		ldr	r3, [r7, #4]
 1492 00ae D318     		add	r3, r2, r3
 1493 00b0 5E22     		mov	r2, #94
 1494 00b2 1A70     		strb	r2, [r3]
 256:MAX30100_All.c ****     for(; i < 38; i++)
ARM GAS  C:\Users\Davit\AppData\Local\Temp\cc4XR0T4.s 			page 32


 1495              		.loc 1 256 0 discriminator 2
 1496 00b4 7B68     		ldr	r3, [r7, #4]
 1497 00b6 0133     		add	r3, r3, #1
 1498 00b8 7B60     		str	r3, [r7, #4]
 1499              	.L102:
 256:MAX30100_All.c ****     for(; i < 38; i++)
 1500              		.loc 1 256 0 is_stmt 0 discriminator 1
 1501 00ba 7B68     		ldr	r3, [r7, #4]
 1502 00bc 252B     		cmp	r3, #37
 1503 00be F3DD     		ble	.L103
 258:MAX30100_All.c ****     for(; i < 43; i++)
 1504              		.loc 1 258 0 is_stmt 1
 1505 00c0 08E0     		b	.L104
 1506              	.L105:
 259:MAX30100_All.c ****         pulseOximeter.spO2calculator->spO2LUT[i] = 93;
 1507              		.loc 1 259 0 discriminator 2
 1508 00c2 124B     		ldr	r3, .L106
 1509 00c4 1A6B     		ldr	r2, [r3, #48]
 1510 00c6 7B68     		ldr	r3, [r7, #4]
 1511 00c8 D318     		add	r3, r2, r3
 1512 00ca 5D22     		mov	r2, #93
 1513 00cc 1A70     		strb	r2, [r3]
 258:MAX30100_All.c ****     for(; i < 43; i++)
 1514              		.loc 1 258 0 discriminator 2
 1515 00ce 7B68     		ldr	r3, [r7, #4]
 1516 00d0 0133     		add	r3, r3, #1
 1517 00d2 7B60     		str	r3, [r7, #4]
 1518              	.L104:
 258:MAX30100_All.c ****     for(; i < 43; i++)
 1519              		.loc 1 258 0 is_stmt 0 discriminator 1
 1520 00d4 7B68     		ldr	r3, [r7, #4]
 1521 00d6 2A2B     		cmp	r3, #42
 1522 00d8 F3DD     		ble	.L105
 260:MAX30100_All.c ****     
 261:MAX30100_All.c ****     pulseOximeter.spO2calculator->irACValueSqSum = 0;
 1523              		.loc 1 261 0 is_stmt 1
 1524 00da 0C4B     		ldr	r3, .L106
 1525 00dc 1B6B     		ldr	r3, [r3, #48]
 1526 00de 0022     		mov	r2, #0
 1527 00e0 DA62     		str	r2, [r3, #44]
 262:MAX30100_All.c ****     pulseOximeter.spO2calculator->redACValueSqSum = 0;
 1528              		.loc 1 262 0
 1529 00e2 0A4B     		ldr	r3, .L106
 1530 00e4 1B6B     		ldr	r3, [r3, #48]
 1531 00e6 0022     		mov	r2, #0
 1532 00e8 1A63     		str	r2, [r3, #48]
 263:MAX30100_All.c ****     pulseOximeter.spO2calculator->beatsDetectedNum = 0;
 1533              		.loc 1 263 0
 1534 00ea 084B     		ldr	r3, .L106
 1535 00ec 1B6B     		ldr	r3, [r3, #48]
 1536 00ee 3422     		mov	r2, #52
 1537 00f0 0021     		mov	r1, #0
 1538 00f2 9954     		strb	r1, [r3, r2]
 264:MAX30100_All.c ****     pulseOximeter.spO2calculator->samplesRecorded = 0;
 1539              		.loc 1 264 0
 1540 00f4 054B     		ldr	r3, .L106
 1541 00f6 1B6B     		ldr	r3, [r3, #48]
ARM GAS  C:\Users\Davit\AppData\Local\Temp\cc4XR0T4.s 			page 33


 1542 00f8 0022     		mov	r2, #0
 1543 00fa 9A63     		str	r2, [r3, #56]
 265:MAX30100_All.c ****     pulseOximeter.spO2calculator->spO2 = 0;
 1544              		.loc 1 265 0
 1545 00fc 034B     		ldr	r3, .L106
 1546 00fe 1B6B     		ldr	r3, [r3, #48]
 1547 0100 3C22     		mov	r2, #60
 1548 0102 0021     		mov	r1, #0
 1549 0104 9954     		strb	r1, [r3, r2]
 266:MAX30100_All.c **** }
 1550              		.loc 1 266 0
 1551 0106 BD46     		mov	sp, r7
 1552 0108 02B0     		add	sp, sp, #8
 1553              		@ sp needed
 1554 010a 80BD     		pop	{r7, pc}
 1555              	.L107:
 1556              		.align	2
 1557              	.L106:
 1558 010c 00000000 		.word	pulseOximeter
 1559              		.cfi_endproc
 1560              	.LFE55:
 1561              		.size	SpO2Calculator_Init, .-SpO2Calculator_Init
 1562              		.global	__aeabi_f2uiz
 1563              		.section	.text.SpO2Calculator_update,"ax",%progbits
 1564              		.align	2
 1565              		.global	SpO2Calculator_update
 1566              		.code	16
 1567              		.thumb_func
 1568              		.type	SpO2Calculator_update, %function
 1569              	SpO2Calculator_update:
 1570              	.LFB56:
 267:MAX30100_All.c **** 
 268:MAX30100_All.c **** void SpO2Calculator_update(float irACValue, float redACValue, char beatDetected){
 1571              		.loc 1 268 0
 1572              		.cfi_startproc
 1573 0000 F0B5     		push	{r4, r5, r6, r7, lr}
 1574              		.cfi_def_cfa_offset 20
 1575              		.cfi_offset 4, -20
 1576              		.cfi_offset 5, -16
 1577              		.cfi_offset 6, -12
 1578              		.cfi_offset 7, -8
 1579              		.cfi_offset 14, -4
 1580 0002 87B0     		sub	sp, sp, #28
 1581              		.cfi_def_cfa_offset 48
 1582 0004 00AF     		add	r7, sp, #0
 1583              		.cfi_def_cfa_register 7
 1584 0006 F860     		str	r0, [r7, #12]
 1585 0008 B960     		str	r1, [r7, #8]
 1586 000a FB1D     		add	r3, r7, #7
 1587 000c 1A70     		strb	r2, [r3]
 269:MAX30100_All.c ****     pulseOximeter.spO2calculator->irACValueSqSum += irACValue * irACValue;
 1588              		.loc 1 269 0
 1589 000e 5D4B     		ldr	r3, .L117
 1590 0010 1C6B     		ldr	r4, [r3, #48]
 1591 0012 5C4B     		ldr	r3, .L117
 1592 0014 1B6B     		ldr	r3, [r3, #48]
 1593 0016 DD6A     		ldr	r5, [r3, #44]
ARM GAS  C:\Users\Davit\AppData\Local\Temp\cc4XR0T4.s 			page 34


 1594 0018 F868     		ldr	r0, [r7, #12]
 1595 001a F968     		ldr	r1, [r7, #12]
 1596 001c FFF7FEFF 		bl	__aeabi_fmul
 1597 0020 031C     		add	r3, r0, #0
 1598 0022 281C     		add	r0, r5, #0
 1599 0024 191C     		add	r1, r3, #0
 1600 0026 FFF7FEFF 		bl	__aeabi_fadd
 1601 002a 031C     		add	r3, r0, #0
 1602 002c E362     		str	r3, [r4, #44]
 270:MAX30100_All.c ****     pulseOximeter.spO2calculator->redACValueSqSum += redACValue * redACValue;
 1603              		.loc 1 270 0
 1604 002e 554B     		ldr	r3, .L117
 1605 0030 1C6B     		ldr	r4, [r3, #48]
 1606 0032 544B     		ldr	r3, .L117
 1607 0034 1B6B     		ldr	r3, [r3, #48]
 1608 0036 1D6B     		ldr	r5, [r3, #48]
 1609 0038 B868     		ldr	r0, [r7, #8]
 1610 003a B968     		ldr	r1, [r7, #8]
 1611 003c FFF7FEFF 		bl	__aeabi_fmul
 1612 0040 031C     		add	r3, r0, #0
 1613 0042 281C     		add	r0, r5, #0
 1614 0044 191C     		add	r1, r3, #0
 1615 0046 FFF7FEFF 		bl	__aeabi_fadd
 1616 004a 031C     		add	r3, r0, #0
 1617 004c 2363     		str	r3, [r4, #48]
 271:MAX30100_All.c ****     ++(pulseOximeter.spO2calculator->samplesRecorded);
 1618              		.loc 1 271 0
 1619 004e 4D4B     		ldr	r3, .L117
 1620 0050 1B6B     		ldr	r3, [r3, #48]
 1621 0052 9A6B     		ldr	r2, [r3, #56]
 1622 0054 0132     		add	r2, r2, #1
 1623 0056 9A63     		str	r2, [r3, #56]
 272:MAX30100_All.c **** 
 273:MAX30100_All.c ****     if (beatDetected) {
 1624              		.loc 1 273 0
 1625 0058 FB1D     		add	r3, r7, #7
 1626 005a 1B78     		ldrb	r3, [r3]
 1627 005c 002B     		cmp	r3, #0
 1628 005e 00D1     		bne	.LCB1433
 1629 0060 8CE0     		b	.L108	@long jump
 1630              	.LCB1433:
 274:MAX30100_All.c ****         ++(pulseOximeter.spO2calculator->beatsDetectedNum);
 1631              		.loc 1 274 0
 1632 0062 484B     		ldr	r3, .L117
 1633 0064 1B6B     		ldr	r3, [r3, #48]
 1634 0066 3422     		mov	r2, #52
 1635 0068 9A5C     		ldrb	r2, [r3, r2]
 1636 006a 0132     		add	r2, r2, #1
 1637 006c D1B2     		uxtb	r1, r2
 1638 006e 3422     		mov	r2, #52
 1639 0070 9954     		strb	r1, [r3, r2]
 275:MAX30100_All.c ****         if (pulseOximeter.spO2calculator->beatsDetectedNum == CALCULATE_EVERY_N_BEATS) {
 1640              		.loc 1 275 0
 1641 0072 444B     		ldr	r3, .L117
 1642 0074 1B6B     		ldr	r3, [r3, #48]
 1643 0076 3422     		mov	r2, #52
 1644 0078 9B5C     		ldrb	r3, [r3, r2]
ARM GAS  C:\Users\Davit\AppData\Local\Temp\cc4XR0T4.s 			page 35


 1645 007a 032B     		cmp	r3, #3
 1646 007c 00D0     		beq	.LCB1447
 1647 007e 7DE0     		b	.L108	@long jump
 1648              	.LCB1447:
 1649              	.LBB3:
 276:MAX30100_All.c ****             float acSqRatio = 
 277:MAX30100_All.c ****                 100.0 * 
 278:MAX30100_All.c ****                 log(pulseOximeter.spO2calculator->redACValueSqSum/pulseOximeter.spO2calculator->sam
 1650              		.loc 1 278 0
 1651 0080 404B     		ldr	r3, .L117
 1652 0082 1B6B     		ldr	r3, [r3, #48]
 1653 0084 1C6B     		ldr	r4, [r3, #48]
 1654 0086 3F4B     		ldr	r3, .L117
 1655 0088 1B6B     		ldr	r3, [r3, #48]
 1656 008a 9B6B     		ldr	r3, [r3, #56]
 1657 008c 181C     		mov	r0, r3
 1658 008e FFF7FEFF 		bl	__aeabi_ui2f
 1659 0092 031C     		add	r3, r0, #0
 1660 0094 201C     		add	r0, r4, #0
 1661 0096 191C     		add	r1, r3, #0
 1662 0098 FFF7FEFF 		bl	__aeabi_fdiv
 1663 009c 031C     		add	r3, r0, #0
 1664 009e 181C     		add	r0, r3, #0
 1665 00a0 FFF7FEFF 		bl	__aeabi_f2d
 1666 00a4 031C     		mov	r3, r0
 1667 00a6 0C1C     		mov	r4, r1
 1668 00a8 181C     		mov	r0, r3
 1669 00aa 211C     		mov	r1, r4
 1670 00ac FFF7FEFF 		bl	log
 1671 00b0 031C     		mov	r3, r0
 1672 00b2 0C1C     		mov	r4, r1
 277:MAX30100_All.c ****                 log(pulseOximeter.spO2calculator->redACValueSqSum/pulseOximeter.spO2calculator->sam
 1673              		.loc 1 277 0
 1674 00b4 181C     		mov	r0, r3
 1675 00b6 211C     		mov	r1, r4
 1676 00b8 0022     		mov	r2, #0
 1677 00ba 334B     		ldr	r3, .L117+4
 1678 00bc FFF7FEFF 		bl	__aeabi_dmul
 1679 00c0 031C     		mov	r3, r0
 1680 00c2 0C1C     		mov	r4, r1
 1681 00c4 1D1C     		mov	r5, r3
 1682 00c6 261C     		mov	r6, r4
 279:MAX30100_All.c ****                 log(pulseOximeter.spO2calculator->irACValueSqSum/pulseOximeter.spO2calculator->samp
 1683              		.loc 1 279 0
 1684 00c8 2E4B     		ldr	r3, .L117
 1685 00ca 1B6B     		ldr	r3, [r3, #48]
 1686 00cc DC6A     		ldr	r4, [r3, #44]
 1687 00ce 2D4B     		ldr	r3, .L117
 1688 00d0 1B6B     		ldr	r3, [r3, #48]
 1689 00d2 9B6B     		ldr	r3, [r3, #56]
 1690 00d4 181C     		mov	r0, r3
 1691 00d6 FFF7FEFF 		bl	__aeabi_ui2f
 1692 00da 031C     		add	r3, r0, #0
 1693 00dc 201C     		add	r0, r4, #0
 1694 00de 191C     		add	r1, r3, #0
 1695 00e0 FFF7FEFF 		bl	__aeabi_fdiv
 1696 00e4 031C     		add	r3, r0, #0
ARM GAS  C:\Users\Davit\AppData\Local\Temp\cc4XR0T4.s 			page 36


 1697 00e6 181C     		add	r0, r3, #0
 1698 00e8 FFF7FEFF 		bl	__aeabi_f2d
 1699 00ec 031C     		mov	r3, r0
 1700 00ee 0C1C     		mov	r4, r1
 1701 00f0 181C     		mov	r0, r3
 1702 00f2 211C     		mov	r1, r4
 1703 00f4 FFF7FEFF 		bl	log
 1704 00f8 031C     		mov	r3, r0
 1705 00fa 0C1C     		mov	r4, r1
 278:MAX30100_All.c ****                 log(pulseOximeter.spO2calculator->irACValueSqSum/pulseOximeter.spO2calculator->samp
 1706              		.loc 1 278 0
 1707 00fc 281C     		mov	r0, r5
 1708 00fe 311C     		mov	r1, r6
 1709 0100 1A1C     		mov	r2, r3
 1710 0102 231C     		mov	r3, r4
 1711 0104 FFF7FEFF 		bl	__aeabi_ddiv
 1712 0108 031C     		mov	r3, r0
 1713 010a 0C1C     		mov	r4, r1
 276:MAX30100_All.c ****                 100.0 * 
 1714              		.loc 1 276 0
 1715 010c 181C     		mov	r0, r3
 1716 010e 211C     		mov	r1, r4
 1717 0110 FFF7FEFF 		bl	__aeabi_d2f
 1718 0114 031C     		add	r3, r0, #0
 1719 0116 3B61     		str	r3, [r7, #16]
 280:MAX30100_All.c ****             //float acSqRatio = 60;
 281:MAX30100_All.c ****             uint8_t index = 0;
 1720              		.loc 1 281 0
 1721 0118 1723     		mov	r3, #23
 1722 011a FB18     		add	r3, r7, r3
 1723 011c 0022     		mov	r2, #0
 1724 011e 1A70     		strb	r2, [r3]
 282:MAX30100_All.c **** 
 283:MAX30100_All.c ****             if (acSqRatio > 66) {
 1725              		.loc 1 283 0
 1726 0120 3869     		ldr	r0, [r7, #16]
 1727 0122 1A49     		ldr	r1, .L117+8
 1728 0124 FFF7FEFF 		bl	__aeabi_fcmpgt
 1729 0128 031E     		sub	r3, r0, #0
 1730 012a 09D0     		beq	.L116
 284:MAX30100_All.c ****                 index = (uint8_t)acSqRatio - 66;
 1731              		.loc 1 284 0
 1732 012c 3869     		ldr	r0, [r7, #16]
 1733 012e FFF7FEFF 		bl	__aeabi_f2uiz
 1734 0132 031C     		mov	r3, r0
 1735 0134 DAB2     		uxtb	r2, r3
 1736 0136 1723     		mov	r3, #23
 1737 0138 FB18     		add	r3, r7, r3
 1738 013a 423A     		sub	r2, r2, #66
 1739 013c 1A70     		strb	r2, [r3]
 1740 013e 0EE0     		b	.L112
 1741              	.L116:
 285:MAX30100_All.c ****             } else if (acSqRatio > 50) {
 1742              		.loc 1 285 0
 1743 0140 3869     		ldr	r0, [r7, #16]
 1744 0142 1349     		ldr	r1, .L117+12
 1745 0144 FFF7FEFF 		bl	__aeabi_fcmpgt
ARM GAS  C:\Users\Davit\AppData\Local\Temp\cc4XR0T4.s 			page 37


 1746 0148 031E     		sub	r3, r0, #0
 1747 014a 08D0     		beq	.L112
 286:MAX30100_All.c ****                 index = (uint8_t)acSqRatio - 50;
 1748              		.loc 1 286 0
 1749 014c 3869     		ldr	r0, [r7, #16]
 1750 014e FFF7FEFF 		bl	__aeabi_f2uiz
 1751 0152 031C     		mov	r3, r0
 1752 0154 DAB2     		uxtb	r2, r3
 1753 0156 1723     		mov	r3, #23
 1754 0158 FB18     		add	r3, r7, r3
 1755 015a 323A     		sub	r2, r2, #50
 1756 015c 1A70     		strb	r2, [r3]
 1757              	.L112:
 287:MAX30100_All.c ****             }
 288:MAX30100_All.c ****             SpO2Calculator_reset(pulseOximeter.spO2calculator);
 1758              		.loc 1 288 0
 1759 015e 094B     		ldr	r3, .L117
 1760 0160 1B6B     		ldr	r3, [r3, #48]
 1761 0162 181C     		mov	r0, r3
 1762 0164 FFF7FEFF 		bl	SpO2Calculator_reset
 289:MAX30100_All.c **** 
 290:MAX30100_All.c ****             pulseOximeter.spO2calculator->spO2 = pulseOximeter.spO2calculator->spO2LUT[index];
 1763              		.loc 1 290 0
 1764 0168 064B     		ldr	r3, .L117
 1765 016a 1A6B     		ldr	r2, [r3, #48]
 1766 016c 054B     		ldr	r3, .L117
 1767 016e 196B     		ldr	r1, [r3, #48]
 1768 0170 1723     		mov	r3, #23
 1769 0172 FB18     		add	r3, r7, r3
 1770 0174 1B78     		ldrb	r3, [r3]
 1771 0176 C95C     		ldrb	r1, [r1, r3]
 1772 0178 3C23     		mov	r3, #60
 1773 017a D154     		strb	r1, [r2, r3]
 1774              	.L108:
 1775              	.LBE3:
 291:MAX30100_All.c ****         }
 292:MAX30100_All.c ****     }
 293:MAX30100_All.c **** }
 1776              		.loc 1 293 0
 1777 017c BD46     		mov	sp, r7
 1778 017e 07B0     		add	sp, sp, #28
 1779              		@ sp needed
 1780 0180 F0BD     		pop	{r4, r5, r6, r7, pc}
 1781              	.L118:
 1782 0182 C046     		.align	2
 1783              	.L117:
 1784 0184 00000000 		.word	pulseOximeter
 1785 0188 00005940 		.word	1079574528
 1786 018c 00008442 		.word	1115947008
 1787 0190 00004842 		.word	1112014848
 1788              		.cfi_endproc
 1789              	.LFE56:
 1790              		.size	SpO2Calculator_update, .-SpO2Calculator_update
 1791              		.section	.text.SpO2Calculator_reset,"ax",%progbits
 1792              		.align	2
 1793              		.global	SpO2Calculator_reset
 1794              		.code	16
ARM GAS  C:\Users\Davit\AppData\Local\Temp\cc4XR0T4.s 			page 38


 1795              		.thumb_func
 1796              		.type	SpO2Calculator_reset, %function
 1797              	SpO2Calculator_reset:
 1798              	.LFB57:
 294:MAX30100_All.c **** 
 295:MAX30100_All.c **** void SpO2Calculator_reset(){
 1799              		.loc 1 295 0
 1800              		.cfi_startproc
 1801 0000 80B5     		push	{r7, lr}
 1802              		.cfi_def_cfa_offset 8
 1803              		.cfi_offset 7, -8
 1804              		.cfi_offset 14, -4
 1805 0002 00AF     		add	r7, sp, #0
 1806              		.cfi_def_cfa_register 7
 296:MAX30100_All.c ****     pulseOximeter.spO2calculator->samplesRecorded = 0;
 1807              		.loc 1 296 0
 1808 0004 0B4B     		ldr	r3, .L120
 1809 0006 1B6B     		ldr	r3, [r3, #48]
 1810 0008 0022     		mov	r2, #0
 1811 000a 9A63     		str	r2, [r3, #56]
 297:MAX30100_All.c ****     pulseOximeter.spO2calculator->redACValueSqSum = 0;
 1812              		.loc 1 297 0
 1813 000c 094B     		ldr	r3, .L120
 1814 000e 1B6B     		ldr	r3, [r3, #48]
 1815 0010 0022     		mov	r2, #0
 1816 0012 1A63     		str	r2, [r3, #48]
 298:MAX30100_All.c ****     pulseOximeter.spO2calculator->irACValueSqSum = 0;
 1817              		.loc 1 298 0
 1818 0014 074B     		ldr	r3, .L120
 1819 0016 1B6B     		ldr	r3, [r3, #48]
 1820 0018 0022     		mov	r2, #0
 1821 001a DA62     		str	r2, [r3, #44]
 299:MAX30100_All.c ****     pulseOximeter.spO2calculator->beatsDetectedNum = 0;
 1822              		.loc 1 299 0
 1823 001c 054B     		ldr	r3, .L120
 1824 001e 1B6B     		ldr	r3, [r3, #48]
 1825 0020 3422     		mov	r2, #52
 1826 0022 0021     		mov	r1, #0
 1827 0024 9954     		strb	r1, [r3, r2]
 300:MAX30100_All.c ****     pulseOximeter.spO2calculator->spO2 = 0;
 1828              		.loc 1 300 0
 1829 0026 034B     		ldr	r3, .L120
 1830 0028 1B6B     		ldr	r3, [r3, #48]
 1831 002a 3C22     		mov	r2, #60
 1832 002c 0021     		mov	r1, #0
 1833 002e 9954     		strb	r1, [r3, r2]
 301:MAX30100_All.c **** }
 1834              		.loc 1 301 0
 1835 0030 BD46     		mov	sp, r7
 1836              		@ sp needed
 1837 0032 80BD     		pop	{r7, pc}
 1838              	.L121:
 1839              		.align	2
 1840              	.L120:
 1841 0034 00000000 		.word	pulseOximeter
 1842              		.cfi_endproc
 1843              	.LFE57:
ARM GAS  C:\Users\Davit\AppData\Local\Temp\cc4XR0T4.s 			page 39


 1844              		.size	SpO2Calculator_reset, .-SpO2Calculator_reset
 1845              		.section	.text.SpO2Calculator_getSpO2,"ax",%progbits
 1846              		.align	2
 1847              		.global	SpO2Calculator_getSpO2
 1848              		.code	16
 1849              		.thumb_func
 1850              		.type	SpO2Calculator_getSpO2, %function
 1851              	SpO2Calculator_getSpO2:
 1852              	.LFB58:
 302:MAX30100_All.c **** 
 303:MAX30100_All.c **** uint8_t SpO2Calculator_getSpO2(){
 1853              		.loc 1 303 0
 1854              		.cfi_startproc
 1855 0000 80B5     		push	{r7, lr}
 1856              		.cfi_def_cfa_offset 8
 1857              		.cfi_offset 7, -8
 1858              		.cfi_offset 14, -4
 1859 0002 00AF     		add	r7, sp, #0
 1860              		.cfi_def_cfa_register 7
 304:MAX30100_All.c ****     return pulseOximeter.spO2calculator->spO2;
 1861              		.loc 1 304 0
 1862 0004 034B     		ldr	r3, .L124
 1863 0006 1B6B     		ldr	r3, [r3, #48]
 1864 0008 3C22     		mov	r2, #60
 1865 000a 9B5C     		ldrb	r3, [r3, r2]
 305:MAX30100_All.c **** }
 1866              		.loc 1 305 0
 1867 000c 181C     		mov	r0, r3
 1868 000e BD46     		mov	sp, r7
 1869              		@ sp needed
 1870 0010 80BD     		pop	{r7, pc}
 1871              	.L125:
 1872 0012 C046     		.align	2
 1873              	.L124:
 1874 0014 00000000 		.word	pulseOximeter
 1875              		.cfi_endproc
 1876              	.LFE58:
 1877              		.size	SpO2Calculator_getSpO2, .-SpO2Calculator_getSpO2
 1878              		.section	.text.DCRemover_Init,"ax",%progbits
 1879              		.align	2
 1880              		.global	DCRemover_Init
 1881              		.code	16
 1882              		.thumb_func
 1883              		.type	DCRemover_Init, %function
 1884              	DCRemover_Init:
 1885              	.LFB59:
 306:MAX30100_All.c **** 
 307:MAX30100_All.c **** void DCRemover_Init(char type, float alpha){
 1886              		.loc 1 307 0
 1887              		.cfi_startproc
 1888 0000 80B5     		push	{r7, lr}
 1889              		.cfi_def_cfa_offset 8
 1890              		.cfi_offset 7, -8
 1891              		.cfi_offset 14, -4
 1892 0002 82B0     		sub	sp, sp, #8
 1893              		.cfi_def_cfa_offset 16
 1894 0004 00AF     		add	r7, sp, #0
ARM GAS  C:\Users\Davit\AppData\Local\Temp\cc4XR0T4.s 			page 40


 1895              		.cfi_def_cfa_register 7
 1896 0006 021C     		mov	r2, r0
 1897 0008 3960     		str	r1, [r7]
 1898 000a FB1D     		add	r3, r7, #7
 1899 000c 1A70     		strb	r2, [r3]
 308:MAX30100_All.c ****     if(type == 'i'){
 1900              		.loc 1 308 0
 1901 000e FB1D     		add	r3, r7, #7
 1902 0010 1B78     		ldrb	r3, [r3]
 1903 0012 692B     		cmp	r3, #105
 1904 0014 08D1     		bne	.L127
 309:MAX30100_All.c ****         pulseOximeter.irDCRemover->alpha = alpha;
 1905              		.loc 1 309 0
 1906 0016 0C4B     		ldr	r3, .L129
 1907 0018 5B6A     		ldr	r3, [r3, #36]
 1908 001a 3A68     		ldr	r2, [r7]
 1909 001c 1A60     		str	r2, [r3]
 310:MAX30100_All.c ****         pulseOximeter.irDCRemover->dcw = 0;
 1910              		.loc 1 310 0
 1911 001e 0A4B     		ldr	r3, .L129
 1912 0020 5B6A     		ldr	r3, [r3, #36]
 1913 0022 0022     		mov	r2, #0
 1914 0024 5A60     		str	r2, [r3, #4]
 1915 0026 0BE0     		b	.L126
 1916              	.L127:
 311:MAX30100_All.c ****     }
 312:MAX30100_All.c ****     else if(type =='r'){
 1917              		.loc 1 312 0
 1918 0028 FB1D     		add	r3, r7, #7
 1919 002a 1B78     		ldrb	r3, [r3]
 1920 002c 722B     		cmp	r3, #114
 1921 002e 07D1     		bne	.L126
 313:MAX30100_All.c ****         pulseOximeter.redDCRemover->alpha = alpha;
 1922              		.loc 1 313 0
 1923 0030 054B     		ldr	r3, .L129
 1924 0032 9B6A     		ldr	r3, [r3, #40]
 1925 0034 3A68     		ldr	r2, [r7]
 1926 0036 1A60     		str	r2, [r3]
 314:MAX30100_All.c ****         pulseOximeter.redDCRemover->dcw = 0;
 1927              		.loc 1 314 0
 1928 0038 034B     		ldr	r3, .L129
 1929 003a 9B6A     		ldr	r3, [r3, #40]
 1930 003c 0022     		mov	r2, #0
 1931 003e 5A60     		str	r2, [r3, #4]
 1932              	.L126:
 315:MAX30100_All.c ****     }
 316:MAX30100_All.c **** }
 1933              		.loc 1 316 0
 1934 0040 BD46     		mov	sp, r7
 1935 0042 02B0     		add	sp, sp, #8
 1936              		@ sp needed
 1937 0044 80BD     		pop	{r7, pc}
 1938              	.L130:
 1939 0046 C046     		.align	2
 1940              	.L129:
 1941 0048 00000000 		.word	pulseOximeter
 1942              		.cfi_endproc
ARM GAS  C:\Users\Davit\AppData\Local\Temp\cc4XR0T4.s 			page 41


 1943              	.LFE59:
 1944              		.size	DCRemover_Init, .-DCRemover_Init
 1945              		.global	__aeabi_fsub
 1946              		.section	.text.DCRemover_step,"ax",%progbits
 1947              		.align	2
 1948              		.global	DCRemover_step
 1949              		.code	16
 1950              		.thumb_func
 1951              		.type	DCRemover_step, %function
 1952              	DCRemover_step:
 1953              	.LFB60:
 317:MAX30100_All.c **** float DCRemover_step(char type, float x){
 1954              		.loc 1 317 0
 1955              		.cfi_startproc
 1956 0000 90B5     		push	{r4, r7, lr}
 1957              		.cfi_def_cfa_offset 12
 1958              		.cfi_offset 4, -12
 1959              		.cfi_offset 7, -8
 1960              		.cfi_offset 14, -4
 1961 0002 85B0     		sub	sp, sp, #20
 1962              		.cfi_def_cfa_offset 32
 1963 0004 00AF     		add	r7, sp, #0
 1964              		.cfi_def_cfa_register 7
 1965 0006 021C     		mov	r2, r0
 1966 0008 3960     		str	r1, [r7]
 1967 000a FB1D     		add	r3, r7, #7
 1968 000c 1A70     		strb	r2, [r3]
 318:MAX30100_All.c ****     if(type == 'i'){
 1969              		.loc 1 318 0
 1970 000e FB1D     		add	r3, r7, #7
 1971 0010 1B78     		ldrb	r3, [r3]
 1972 0012 692B     		cmp	r3, #105
 1973 0014 1FD1     		bne	.L132
 1974              	.LBB4:
 319:MAX30100_All.c ****         float olddcw = pulseOximeter.irDCRemover->dcw;
 1975              		.loc 1 319 0
 1976 0016 244B     		ldr	r3, .L135
 1977 0018 5B6A     		ldr	r3, [r3, #36]
 1978 001a 5B68     		ldr	r3, [r3, #4]
 1979 001c FB60     		str	r3, [r7, #12]
 320:MAX30100_All.c **** 	    pulseOximeter.irDCRemover->dcw = (float)x + pulseOximeter.irDCRemover->alpha * pulseOximeter.i
 1980              		.loc 1 320 0
 1981 001e 224B     		ldr	r3, .L135
 1982 0020 5C6A     		ldr	r4, [r3, #36]
 1983 0022 214B     		ldr	r3, .L135
 1984 0024 5B6A     		ldr	r3, [r3, #36]
 1985 0026 1A68     		ldr	r2, [r3]
 1986 0028 1F4B     		ldr	r3, .L135
 1987 002a 5B6A     		ldr	r3, [r3, #36]
 1988 002c 5B68     		ldr	r3, [r3, #4]
 1989 002e 101C     		add	r0, r2, #0
 1990 0030 191C     		add	r1, r3, #0
 1991 0032 FFF7FEFF 		bl	__aeabi_fmul
 1992 0036 031C     		add	r3, r0, #0
 1993 0038 181C     		add	r0, r3, #0
 1994 003a 3968     		ldr	r1, [r7]
 1995 003c FFF7FEFF 		bl	__aeabi_fadd
ARM GAS  C:\Users\Davit\AppData\Local\Temp\cc4XR0T4.s 			page 42


 1996 0040 031C     		add	r3, r0, #0
 1997 0042 6360     		str	r3, [r4, #4]
 321:MAX30100_All.c ****         return pulseOximeter.irDCRemover->dcw - olddcw;
 1998              		.loc 1 321 0
 1999 0044 184B     		ldr	r3, .L135
 2000 0046 5B6A     		ldr	r3, [r3, #36]
 2001 0048 5B68     		ldr	r3, [r3, #4]
 2002 004a 181C     		add	r0, r3, #0
 2003 004c F968     		ldr	r1, [r7, #12]
 2004 004e FFF7FEFF 		bl	__aeabi_fsub
 2005 0052 031C     		add	r3, r0, #0
 2006 0054 24E0     		b	.L133
 2007              	.L132:
 2008              	.LBE4:
 322:MAX30100_All.c ****     }
 323:MAX30100_All.c ****     else if(type == 'r'){
 2009              		.loc 1 323 0
 2010 0056 FB1D     		add	r3, r7, #7
 2011 0058 1B78     		ldrb	r3, [r3]
 2012 005a 722B     		cmp	r3, #114
 2013 005c 1FD1     		bne	.L134
 2014              	.LBB5:
 324:MAX30100_All.c ****         float olddcw = pulseOximeter.redDCRemover->dcw;
 2015              		.loc 1 324 0
 2016 005e 124B     		ldr	r3, .L135
 2017 0060 9B6A     		ldr	r3, [r3, #40]
 2018 0062 5B68     		ldr	r3, [r3, #4]
 2019 0064 BB60     		str	r3, [r7, #8]
 325:MAX30100_All.c **** 	    pulseOximeter.redDCRemover->dcw = (float)x + pulseOximeter.redDCRemover->alpha * pulseOximeter
 2020              		.loc 1 325 0
 2021 0066 104B     		ldr	r3, .L135
 2022 0068 9C6A     		ldr	r4, [r3, #40]
 2023 006a 0F4B     		ldr	r3, .L135
 2024 006c 9B6A     		ldr	r3, [r3, #40]
 2025 006e 1A68     		ldr	r2, [r3]
 2026 0070 0D4B     		ldr	r3, .L135
 2027 0072 9B6A     		ldr	r3, [r3, #40]
 2028 0074 5B68     		ldr	r3, [r3, #4]
 2029 0076 101C     		add	r0, r2, #0
 2030 0078 191C     		add	r1, r3, #0
 2031 007a FFF7FEFF 		bl	__aeabi_fmul
 2032 007e 031C     		add	r3, r0, #0
 2033 0080 181C     		add	r0, r3, #0
 2034 0082 3968     		ldr	r1, [r7]
 2035 0084 FFF7FEFF 		bl	__aeabi_fadd
 2036 0088 031C     		add	r3, r0, #0
 2037 008a 6360     		str	r3, [r4, #4]
 326:MAX30100_All.c ****         return pulseOximeter.redDCRemover->dcw - olddcw;
 2038              		.loc 1 326 0
 2039 008c 064B     		ldr	r3, .L135
 2040 008e 9B6A     		ldr	r3, [r3, #40]
 2041 0090 5B68     		ldr	r3, [r3, #4]
 2042 0092 181C     		add	r0, r3, #0
 2043 0094 B968     		ldr	r1, [r7, #8]
 2044 0096 FFF7FEFF 		bl	__aeabi_fsub
 2045 009a 031C     		add	r3, r0, #0
 2046 009c 00E0     		b	.L133
ARM GAS  C:\Users\Davit\AppData\Local\Temp\cc4XR0T4.s 			page 43


 2047              	.L134:
 2048              	.LBE5:
 327:MAX30100_All.c ****     }
 328:MAX30100_All.c **** 
 329:MAX30100_All.c ****     return 0.0;
 2049              		.loc 1 329 0
 2050 009e 0023     		mov	r3, #0
 2051              	.L133:
 330:MAX30100_All.c **** }
 2052              		.loc 1 330 0
 2053 00a0 181C     		add	r0, r3, #0
 2054 00a2 BD46     		mov	sp, r7
 2055 00a4 05B0     		add	sp, sp, #20
 2056              		@ sp needed
 2057 00a6 90BD     		pop	{r4, r7, pc}
 2058              	.L136:
 2059              		.align	2
 2060              	.L135:
 2061 00a8 00000000 		.word	pulseOximeter
 2062              		.cfi_endproc
 2063              	.LFE60:
 2064              		.size	DCRemover_step, .-DCRemover_step
 2065              		.section	.text.DCRemover_getDCW,"ax",%progbits
 2066              		.align	2
 2067              		.global	DCRemover_getDCW
 2068              		.code	16
 2069              		.thumb_func
 2070              		.type	DCRemover_getDCW, %function
 2071              	DCRemover_getDCW:
 2072              	.LFB61:
 331:MAX30100_All.c **** 
 332:MAX30100_All.c **** float DCRemover_getDCW(char type){
 2073              		.loc 1 332 0
 2074              		.cfi_startproc
 2075 0000 80B5     		push	{r7, lr}
 2076              		.cfi_def_cfa_offset 8
 2077              		.cfi_offset 7, -8
 2078              		.cfi_offset 14, -4
 2079 0002 82B0     		sub	sp, sp, #8
 2080              		.cfi_def_cfa_offset 16
 2081 0004 00AF     		add	r7, sp, #0
 2082              		.cfi_def_cfa_register 7
 2083 0006 021C     		mov	r2, r0
 2084 0008 FB1D     		add	r3, r7, #7
 2085 000a 1A70     		strb	r2, [r3]
 333:MAX30100_All.c ****     if(type == 'i')
 2086              		.loc 1 333 0
 2087 000c FB1D     		add	r3, r7, #7
 2088 000e 1B78     		ldrb	r3, [r3]
 2089 0010 692B     		cmp	r3, #105
 2090 0012 03D1     		bne	.L138
 334:MAX30100_All.c ****         return pulseOximeter.irDCRemover->dcw;
 2091              		.loc 1 334 0
 2092 0014 084B     		ldr	r3, .L141
 2093 0016 5B6A     		ldr	r3, [r3, #36]
 2094 0018 5B68     		ldr	r3, [r3, #4]
 2095 001a 08E0     		b	.L139
ARM GAS  C:\Users\Davit\AppData\Local\Temp\cc4XR0T4.s 			page 44


 2096              	.L138:
 335:MAX30100_All.c ****     else if(type == 'r')
 2097              		.loc 1 335 0
 2098 001c FB1D     		add	r3, r7, #7
 2099 001e 1B78     		ldrb	r3, [r3]
 2100 0020 722B     		cmp	r3, #114
 2101 0022 03D1     		bne	.L140
 336:MAX30100_All.c ****         return pulseOximeter.redDCRemover->dcw;
 2102              		.loc 1 336 0
 2103 0024 044B     		ldr	r3, .L141
 2104 0026 9B6A     		ldr	r3, [r3, #40]
 2105 0028 5B68     		ldr	r3, [r3, #4]
 2106 002a 00E0     		b	.L139
 2107              	.L140:
 337:MAX30100_All.c ****     
 338:MAX30100_All.c ****     return 0.0;
 2108              		.loc 1 338 0
 2109 002c 0023     		mov	r3, #0
 2110              	.L139:
 339:MAX30100_All.c **** }
 2111              		.loc 1 339 0
 2112 002e 181C     		add	r0, r3, #0
 2113 0030 BD46     		mov	sp, r7
 2114 0032 02B0     		add	sp, sp, #8
 2115              		@ sp needed
 2116 0034 80BD     		pop	{r7, pc}
 2117              	.L142:
 2118 0036 C046     		.align	2
 2119              	.L141:
 2120 0038 00000000 		.word	pulseOximeter
 2121              		.cfi_endproc
 2122              	.LFE61:
 2123              		.size	DCRemover_getDCW, .-DCRemover_getDCW
 2124              		.section	.text.FilterBuLp1_Init,"ax",%progbits
 2125              		.align	2
 2126              		.global	FilterBuLp1_Init
 2127              		.code	16
 2128              		.thumb_func
 2129              		.type	FilterBuLp1_Init, %function
 2130              	FilterBuLp1_Init:
 2131              	.LFB62:
 340:MAX30100_All.c **** 
 341:MAX30100_All.c **** void FilterBuLp1_Init(){
 2132              		.loc 1 341 0
 2133              		.cfi_startproc
 2134 0000 80B5     		push	{r7, lr}
 2135              		.cfi_def_cfa_offset 8
 2136              		.cfi_offset 7, -8
 2137              		.cfi_offset 14, -4
 2138 0002 00AF     		add	r7, sp, #0
 2139              		.cfi_def_cfa_register 7
 342:MAX30100_All.c ****     pulseOximeter.lpf->v[0] = 0.0;
 2140              		.loc 1 342 0
 2141 0004 024B     		ldr	r3, .L144
 2142 0006 DB6A     		ldr	r3, [r3, #44]
 2143 0008 0022     		mov	r2, #0
 2144 000a 1A60     		str	r2, [r3]
ARM GAS  C:\Users\Davit\AppData\Local\Temp\cc4XR0T4.s 			page 45


 343:MAX30100_All.c **** }
 2145              		.loc 1 343 0
 2146 000c BD46     		mov	sp, r7
 2147              		@ sp needed
 2148 000e 80BD     		pop	{r7, pc}
 2149              	.L145:
 2150              		.align	2
 2151              	.L144:
 2152 0010 00000000 		.word	pulseOximeter
 2153              		.cfi_endproc
 2154              	.LFE62:
 2155              		.size	FilterBuLp1_Init, .-FilterBuLp1_Init
 2156              		.section	.text.FilterBuLp1_step,"ax",%progbits
 2157              		.align	2
 2158              		.global	FilterBuLp1_step
 2159              		.code	16
 2160              		.thumb_func
 2161              		.type	FilterBuLp1_step, %function
 2162              	FilterBuLp1_step:
 2163              	.LFB63:
 344:MAX30100_All.c **** 
 345:MAX30100_All.c **** float FilterBuLp1_step(float x){
 2164              		.loc 1 345 0
 2165              		.cfi_startproc
 2166 0000 F0B5     		push	{r4, r5, r6, r7, lr}
 2167              		.cfi_def_cfa_offset 20
 2168              		.cfi_offset 4, -20
 2169              		.cfi_offset 5, -16
 2170              		.cfi_offset 6, -12
 2171              		.cfi_offset 7, -8
 2172              		.cfi_offset 14, -4
 2173 0002 83B0     		sub	sp, sp, #12
 2174              		.cfi_def_cfa_offset 32
 2175 0004 00AF     		add	r7, sp, #0
 2176              		.cfi_def_cfa_register 7
 2177 0006 7860     		str	r0, [r7, #4]
 346:MAX30100_All.c ****     pulseOximeter.lpf->v[0] = pulseOximeter.lpf->v[1];
 2178              		.loc 1 346 0
 2179 0008 204B     		ldr	r3, .L148
 2180 000a DB6A     		ldr	r3, [r3, #44]
 2181 000c 1F4A     		ldr	r2, .L148
 2182 000e D26A     		ldr	r2, [r2, #44]
 2183 0010 5268     		ldr	r2, [r2, #4]
 2184 0012 1A60     		str	r2, [r3]
 347:MAX30100_All.c **** 	pulseOximeter.lpf->v[1] = (2.452372752527856026e-1 * x) + (0.50952544949442879485 * pulseOximeter.
 2185              		.loc 1 347 0
 2186 0014 1D4B     		ldr	r3, .L148
 2187 0016 DC6A     		ldr	r4, [r3, #44]
 2188 0018 7868     		ldr	r0, [r7, #4]
 2189 001a FFF7FEFF 		bl	__aeabi_f2d
 2190 001e 021C     		mov	r2, r0
 2191 0020 0B1C     		mov	r3, r1
 2192 0022 101C     		mov	r0, r2
 2193 0024 191C     		mov	r1, r3
 2194 0026 1A4A     		ldr	r2, .L148+4
 2195 0028 1A4B     		ldr	r3, .L148+8
 2196 002a FFF7FEFF 		bl	__aeabi_dmul
ARM GAS  C:\Users\Davit\AppData\Local\Temp\cc4XR0T4.s 			page 46


 2197 002e 021C     		mov	r2, r0
 2198 0030 0B1C     		mov	r3, r1
 2199 0032 151C     		mov	r5, r2
 2200 0034 1E1C     		mov	r6, r3
 2201 0036 154B     		ldr	r3, .L148
 2202 0038 DB6A     		ldr	r3, [r3, #44]
 2203 003a 1B68     		ldr	r3, [r3]
 2204 003c 181C     		add	r0, r3, #0
 2205 003e FFF7FEFF 		bl	__aeabi_f2d
 2206 0042 021C     		mov	r2, r0
 2207 0044 0B1C     		mov	r3, r1
 2208 0046 101C     		mov	r0, r2
 2209 0048 191C     		mov	r1, r3
 2210 004a 134A     		ldr	r2, .L148+12
 2211 004c 134B     		ldr	r3, .L148+16
 2212 004e FFF7FEFF 		bl	__aeabi_dmul
 2213 0052 021C     		mov	r2, r0
 2214 0054 0B1C     		mov	r3, r1
 2215 0056 281C     		mov	r0, r5
 2216 0058 311C     		mov	r1, r6
 2217 005a FFF7FEFF 		bl	__aeabi_dadd
 2218 005e 021C     		mov	r2, r0
 2219 0060 0B1C     		mov	r3, r1
 2220 0062 101C     		mov	r0, r2
 2221 0064 191C     		mov	r1, r3
 2222 0066 FFF7FEFF 		bl	__aeabi_d2f
 2223 006a 031C     		add	r3, r0, #0
 2224 006c 6360     		str	r3, [r4, #4]
 348:MAX30100_All.c **** 	
 349:MAX30100_All.c ****     return (pulseOximeter.lpf->v[0] + pulseOximeter.lpf->v[1]);
 2225              		.loc 1 349 0
 2226 006e 074B     		ldr	r3, .L148
 2227 0070 DB6A     		ldr	r3, [r3, #44]
 2228 0072 1A68     		ldr	r2, [r3]
 2229 0074 054B     		ldr	r3, .L148
 2230 0076 DB6A     		ldr	r3, [r3, #44]
 2231 0078 5B68     		ldr	r3, [r3, #4]
 2232 007a 101C     		add	r0, r2, #0
 2233 007c 191C     		add	r1, r3, #0
 2234 007e FFF7FEFF 		bl	__aeabi_fadd
 2235 0082 031C     		add	r3, r0, #0
 350:MAX30100_All.c **** }
 2236              		.loc 1 350 0
 2237 0084 181C     		add	r0, r3, #0
 2238 0086 BD46     		mov	sp, r7
 2239 0088 03B0     		add	sp, sp, #12
 2240              		@ sp needed
 2241 008a F0BD     		pop	{r4, r5, r6, r7, pc}
 2242              	.L149:
 2243              		.align	2
 2244              	.L148:
 2245 008c 00000000 		.word	pulseOximeter
 2246 0090 48457C5E 		.word	1585202504
 2247 0094 EF63CF3F 		.word	1070556143
 2248 0098 5CDDC150 		.word	1354882396
 2249 009c 084EE03F 		.word	1071664648
 2250              		.cfi_endproc
ARM GAS  C:\Users\Davit\AppData\Local\Temp\cc4XR0T4.s 			page 47


 2251              	.LFE63:
 2252              		.size	FilterBuLp1_step, .-FilterBuLp1_step
 2253              		.section	.text.PulseOximeter_Init,"ax",%progbits
 2254              		.align	2
 2255              		.global	PulseOximeter_Init
 2256              		.code	16
 2257              		.thumb_func
 2258              		.type	PulseOximeter_Init, %function
 2259              	PulseOximeter_Init:
 2260              	.LFB64:
 351:MAX30100_All.c **** 
 352:MAX30100_All.c **** void PulseOximeter_Init(){
 2261              		.loc 1 352 0
 2262              		.cfi_startproc
 2263 0000 98B5     		push	{r3, r4, r7, lr}
 2264              		.cfi_def_cfa_offset 16
 2265              		.cfi_offset 3, -16
 2266              		.cfi_offset 4, -12
 2267              		.cfi_offset 7, -8
 2268              		.cfi_offset 14, -4
 2269 0002 00AF     		add	r7, sp, #0
 2270              		.cfi_def_cfa_register 7
 353:MAX30100_All.c ****     pulseOximeter.state = PULSEOXIMETER_STATE_INIT;
 2271              		.loc 1 353 0
 2272 0004 1C4B     		ldr	r3, .L151
 2273 0006 0022     		mov	r2, #0
 2274 0008 1A70     		strb	r2, [r3]
 354:MAX30100_All.c ****     pulseOximeter.tsFirstBeatDetected = 0;
 2275              		.loc 1 354 0
 2276 000a 1B4B     		ldr	r3, .L151
 2277 000c 0022     		mov	r2, #0
 2278 000e 5A60     		str	r2, [r3, #4]
 355:MAX30100_All.c ****     pulseOximeter.tsLastBeatDetected = 0;
 2279              		.loc 1 355 0
 2280 0010 194B     		ldr	r3, .L151
 2281 0012 0022     		mov	r2, #0
 2282 0014 9A60     		str	r2, [r3, #8]
 356:MAX30100_All.c ****     pulseOximeter.tsLastSample = 0;
 2283              		.loc 1 356 0
 2284 0016 184B     		ldr	r3, .L151
 2285 0018 0022     		mov	r2, #0
 2286 001a DA60     		str	r2, [r3, #12]
 357:MAX30100_All.c ****     pulseOximeter.tsLastBiasCheck = 0;
 2287              		.loc 1 357 0
 2288 001c 164B     		ldr	r3, .L151
 2289 001e 0022     		mov	r2, #0
 2290 0020 1A61     		str	r2, [r3, #16]
 358:MAX30100_All.c ****     pulseOximeter.tsLastCurrentAdjustment = 0;
 2291              		.loc 1 358 0
 2292 0022 154B     		ldr	r3, .L151
 2293 0024 0022     		mov	r2, #0
 2294 0026 5A61     		str	r2, [r3, #20]
 359:MAX30100_All.c ****     pulseOximeter.tsLastTemperaturePoll = 0;
 2295              		.loc 1 359 0
 2296 0028 134B     		ldr	r3, .L151
 2297 002a 0022     		mov	r2, #0
 2298 002c 9A61     		str	r2, [r3, #24]
ARM GAS  C:\Users\Davit\AppData\Local\Temp\cc4XR0T4.s 			page 48


 360:MAX30100_All.c ****     pulseOximeter.redLedPower = (uint8_t)RED_LED_CURRENT_START,
 2299              		.loc 1 360 0
 2300 002e 124B     		ldr	r3, .L151
 2301 0030 0822     		mov	r2, #8
 2302 0032 1A77     		strb	r2, [r3, #28]
 361:MAX30100_All.c ****     //onBeatDetected(NULL);
 362:MAX30100_All.c ****     
 363:MAX30100_All.c ****     pulseOximeter.beatDetector = &globalBeatDetector;
 2303              		.loc 1 363 0
 2304 0034 104B     		ldr	r3, .L151
 2305 0036 114A     		ldr	r2, .L151+4
 2306 0038 1A62     		str	r2, [r3, #32]
 364:MAX30100_All.c ****     pulseOximeter.irDCRemover = &globalIrDCRemover;
 2307              		.loc 1 364 0
 2308 003a 0F4B     		ldr	r3, .L151
 2309 003c 104A     		ldr	r2, .L151+8
 2310 003e 5A62     		str	r2, [r3, #36]
 365:MAX30100_All.c ****     pulseOximeter.redDCRemover = &globalRedDCRemover;
 2311              		.loc 1 365 0
 2312 0040 0D4B     		ldr	r3, .L151
 2313 0042 104A     		ldr	r2, .L151+12
 2314 0044 9A62     		str	r2, [r3, #40]
 366:MAX30100_All.c ****     pulseOximeter.lpf = &globalLpf;
 2315              		.loc 1 366 0
 2316 0046 0C4B     		ldr	r3, .L151
 2317 0048 0F4A     		ldr	r2, .L151+16
 2318 004a DA62     		str	r2, [r3, #44]
 367:MAX30100_All.c ****     pulseOximeter.spO2calculator = &globalSpO2calculator;
 2319              		.loc 1 367 0
 2320 004c 0A4B     		ldr	r3, .L151
 2321 004e 0F4A     		ldr	r2, .L151+20
 2322 0050 1A63     		str	r2, [r3, #48]
 368:MAX30100_All.c ****     pulseOximeter.hrm = &globalHrm;
 2323              		.loc 1 368 0
 2324 0052 094B     		ldr	r3, .L151
 2325 0054 0E4A     		ldr	r2, .L151+24
 2326 0056 5A63     		str	r2, [r3, #52]
 369:MAX30100_All.c ****     
 370:MAX30100_All.c ****     BeatDetector_Init();
 2327              		.loc 1 370 0
 2328 0058 FFF7FEFF 		bl	BeatDetector_Init
 371:MAX30100_All.c ****     FilterBuLp1_Init();
 2329              		.loc 1 371 0
 2330 005c FFF7FEFF 		bl	FilterBuLp1_Init
 372:MAX30100_All.c ****     SpO2Calculator_Init();
 2331              		.loc 1 372 0
 2332 0060 FFF7FEFF 		bl	SpO2Calculator_Init
 373:MAX30100_All.c ****     
 374:MAX30100_All.c ****     pulseOximeter.currentMinute = 0;
 2333              		.loc 1 374 0
 2334 0064 044A     		ldr	r2, .L151
 2335 0066 0023     		mov	r3, #0
 2336 0068 0024     		mov	r4, #0
 2337 006a 9363     		str	r3, [r2, #56]
 2338 006c D463     		str	r4, [r2, #60]
 375:MAX30100_All.c ****     numBeats = 0;
 2339              		.loc 1 375 0
ARM GAS  C:\Users\Davit\AppData\Local\Temp\cc4XR0T4.s 			page 49


 2340 006e 094B     		ldr	r3, .L151+28
 2341 0070 0022     		mov	r2, #0
 2342 0072 1A60     		str	r2, [r3]
 376:MAX30100_All.c **** }
 2343              		.loc 1 376 0
 2344 0074 BD46     		mov	sp, r7
 2345              		@ sp needed
 2346 0076 98BD     		pop	{r3, r4, r7, pc}
 2347              	.L152:
 2348              		.align	2
 2349              	.L151:
 2350 0078 00000000 		.word	pulseOximeter
 2351 007c 00000000 		.word	globalBeatDetector
 2352 0080 00000000 		.word	globalIrDCRemover
 2353 0084 00000000 		.word	globalRedDCRemover
 2354 0088 00000000 		.word	globalLpf
 2355 008c 00000000 		.word	globalSpO2calculator
 2356 0090 00000000 		.word	globalHrm
 2357 0094 00000000 		.word	numBeats
 2358              		.cfi_endproc
 2359              	.LFE64:
 2360              		.size	PulseOximeter_Init, .-PulseOximeter_Init
 2361              		.section	.text.millis,"ax",%progbits
 2362              		.align	2
 2363              		.global	millis
 2364              		.code	16
 2365              		.thumb_func
 2366              		.type	millis, %function
 2367              	millis:
 2368              	.LFB65:
 377:MAX30100_All.c **** 
 378:MAX30100_All.c **** long millis(){
 2369              		.loc 1 378 0
 2370              		.cfi_startproc
 2371 0000 98B5     		push	{r3, r4, r7, lr}
 2372              		.cfi_def_cfa_offset 16
 2373              		.cfi_offset 3, -16
 2374              		.cfi_offset 4, -12
 2375              		.cfi_offset 7, -8
 2376              		.cfi_offset 14, -4
 2377 0002 00AF     		add	r7, sp, #0
 2378              		.cfi_def_cfa_register 7
 379:MAX30100_All.c ****     return (pulseOximeter.currentMinute * 60000) + (60000 - Timer_minute_ReadCounter());
 2379              		.loc 1 379 0
 2380 0004 084B     		ldr	r3, .L155
 2381 0006 DC6B     		ldr	r4, [r3, #60]
 2382 0008 9B6B     		ldr	r3, [r3, #56]
 2383 000a 1A1C     		mov	r2, r3
 2384 000c 074B     		ldr	r3, .L155+4
 2385 000e 5343     		mul	r3, r2
 2386 0010 1C1C     		mov	r4, r3
 2387 0012 FFF7FEFF 		bl	Timer_minute_ReadCounter
 2388 0016 031C     		mov	r3, r0
 2389 0018 E31A     		sub	r3, r4, r3
 2390 001a 044A     		ldr	r2, .L155+4
 2391 001c 9446     		mov	ip, r2
 2392 001e 6344     		add	r3, r3, ip
ARM GAS  C:\Users\Davit\AppData\Local\Temp\cc4XR0T4.s 			page 50


 380:MAX30100_All.c **** }
 2393              		.loc 1 380 0
 2394 0020 181C     		mov	r0, r3
 2395 0022 BD46     		mov	sp, r7
 2396              		@ sp needed
 2397 0024 98BD     		pop	{r3, r4, r7, pc}
 2398              	.L156:
 2399 0026 C046     		.align	2
 2400              	.L155:
 2401 0028 00000000 		.word	pulseOximeter
 2402 002c 60EA0000 		.word	60000
 2403              		.cfi_endproc
 2404              	.LFE65:
 2405              		.size	millis, .-millis
 2406              		.section	.text.PulseOximeter_begin,"ax",%progbits
 2407              		.align	2
 2408              		.global	PulseOximeter_begin
 2409              		.code	16
 2410              		.thumb_func
 2411              		.type	PulseOximeter_begin, %function
 2412              	PulseOximeter_begin:
 2413              	.LFB66:
 381:MAX30100_All.c **** 
 382:MAX30100_All.c **** void PulseOximeter_begin(PulseOximeterDebuggingMode debuggingMode_)
 383:MAX30100_All.c **** {
 2414              		.loc 1 383 0
 2415              		.cfi_startproc
 2416 0000 80B5     		push	{r7, lr}
 2417              		.cfi_def_cfa_offset 8
 2418              		.cfi_offset 7, -8
 2419              		.cfi_offset 14, -4
 2420 0002 82B0     		sub	sp, sp, #8
 2421              		.cfi_def_cfa_offset 16
 2422 0004 00AF     		add	r7, sp, #0
 2423              		.cfi_def_cfa_register 7
 2424 0006 021C     		mov	r2, r0
 2425 0008 FB1D     		add	r3, r7, #7
 2426 000a 1A70     		strb	r2, [r3]
 384:MAX30100_All.c ****     pulseOximeter.debuggingMode = debuggingMode_;
 2427              		.loc 1 384 0
 2428 000c 0E4B     		ldr	r3, .L158
 2429 000e FA1D     		add	r2, r7, #7
 2430 0010 1278     		ldrb	r2, [r2]
 2431 0012 5A70     		strb	r2, [r3, #1]
 385:MAX30100_All.c **** 
 386:MAX30100_All.c ****     MAX30100_begin();
 2432              		.loc 1 386 0
 2433 0014 FFF7FEFF 		bl	MAX30100_begin
 387:MAX30100_All.c ****     MAX30100_setMode(MAX30100_MODE_SPO2_HR);
 2434              		.loc 1 387 0
 2435 0018 0320     		mov	r0, #3
 2436 001a FFF7FEFF 		bl	MAX30100_setMode
 388:MAX30100_All.c ****     MAX30100_setLedsCurrent(IR_LED_CURRENT, RED_LED_CURRENT_START);
 2437              		.loc 1 388 0
 2438 001e 0F20     		mov	r0, #15
 2439 0020 0821     		mov	r1, #8
 2440 0022 FFF7FEFF 		bl	MAX30100_setLedsCurrent
ARM GAS  C:\Users\Davit\AppData\Local\Temp\cc4XR0T4.s 			page 51


 389:MAX30100_All.c ****     
 390:MAX30100_All.c ****     DCRemover_Init('i', DC_REMOVER_ALPHA);
 2441              		.loc 1 390 0
 2442 0026 094B     		ldr	r3, .L158+4
 2443 0028 6920     		mov	r0, #105
 2444 002a 191C     		add	r1, r3, #0
 2445 002c FFF7FEFF 		bl	DCRemover_Init
 391:MAX30100_All.c ****     DCRemover_Init('r', DC_REMOVER_ALPHA);
 2446              		.loc 1 391 0
 2447 0030 064B     		ldr	r3, .L158+4
 2448 0032 7220     		mov	r0, #114
 2449 0034 191C     		add	r1, r3, #0
 2450 0036 FFF7FEFF 		bl	DCRemover_Init
 392:MAX30100_All.c **** 
 393:MAX30100_All.c ****     pulseOximeter.state = PULSEOXIMETER_STATE_IDLE;
 2451              		.loc 1 393 0
 2452 003a 034B     		ldr	r3, .L158
 2453 003c 0122     		mov	r2, #1
 2454 003e 1A70     		strb	r2, [r3]
 394:MAX30100_All.c **** }
 2455              		.loc 1 394 0
 2456 0040 BD46     		mov	sp, r7
 2457 0042 02B0     		add	sp, sp, #8
 2458              		@ sp needed
 2459 0044 80BD     		pop	{r7, pc}
 2460              	.L159:
 2461 0046 C046     		.align	2
 2462              	.L158:
 2463 0048 00000000 		.word	pulseOximeter
 2464 004c 3333733F 		.word	1064514355
 2465              		.cfi_endproc
 2466              	.LFE66:
 2467              		.size	PulseOximeter_begin, .-PulseOximeter_begin
 2468              		.section	.text.PulseOximeter_update,"ax",%progbits
 2469              		.align	2
 2470              		.global	PulseOximeter_update
 2471              		.code	16
 2472              		.thumb_func
 2473              		.type	PulseOximeter_update, %function
 2474              	PulseOximeter_update:
 2475              	.LFB67:
 395:MAX30100_All.c **** 
 396:MAX30100_All.c **** void PulseOximeter_update()
 397:MAX30100_All.c **** {
 2476              		.loc 1 397 0
 2477              		.cfi_startproc
 2478 0000 90B5     		push	{r4, r7, lr}
 2479              		.cfi_def_cfa_offset 12
 2480              		.cfi_offset 4, -12
 2481              		.cfi_offset 7, -8
 2482              		.cfi_offset 14, -4
 2483 0002 8DB0     		sub	sp, sp, #52
 2484              		.cfi_def_cfa_offset 64
 2485 0004 0CAF     		add	r7, sp, #48
 2486              		.cfi_def_cfa 7, 16
 398:MAX30100_All.c ****     PulseOximeter_checkSample(pulseOximeter);
 2487              		.loc 1 398 0
ARM GAS  C:\Users\Davit\AppData\Local\Temp\cc4XR0T4.s 			page 52


 2488 0006 114C     		ldr	r4, .L161
 2489 0008 6B46     		mov	r3, sp
 2490 000a 191C     		mov	r1, r3
 2491 000c 231C     		mov	r3, r4
 2492 000e 1033     		add	r3, r3, #16
 2493 0010 3022     		mov	r2, #48
 2494 0012 081C     		mov	r0, r1
 2495 0014 191C     		mov	r1, r3
 2496 0016 FFF7FEFF 		bl	memcpy
 2497 001a 2068     		ldr	r0, [r4]
 2498 001c 6168     		ldr	r1, [r4, #4]
 2499 001e A268     		ldr	r2, [r4, #8]
 2500 0020 E368     		ldr	r3, [r4, #12]
 2501 0022 FFF7FEFF 		bl	PulseOximeter_checkSample
 399:MAX30100_All.c ****     PulseOximeter_checkCurrentBias(pulseOximeter);
 2502              		.loc 1 399 0
 2503 0026 094C     		ldr	r4, .L161
 2504 0028 6B46     		mov	r3, sp
 2505 002a 191C     		mov	r1, r3
 2506 002c 231C     		mov	r3, r4
 2507 002e 1033     		add	r3, r3, #16
 2508 0030 3022     		mov	r2, #48
 2509 0032 081C     		mov	r0, r1
 2510 0034 191C     		mov	r1, r3
 2511 0036 FFF7FEFF 		bl	memcpy
 2512 003a 2068     		ldr	r0, [r4]
 2513 003c 6168     		ldr	r1, [r4, #4]
 2514 003e A268     		ldr	r2, [r4, #8]
 2515 0040 E368     		ldr	r3, [r4, #12]
 2516 0042 FFF7FEFF 		bl	PulseOximeter_checkCurrentBias
 400:MAX30100_All.c **** }
 2517              		.loc 1 400 0
 2518 0046 BD46     		mov	sp, r7
 2519 0048 01B0     		add	sp, sp, #4
 2520              		@ sp needed
 2521 004a 90BD     		pop	{r4, r7, pc}
 2522              	.L162:
 2523              		.align	2
 2524              	.L161:
 2525 004c 00000000 		.word	pulseOximeter
 2526              		.cfi_endproc
 2527              	.LFE67:
 2528              		.size	PulseOximeter_update, .-PulseOximeter_update
 2529              		.section	.text.PulseOximeter_getHeartRate,"ax",%progbits
 2530              		.align	2
 2531              		.global	PulseOximeter_getHeartRate
 2532              		.code	16
 2533              		.thumb_func
 2534              		.type	PulseOximeter_getHeartRate, %function
 2535              	PulseOximeter_getHeartRate:
 2536              	.LFB68:
 401:MAX30100_All.c **** 
 402:MAX30100_All.c **** float PulseOximeter_getHeartRate()
 403:MAX30100_All.c **** {
 2537              		.loc 1 403 0
 2538              		.cfi_startproc
 2539 0000 80B5     		push	{r7, lr}
ARM GAS  C:\Users\Davit\AppData\Local\Temp\cc4XR0T4.s 			page 53


 2540              		.cfi_def_cfa_offset 8
 2541              		.cfi_offset 7, -8
 2542              		.cfi_offset 14, -4
 2543 0002 00AF     		add	r7, sp, #0
 2544              		.cfi_def_cfa_register 7
 404:MAX30100_All.c ****     return BeatDetector_getRate();
 2545              		.loc 1 404 0
 2546 0004 FFF7FEFF 		bl	BeatDetector_getRate
 2547 0008 031C     		add	r3, r0, #0
 405:MAX30100_All.c **** }
 2548              		.loc 1 405 0
 2549 000a 181C     		add	r0, r3, #0
 2550 000c BD46     		mov	sp, r7
 2551              		@ sp needed
 2552 000e 80BD     		pop	{r7, pc}
 2553              		.cfi_endproc
 2554              	.LFE68:
 2555              		.size	PulseOximeter_getHeartRate, .-PulseOximeter_getHeartRate
 2556              		.section	.text.PulseOximeter_getSpO2,"ax",%progbits
 2557              		.align	2
 2558              		.global	PulseOximeter_getSpO2
 2559              		.code	16
 2560              		.thumb_func
 2561              		.type	PulseOximeter_getSpO2, %function
 2562              	PulseOximeter_getSpO2:
 2563              	.LFB69:
 406:MAX30100_All.c **** 
 407:MAX30100_All.c **** uint8_t PulseOximeter_getSpO2()
 408:MAX30100_All.c **** {
 2564              		.loc 1 408 0
 2565              		.cfi_startproc
 2566 0000 80B5     		push	{r7, lr}
 2567              		.cfi_def_cfa_offset 8
 2568              		.cfi_offset 7, -8
 2569              		.cfi_offset 14, -4
 2570 0002 00AF     		add	r7, sp, #0
 2571              		.cfi_def_cfa_register 7
 409:MAX30100_All.c ****     return SpO2Calculator_getSpO2();
 2572              		.loc 1 409 0
 2573 0004 FFF7FEFF 		bl	SpO2Calculator_getSpO2
 2574 0008 031C     		mov	r3, r0
 410:MAX30100_All.c **** }
 2575              		.loc 1 410 0
 2576 000a 181C     		mov	r0, r3
 2577 000c BD46     		mov	sp, r7
 2578              		@ sp needed
 2579 000e 80BD     		pop	{r7, pc}
 2580              		.cfi_endproc
 2581              	.LFE69:
 2582              		.size	PulseOximeter_getSpO2, .-PulseOximeter_getSpO2
 2583              		.section	.text.PulseOximeter_getRedLedCurrentBias,"ax",%progbits
 2584              		.align	2
 2585              		.global	PulseOximeter_getRedLedCurrentBias
 2586              		.code	16
 2587              		.thumb_func
 2588              		.type	PulseOximeter_getRedLedCurrentBias, %function
 2589              	PulseOximeter_getRedLedCurrentBias:
ARM GAS  C:\Users\Davit\AppData\Local\Temp\cc4XR0T4.s 			page 54


 2590              	.LFB70:
 411:MAX30100_All.c **** 
 412:MAX30100_All.c **** uint8_t PulseOximeter_getRedLedCurrentBias()
 413:MAX30100_All.c **** {
 2591              		.loc 1 413 0
 2592              		.cfi_startproc
 2593 0000 80B5     		push	{r7, lr}
 2594              		.cfi_def_cfa_offset 8
 2595              		.cfi_offset 7, -8
 2596              		.cfi_offset 14, -4
 2597 0002 00AF     		add	r7, sp, #0
 2598              		.cfi_def_cfa_register 7
 414:MAX30100_All.c ****     return pulseOximeter.redLedPower;
 2599              		.loc 1 414 0
 2600 0004 024B     		ldr	r3, .L169
 2601 0006 1B7F     		ldrb	r3, [r3, #28]
 415:MAX30100_All.c **** }
 2602              		.loc 1 415 0
 2603 0008 181C     		mov	r0, r3
 2604 000a BD46     		mov	sp, r7
 2605              		@ sp needed
 2606 000c 80BD     		pop	{r7, pc}
 2607              	.L170:
 2608 000e C046     		.align	2
 2609              	.L169:
 2610 0010 00000000 		.word	pulseOximeter
 2611              		.cfi_endproc
 2612              	.LFE70:
 2613              		.size	PulseOximeter_getRedLedCurrentBias, .-PulseOximeter_getRedLedCurrentBias
 2614              		.section	.text.PulseOximeter_setOnBeatDetectedCallback,"ax",%progbits
 2615              		.align	2
 2616              		.global	PulseOximeter_setOnBeatDetectedCallback
 2617              		.code	16
 2618              		.thumb_func
 2619              		.type	PulseOximeter_setOnBeatDetectedCallback, %function
 2620              	PulseOximeter_setOnBeatDetectedCallback:
 2621              	.LFB71:
 416:MAX30100_All.c **** 
 417:MAX30100_All.c **** void PulseOximeter_setOnBeatDetectedCallback(void (*cb)())
 418:MAX30100_All.c **** {
 2622              		.loc 1 418 0
 2623              		.cfi_startproc
 2624 0000 80B5     		push	{r7, lr}
 2625              		.cfi_def_cfa_offset 8
 2626              		.cfi_offset 7, -8
 2627              		.cfi_offset 14, -4
 2628 0002 82B0     		sub	sp, sp, #8
 2629              		.cfi_def_cfa_offset 16
 2630 0004 00AF     		add	r7, sp, #0
 2631              		.cfi_def_cfa_register 7
 2632 0006 7860     		str	r0, [r7, #4]
 419:MAX30100_All.c ****     //onBeatDetected = cb;
 420:MAX30100_All.c **** }
 2633              		.loc 1 420 0
 2634 0008 BD46     		mov	sp, r7
 2635 000a 02B0     		add	sp, sp, #8
 2636              		@ sp needed
ARM GAS  C:\Users\Davit\AppData\Local\Temp\cc4XR0T4.s 			page 55


 2637 000c 80BD     		pop	{r7, pc}
 2638              		.cfi_endproc
 2639              	.LFE71:
 2640              		.size	PulseOximeter_setOnBeatDetectedCallback, .-PulseOximeter_setOnBeatDetectedCallback
 2641              		.global	__aeabi_ui2d
 2642              		.global	__aeabi_dcmpgt
 2643 000e C046     		.section	.text.PulseOximeter_checkSample,"ax",%progbits
 2644              		.align	2
 2645              		.global	PulseOximeter_checkSample
 2646              		.code	16
 2647              		.thumb_func
 2648              		.type	PulseOximeter_checkSample, %function
 2649              	PulseOximeter_checkSample:
 2650              	.LFB72:
 421:MAX30100_All.c **** 
 422:MAX30100_All.c **** void PulseOximeter_checkSample(){
 2651              		.loc 1 422 0
 2652              		.cfi_startproc
 2653 0000 90B5     		push	{r4, r7, lr}
 2654              		.cfi_def_cfa_offset 12
 2655              		.cfi_offset 4, -12
 2656              		.cfi_offset 7, -8
 2657              		.cfi_offset 14, -4
 2658 0002 85B0     		sub	sp, sp, #20
 2659              		.cfi_def_cfa_offset 32
 2660 0004 00AF     		add	r7, sp, #0
 2661              		.cfi_def_cfa_register 7
 423:MAX30100_All.c ****     if (millis() - pulseOximeter.tsLastSample > 1.0 / SAMPLING_FREQUENCY * 1000.0) {
 2662              		.loc 1 423 0
 2663 0006 FFF7FEFF 		bl	millis
 2664 000a 031C     		mov	r3, r0
 2665 000c 1A1C     		mov	r2, r3
 2666 000e 364B     		ldr	r3, .L181
 2667 0010 DB68     		ldr	r3, [r3, #12]
 2668 0012 D31A     		sub	r3, r2, r3
 2669 0014 181C     		mov	r0, r3
 2670 0016 FFF7FEFF 		bl	__aeabi_ui2d
 2671 001a 031C     		mov	r3, r0
 2672 001c 0C1C     		mov	r4, r1
 2673 001e 181C     		mov	r0, r3
 2674 0020 211C     		mov	r1, r4
 2675 0022 0022     		mov	r2, #0
 2676 0024 314B     		ldr	r3, .L181+4
 2677 0026 FFF7FEFF 		bl	__aeabi_dcmpgt
 2678 002a 031E     		sub	r3, r0, #0
 2679 002c 59D0     		beq	.L172
 2680              	.LBB6:
 424:MAX30100_All.c ****         pulseOximeter.tsLastSample = millis();
 2681              		.loc 1 424 0
 2682 002e FFF7FEFF 		bl	millis
 2683 0032 031C     		mov	r3, r0
 2684 0034 1A1C     		mov	r2, r3
 2685 0036 2C4B     		ldr	r3, .L181
 2686 0038 DA60     		str	r2, [r3, #12]
 425:MAX30100_All.c ****         MAX30100_update();
 2687              		.loc 1 425 0
 2688 003a FFF7FEFF 		bl	MAX30100_update
ARM GAS  C:\Users\Davit\AppData\Local\Temp\cc4XR0T4.s 			page 56


 426:MAX30100_All.c ****         float irACValue = DCRemover_step('i', pulseOximeter.hrm->rawIRValue);
 2689              		.loc 1 426 0
 2690 003e 2A4B     		ldr	r3, .L181
 2691 0040 5B6B     		ldr	r3, [r3, #52]
 2692 0042 1B88     		ldrh	r3, [r3]
 2693 0044 181C     		mov	r0, r3
 2694 0046 FFF7FEFF 		bl	__aeabi_ui2f
 2695 004a 031C     		add	r3, r0, #0
 2696 004c 6920     		mov	r0, #105
 2697 004e 191C     		add	r1, r3, #0
 2698 0050 FFF7FEFF 		bl	DCRemover_step
 2699 0054 031C     		add	r3, r0, #0
 2700 0056 FB60     		str	r3, [r7, #12]
 427:MAX30100_All.c ****         float redACValue = DCRemover_step('r', pulseOximeter.hrm->rawRedValue);
 2701              		.loc 1 427 0
 2702 0058 234B     		ldr	r3, .L181
 2703 005a 5B6B     		ldr	r3, [r3, #52]
 2704 005c 5B88     		ldrh	r3, [r3, #2]
 2705 005e 181C     		mov	r0, r3
 2706 0060 FFF7FEFF 		bl	__aeabi_ui2f
 2707 0064 031C     		add	r3, r0, #0
 2708 0066 7220     		mov	r0, #114
 2709 0068 191C     		add	r1, r3, #0
 2710 006a FFF7FEFF 		bl	DCRemover_step
 2711 006e 031C     		add	r3, r0, #0
 2712 0070 BB60     		str	r3, [r7, #8]
 428:MAX30100_All.c **** 
 429:MAX30100_All.c ****         // The signal fed to the beat detector is mirrored since the cleanest monotonic spike is be
 430:MAX30100_All.c ****         float filteredPulseValue = FilterBuLp1_step(-irACValue);
 2713              		.loc 1 430 0
 2714 0072 FB68     		ldr	r3, [r7, #12]
 2715 0074 8022     		mov	r2, #128
 2716 0076 1206     		lsl	r2, r2, #24
 2717 0078 5340     		eor	r3, r2
 2718 007a 181C     		add	r0, r3, #0
 2719 007c FFF7FEFF 		bl	FilterBuLp1_step
 2720 0080 031C     		add	r3, r0, #0
 2721 0082 7B60     		str	r3, [r7, #4]
 431:MAX30100_All.c ****         char beatDetected = BeatDetector_addSample(filteredPulseValue);
 2722              		.loc 1 431 0
 2723 0084 FC1C     		add	r4, r7, #3
 2724 0086 7B68     		ldr	r3, [r7, #4]
 2725 0088 181C     		add	r0, r3, #0
 2726 008a FFF7FEFF 		bl	BeatDetector_addSample
 2727 008e 031C     		mov	r3, r0
 2728 0090 2370     		strb	r3, [r4]
 432:MAX30100_All.c **** 
 433:MAX30100_All.c ****         if (BeatDetector_getRate() > 0) {
 2729              		.loc 1 433 0
 2730 0092 FFF7FEFF 		bl	BeatDetector_getRate
 2731 0096 031C     		add	r3, r0, #0
 2732 0098 181C     		add	r0, r3, #0
 2733 009a 0021     		mov	r1, #0
 2734 009c FFF7FEFF 		bl	__aeabi_fcmpgt
 2735 00a0 031E     		sub	r3, r0, #0
 2736 00a2 0CD0     		beq	.L180
 434:MAX30100_All.c ****             pulseOximeter.state = PULSEOXIMETER_STATE_DETECTING;
ARM GAS  C:\Users\Davit\AppData\Local\Temp\cc4XR0T4.s 			page 57


 2737              		.loc 1 434 0
 2738 00a4 104B     		ldr	r3, .L181
 2739 00a6 0222     		mov	r2, #2
 2740 00a8 1A70     		strb	r2, [r3]
 435:MAX30100_All.c ****             SpO2Calculator_update(irACValue, redACValue, beatDetected);
 2741              		.loc 1 435 0
 2742 00aa F968     		ldr	r1, [r7, #12]
 2743 00ac BA68     		ldr	r2, [r7, #8]
 2744 00ae FB1C     		add	r3, r7, #3
 2745 00b0 1B78     		ldrb	r3, [r3]
 2746 00b2 081C     		add	r0, r1, #0
 2747 00b4 111C     		add	r1, r2, #0
 2748 00b6 1A1C     		mov	r2, r3
 2749 00b8 FFF7FEFF 		bl	SpO2Calculator_update
 2750 00bc 08E0     		b	.L177
 2751              	.L180:
 436:MAX30100_All.c ****         } else if (pulseOximeter.state == PULSEOXIMETER_STATE_DETECTING) {
 2752              		.loc 1 436 0
 2753 00be 0A4B     		ldr	r3, .L181
 2754 00c0 1B78     		ldrb	r3, [r3]
 2755 00c2 022B     		cmp	r3, #2
 2756 00c4 04D1     		bne	.L177
 437:MAX30100_All.c ****             pulseOximeter.state = PULSEOXIMETER_STATE_IDLE;
 2757              		.loc 1 437 0
 2758 00c6 084B     		ldr	r3, .L181
 2759 00c8 0122     		mov	r2, #1
 2760 00ca 1A70     		strb	r2, [r3]
 438:MAX30100_All.c ****             SpO2Calculator_reset();
 2761              		.loc 1 438 0
 2762 00cc FFF7FEFF 		bl	SpO2Calculator_reset
 2763              	.L177:
 439:MAX30100_All.c ****         }
 440:MAX30100_All.c **** 
 441:MAX30100_All.c ****         if (beatDetected){// && onBeatDetected) {
 2764              		.loc 1 441 0
 2765 00d0 FB1C     		add	r3, r7, #3
 2766 00d2 1B78     		ldrb	r3, [r3]
 2767 00d4 002B     		cmp	r3, #0
 2768 00d6 04D0     		beq	.L172
 442:MAX30100_All.c ****             //onBeatDetected();
 443:MAX30100_All.c ****             numBeats++;
 2769              		.loc 1 443 0
 2770 00d8 054B     		ldr	r3, .L181+8
 2771 00da 1B68     		ldr	r3, [r3]
 2772 00dc 5A1C     		add	r2, r3, #1
 2773 00de 044B     		ldr	r3, .L181+8
 2774 00e0 1A60     		str	r2, [r3]
 2775              	.L172:
 2776              	.LBE6:
 444:MAX30100_All.c ****         }
 445:MAX30100_All.c ****     }
 446:MAX30100_All.c **** }
 2777              		.loc 1 446 0
 2778 00e2 BD46     		mov	sp, r7
 2779 00e4 05B0     		add	sp, sp, #20
 2780              		@ sp needed
 2781 00e6 90BD     		pop	{r4, r7, pc}
ARM GAS  C:\Users\Davit\AppData\Local\Temp\cc4XR0T4.s 			page 58


 2782              	.L182:
 2783              		.align	2
 2784              	.L181:
 2785 00e8 00000000 		.word	pulseOximeter
 2786 00ec 00002440 		.word	1076101120
 2787 00f0 00000000 		.word	numBeats
 2788              		.cfi_endproc
 2789              	.LFE72:
 2790              		.size	PulseOximeter_checkSample, .-PulseOximeter_checkSample
 2791              		.section	.text.PulseOximeter_checkCurrentBias,"ax",%progbits
 2792              		.align	2
 2793              		.global	PulseOximeter_checkCurrentBias
 2794              		.code	16
 2795              		.thumb_func
 2796              		.type	PulseOximeter_checkCurrentBias, %function
 2797              	PulseOximeter_checkCurrentBias:
 2798              	.LFB73:
 447:MAX30100_All.c **** 
 448:MAX30100_All.c **** void PulseOximeter_checkCurrentBias()
 449:MAX30100_All.c **** {
 2799              		.loc 1 449 0
 2800              		.cfi_startproc
 2801 0000 90B5     		push	{r4, r7, lr}
 2802              		.cfi_def_cfa_offset 12
 2803              		.cfi_offset 4, -12
 2804              		.cfi_offset 7, -8
 2805              		.cfi_offset 14, -4
 2806 0002 83B0     		sub	sp, sp, #12
 2807              		.cfi_def_cfa_offset 24
 2808 0004 00AF     		add	r7, sp, #0
 2809              		.cfi_def_cfa_register 7
 450:MAX30100_All.c ****     // Follower that adjusts the red led current in order to have comparable DC baselines between
 451:MAX30100_All.c ****     // red and IR leds. The numbers are really magic: the less possible to avoid oscillations
 452:MAX30100_All.c ****     if (millis() - pulseOximeter.tsLastBiasCheck > CURRENT_ADJUSTMENT_PERIOD_MS) {
 2810              		.loc 1 452 0
 2811 0006 FFF7FEFF 		bl	millis
 2812 000a 031C     		mov	r3, r0
 2813 000c 1A1C     		mov	r2, r3
 2814 000e 324B     		ldr	r3, .L192
 2815 0010 1B69     		ldr	r3, [r3, #16]
 2816 0012 D21A     		sub	r2, r2, r3
 2817 0014 FA23     		mov	r3, #250
 2818 0016 5B00     		lsl	r3, r3, #1
 2819 0018 9A42     		cmp	r2, r3
 2820 001a 59D9     		bls	.L183
 2821              	.LBB7:
 453:MAX30100_All.c ****         char changed = 0;
 2822              		.loc 1 453 0
 2823 001c FB1D     		add	r3, r7, #7
 2824 001e 0022     		mov	r2, #0
 2825 0020 1A70     		strb	r2, [r3]
 454:MAX30100_All.c ****         if (DCRemover_getDCW('i') - DCRemover_getDCW('r') > 70000 && pulseOximeter.redLedPower < MA
 2826              		.loc 1 454 0
 2827 0022 6920     		mov	r0, #105
 2828 0024 FFF7FEFF 		bl	DCRemover_getDCW
 2829 0028 041C     		add	r4, r0, #0
 2830 002a 7220     		mov	r0, #114
ARM GAS  C:\Users\Davit\AppData\Local\Temp\cc4XR0T4.s 			page 59


 2831 002c FFF7FEFF 		bl	DCRemover_getDCW
 2832 0030 031C     		add	r3, r0, #0
 2833 0032 201C     		add	r0, r4, #0
 2834 0034 191C     		add	r1, r3, #0
 2835 0036 FFF7FEFF 		bl	__aeabi_fsub
 2836 003a 031C     		add	r3, r0, #0
 2837 003c 181C     		add	r0, r3, #0
 2838 003e 2749     		ldr	r1, .L192+4
 2839 0040 FFF7FEFF 		bl	__aeabi_fcmpgt
 2840 0044 031E     		sub	r3, r0, #0
 2841 0046 0DD0     		beq	.L185
 2842              		.loc 1 454 0 is_stmt 0 discriminator 1
 2843 0048 234B     		ldr	r3, .L192
 2844 004a 1B7F     		ldrb	r3, [r3, #28]
 2845 004c 0E2B     		cmp	r3, #14
 2846 004e 09D8     		bhi	.L185
 455:MAX30100_All.c ****             ++(pulseOximeter.redLedPower);
 2847              		.loc 1 455 0 is_stmt 1
 2848 0050 214B     		ldr	r3, .L192
 2849 0052 1B7F     		ldrb	r3, [r3, #28]
 2850 0054 0133     		add	r3, r3, #1
 2851 0056 DAB2     		uxtb	r2, r3
 2852 0058 1F4B     		ldr	r3, .L192
 2853 005a 1A77     		strb	r2, [r3, #28]
 456:MAX30100_All.c ****             changed = 1;
 2854              		.loc 1 456 0
 2855 005c FB1D     		add	r3, r7, #7
 2856 005e 0122     		mov	r2, #1
 2857 0060 1A70     		strb	r2, [r3]
 2858 0062 1FE0     		b	.L187
 2859              	.L185:
 457:MAX30100_All.c ****         } else if (DCRemover_getDCW('r') - DCRemover_getDCW('i') > 70000 && pulseOximeter.redLedPow
 2860              		.loc 1 457 0
 2861 0064 7220     		mov	r0, #114
 2862 0066 FFF7FEFF 		bl	DCRemover_getDCW
 2863 006a 041C     		add	r4, r0, #0
 2864 006c 6920     		mov	r0, #105
 2865 006e FFF7FEFF 		bl	DCRemover_getDCW
 2866 0072 031C     		add	r3, r0, #0
 2867 0074 201C     		add	r0, r4, #0
 2868 0076 191C     		add	r1, r3, #0
 2869 0078 FFF7FEFF 		bl	__aeabi_fsub
 2870 007c 031C     		add	r3, r0, #0
 2871 007e 181C     		add	r0, r3, #0
 2872 0080 1649     		ldr	r1, .L192+4
 2873 0082 FFF7FEFF 		bl	__aeabi_fcmpgt
 2874 0086 031E     		sub	r3, r0, #0
 2875 0088 0CD0     		beq	.L187
 2876              		.loc 1 457 0 is_stmt 0 discriminator 1
 2877 008a 134B     		ldr	r3, .L192
 2878 008c 1B7F     		ldrb	r3, [r3, #28]
 2879 008e 002B     		cmp	r3, #0
 2880 0090 08D0     		beq	.L187
 458:MAX30100_All.c ****             --(pulseOximeter.redLedPower);
 2881              		.loc 1 458 0 is_stmt 1
 2882 0092 114B     		ldr	r3, .L192
 2883 0094 1B7F     		ldrb	r3, [r3, #28]
ARM GAS  C:\Users\Davit\AppData\Local\Temp\cc4XR0T4.s 			page 60


 2884 0096 013B     		sub	r3, r3, #1
 2885 0098 DAB2     		uxtb	r2, r3
 2886 009a 0F4B     		ldr	r3, .L192
 2887 009c 1A77     		strb	r2, [r3, #28]
 459:MAX30100_All.c ****             changed = 1;
 2888              		.loc 1 459 0
 2889 009e FB1D     		add	r3, r7, #7
 2890 00a0 0122     		mov	r2, #1
 2891 00a2 1A70     		strb	r2, [r3]
 2892              	.L187:
 460:MAX30100_All.c ****         }
 461:MAX30100_All.c **** 
 462:MAX30100_All.c ****         if (changed) {
 2893              		.loc 1 462 0
 2894 00a4 FB1D     		add	r3, r7, #7
 2895 00a6 1B78     		ldrb	r3, [r3]
 2896 00a8 002B     		cmp	r3, #0
 2897 00aa 0BD0     		beq	.L189
 463:MAX30100_All.c ****             MAX30100_setLedsCurrent(IR_LED_CURRENT, (LEDCurrent)pulseOximeter.redLedPower);
 2898              		.loc 1 463 0
 2899 00ac 0A4B     		ldr	r3, .L192
 2900 00ae 1B7F     		ldrb	r3, [r3, #28]
 2901 00b0 0F20     		mov	r0, #15
 2902 00b2 191C     		mov	r1, r3
 2903 00b4 FFF7FEFF 		bl	MAX30100_setLedsCurrent
 464:MAX30100_All.c ****             pulseOximeter.tsLastCurrentAdjustment = millis();
 2904              		.loc 1 464 0
 2905 00b8 FFF7FEFF 		bl	millis
 2906 00bc 031C     		mov	r3, r0
 2907 00be 1A1C     		mov	r2, r3
 2908 00c0 054B     		ldr	r3, .L192
 2909 00c2 5A61     		str	r2, [r3, #20]
 2910              	.L189:
 465:MAX30100_All.c ****         }
 466:MAX30100_All.c **** 
 467:MAX30100_All.c ****         pulseOximeter.tsLastBiasCheck = millis();
 2911              		.loc 1 467 0
 2912 00c4 FFF7FEFF 		bl	millis
 2913 00c8 031C     		mov	r3, r0
 2914 00ca 1A1C     		mov	r2, r3
 2915 00cc 024B     		ldr	r3, .L192
 2916 00ce 1A61     		str	r2, [r3, #16]
 2917              	.L183:
 2918              	.LBE7:
 468:MAX30100_All.c ****     }
 469:MAX30100_All.c **** }...
 2919              		.loc 1 469 0
 2920 00d0 BD46     		mov	sp, r7
 2921 00d2 03B0     		add	sp, sp, #12
 2922              		@ sp needed
 2923 00d4 90BD     		pop	{r4, r7, pc}
 2924              	.L193:
 2925 00d6 C046     		.align	2
 2926              	.L192:
 2927 00d8 00000000 		.word	pulseOximeter
 2928 00dc 00B88847 		.word	1200142336
 2929              		.cfi_endproc
ARM GAS  C:\Users\Davit\AppData\Local\Temp\cc4XR0T4.s 			page 61


 2930              	.LFE73:
 2931              		.size	PulseOximeter_checkCurrentBias, .-PulseOximeter_checkCurrentBias
 2932              		.text
 2933              	.Letext0:
 2934              		.file 2 "c:\\program files (x86)\\cypress\\psoc creator\\4.0\\psoc creator\\import\\gnu\\arm\\4.9.
 2935              		.file 3 "c:\\program files (x86)\\cypress\\psoc creator\\4.0\\psoc creator\\import\\gnu\\arm\\4.9.
 2936              		.file 4 "./MAX30100_Registers.h"
 2937              		.file 5 "Generated_Source\\PSoC4/cytypes.h"
 2938              		.file 6 "./MAX30100_All.h"
 2939              		.file 7 "Generated_Source\\PSoC4/BLE_1_Stack.h"
 2940              		.section	.debug_info,"",%progbits
 2941              	.Ldebug_info0:
 2942 0000 710D0000 		.4byte	0xd71
 2943 0004 0400     		.2byte	0x4
 2944 0006 00000000 		.4byte	.Ldebug_abbrev0
 2945 000a 04       		.byte	0x4
 2946 000b 01       		.uleb128 0x1
 2947 000c 620E0000 		.4byte	.LASF241
 2948 0010 01       		.byte	0x1
 2949 0011 D10A0000 		.4byte	.LASF242
 2950 0015 44050000 		.4byte	.LASF243
 2951 0019 00000000 		.4byte	.Ldebug_ranges0+0
 2952 001d 00000000 		.4byte	0
 2953 0021 00000000 		.4byte	.Ldebug_line0
 2954 0025 02       		.uleb128 0x2
 2955 0026 01       		.byte	0x1
 2956 0027 06       		.byte	0x6
 2957 0028 B2030000 		.4byte	.LASF0
 2958 002c 03       		.uleb128 0x3
 2959 002d 70020000 		.4byte	.LASF3
 2960 0031 02       		.byte	0x2
 2961 0032 1D       		.byte	0x1d
 2962 0033 37000000 		.4byte	0x37
 2963 0037 02       		.uleb128 0x2
 2964 0038 01       		.byte	0x1
 2965 0039 08       		.byte	0x8
 2966 003a 1E040000 		.4byte	.LASF1
 2967 003e 02       		.uleb128 0x2
 2968 003f 02       		.byte	0x2
 2969 0040 05       		.byte	0x5
 2970 0041 92100000 		.4byte	.LASF2
 2971 0045 03       		.uleb128 0x3
 2972 0046 0E060000 		.4byte	.LASF4
 2973 004a 02       		.byte	0x2
 2974 004b 2B       		.byte	0x2b
 2975 004c 50000000 		.4byte	0x50
 2976 0050 02       		.uleb128 0x2
 2977 0051 02       		.byte	0x2
 2978 0052 07       		.byte	0x7
 2979 0053 3B130000 		.4byte	.LASF5
 2980 0057 02       		.uleb128 0x2
 2981 0058 04       		.byte	0x4
 2982 0059 05       		.byte	0x5
 2983 005a F1020000 		.4byte	.LASF6
 2984 005e 03       		.uleb128 0x3
 2985 005f 2E0A0000 		.4byte	.LASF7
 2986 0063 02       		.byte	0x2
ARM GAS  C:\Users\Davit\AppData\Local\Temp\cc4XR0T4.s 			page 62


 2987 0064 41       		.byte	0x41
 2988 0065 69000000 		.4byte	0x69
 2989 0069 02       		.uleb128 0x2
 2990 006a 04       		.byte	0x4
 2991 006b 07       		.byte	0x7
 2992 006c 6D080000 		.4byte	.LASF8
 2993 0070 02       		.uleb128 0x2
 2994 0071 08       		.byte	0x8
 2995 0072 05       		.byte	0x5
 2996 0073 520A0000 		.4byte	.LASF9
 2997 0077 02       		.uleb128 0x2
 2998 0078 08       		.byte	0x8
 2999 0079 07       		.byte	0x7
 3000 007a 6B0D0000 		.4byte	.LASF10
 3001 007e 04       		.uleb128 0x4
 3002 007f 04       		.byte	0x4
 3003 0080 05       		.byte	0x5
 3004 0081 696E7400 		.ascii	"int\000"
 3005 0085 02       		.uleb128 0x2
 3006 0086 04       		.byte	0x4
 3007 0087 07       		.byte	0x7
 3008 0088 600B0000 		.4byte	.LASF11
 3009 008c 03       		.uleb128 0x3
 3010 008d BE030000 		.4byte	.LASF12
 3011 0091 03       		.byte	0x3
 3012 0092 15       		.byte	0x15
 3013 0093 2C000000 		.4byte	0x2c
 3014 0097 03       		.uleb128 0x3
 3015 0098 BC0D0000 		.4byte	.LASF13
 3016 009c 03       		.byte	0x3
 3017 009d 21       		.byte	0x21
 3018 009e 45000000 		.4byte	0x45
 3019 00a2 03       		.uleb128 0x3
 3020 00a3 AD120000 		.4byte	.LASF14
 3021 00a7 03       		.byte	0x3
 3022 00a8 2D       		.byte	0x2d
 3023 00a9 5E000000 		.4byte	0x5e
 3024 00ad 05       		.uleb128 0x5
 3025 00ae F00C0000 		.4byte	.LASF17
 3026 00b2 01       		.byte	0x1
 3027 00b3 04       		.byte	0x4
 3028 00b4 32       		.byte	0x32
 3029 00b5 C6000000 		.4byte	0xc6
 3030 00b9 06       		.uleb128 0x6
 3031 00ba E8110000 		.4byte	.LASF15
 3032 00be 02       		.sleb128 2
 3033 00bf 06       		.uleb128 0x6
 3034 00c0 75130000 		.4byte	.LASF16
 3035 00c4 03       		.sleb128 3
 3036 00c5 00       		.byte	0
 3037 00c6 03       		.uleb128 0x3
 3038 00c7 F00C0000 		.4byte	.LASF17
 3039 00cb 04       		.byte	0x4
 3040 00cc 35       		.byte	0x35
 3041 00cd AD000000 		.4byte	0xad
 3042 00d1 05       		.uleb128 0x5
 3043 00d2 FD110000 		.4byte	.LASF18
ARM GAS  C:\Users\Davit\AppData\Local\Temp\cc4XR0T4.s 			page 63


 3044 00d6 01       		.byte	0x1
 3045 00d7 04       		.byte	0x4
 3046 00d8 3C       		.byte	0x3c
 3047 00d9 0E010000 		.4byte	0x10e
 3048 00dd 06       		.uleb128 0x6
 3049 00de 38030000 		.4byte	.LASF19
 3050 00e2 00       		.sleb128 0
 3051 00e3 06       		.uleb128 0x6
 3052 00e4 C30B0000 		.4byte	.LASF20
 3053 00e8 01       		.sleb128 1
 3054 00e9 06       		.uleb128 0x6
 3055 00ea A0000000 		.4byte	.LASF21
 3056 00ee 02       		.sleb128 2
 3057 00ef 06       		.uleb128 0x6
 3058 00f0 E5080000 		.4byte	.LASF22
 3059 00f4 03       		.sleb128 3
 3060 00f5 06       		.uleb128 0x6
 3061 00f6 7A020000 		.4byte	.LASF23
 3062 00fa 04       		.sleb128 4
 3063 00fb 06       		.uleb128 0x6
 3064 00fc 37140000 		.4byte	.LASF24
 3065 0100 05       		.sleb128 5
 3066 0101 06       		.uleb128 0x6
 3067 0102 600A0000 		.4byte	.LASF25
 3068 0106 06       		.sleb128 6
 3069 0107 06       		.uleb128 0x6
 3070 0108 F5050000 		.4byte	.LASF26
 3071 010c 07       		.sleb128 7
 3072 010d 00       		.byte	0
 3073 010e 03       		.uleb128 0x3
 3074 010f FD110000 		.4byte	.LASF18
 3075 0113 04       		.byte	0x4
 3076 0114 45       		.byte	0x45
 3077 0115 D1000000 		.4byte	0xd1
 3078 0119 05       		.uleb128 0x5
 3079 011a F80F0000 		.4byte	.LASF27
 3080 011e 01       		.byte	0x1
 3081 011f 04       		.byte	0x4
 3082 0120 47       		.byte	0x47
 3083 0121 3E010000 		.4byte	0x13e
 3084 0125 06       		.uleb128 0x6
 3085 0126 450F0000 		.4byte	.LASF28
 3086 012a 00       		.sleb128 0
 3087 012b 06       		.uleb128 0x6
 3088 012c A9090000 		.4byte	.LASF29
 3089 0130 01       		.sleb128 1
 3090 0131 06       		.uleb128 0x6
 3091 0132 370E0000 		.4byte	.LASF30
 3092 0136 02       		.sleb128 2
 3093 0137 06       		.uleb128 0x6
 3094 0138 EC000000 		.4byte	.LASF31
 3095 013c 03       		.sleb128 3
 3096 013d 00       		.byte	0
 3097 013e 03       		.uleb128 0x3
 3098 013f F80F0000 		.4byte	.LASF27
 3099 0143 04       		.byte	0x4
 3100 0144 4C       		.byte	0x4c
ARM GAS  C:\Users\Davit\AppData\Local\Temp\cc4XR0T4.s 			page 64


 3101 0145 19010000 		.4byte	0x119
 3102 0149 05       		.uleb128 0x5
 3103 014a 24000000 		.4byte	.LASF32
 3104 014e 01       		.byte	0x1
 3105 014f 04       		.byte	0x4
 3106 0150 50       		.byte	0x50
 3107 0151 B6010000 		.4byte	0x1b6
 3108 0155 06       		.uleb128 0x6
 3109 0156 CF140000 		.4byte	.LASF33
 3110 015a 00       		.sleb128 0
 3111 015b 06       		.uleb128 0x6
 3112 015c F7130000 		.4byte	.LASF34
 3113 0160 01       		.sleb128 1
 3114 0161 06       		.uleb128 0x6
 3115 0162 B6120000 		.4byte	.LASF35
 3116 0166 02       		.sleb128 2
 3117 0167 06       		.uleb128 0x6
 3118 0168 A10F0000 		.4byte	.LASF36
 3119 016c 03       		.sleb128 3
 3120 016d 06       		.uleb128 0x6
 3121 016e 0B090000 		.4byte	.LASF37
 3122 0172 04       		.sleb128 4
 3123 0173 06       		.uleb128 0x6
 3124 0174 CC070000 		.4byte	.LASF38
 3125 0178 05       		.sleb128 5
 3126 0179 06       		.uleb128 0x6
 3127 017a 62120000 		.4byte	.LASF39
 3128 017e 06       		.sleb128 6
 3129 017f 06       		.uleb128 0x6
 3130 0180 20120000 		.4byte	.LASF40
 3131 0184 07       		.sleb128 7
 3132 0185 06       		.uleb128 0x6
 3133 0186 E5070000 		.4byte	.LASF41
 3134 018a 08       		.sleb128 8
 3135 018b 06       		.uleb128 0x6
 3136 018c A9010000 		.4byte	.LASF42
 3137 0190 09       		.sleb128 9
 3138 0191 06       		.uleb128 0x6
 3139 0192 B8000000 		.4byte	.LASF43
 3140 0196 0A       		.sleb128 10
 3141 0197 06       		.uleb128 0x6
 3142 0198 E5140000 		.4byte	.LASF44
 3143 019c 0B       		.sleb128 11
 3144 019d 06       		.uleb128 0x6
 3145 019e 4A040000 		.4byte	.LASF45
 3146 01a2 0C       		.sleb128 12
 3147 01a3 06       		.uleb128 0x6
 3148 01a4 8C0B0000 		.4byte	.LASF46
 3149 01a8 0D       		.sleb128 13
 3150 01a9 06       		.uleb128 0x6
 3151 01aa 780A0000 		.4byte	.LASF47
 3152 01ae 0E       		.sleb128 14
 3153 01af 06       		.uleb128 0x6
 3154 01b0 AC0B0000 		.4byte	.LASF48
 3155 01b4 0F       		.sleb128 15
 3156 01b5 00       		.byte	0
 3157 01b6 03       		.uleb128 0x3
ARM GAS  C:\Users\Davit\AppData\Local\Temp\cc4XR0T4.s 			page 65


 3158 01b7 24000000 		.4byte	.LASF32
 3159 01bb 04       		.byte	0x4
 3160 01bc 61       		.byte	0x61
 3161 01bd 49010000 		.4byte	0x149
 3162 01c1 02       		.uleb128 0x2
 3163 01c2 04       		.byte	0x4
 3164 01c3 07       		.byte	0x7
 3165 01c4 1B000000 		.4byte	.LASF49
 3166 01c8 02       		.uleb128 0x2
 3167 01c9 01       		.byte	0x1
 3168 01ca 08       		.byte	0x8
 3169 01cb 3F050000 		.4byte	.LASF50
 3170 01cf 02       		.uleb128 0x2
 3171 01d0 08       		.byte	0x8
 3172 01d1 04       		.byte	0x4
 3173 01d2 A00A0000 		.4byte	.LASF51
 3174 01d6 02       		.uleb128 0x2
 3175 01d7 04       		.byte	0x4
 3176 01d8 04       		.byte	0x4
 3177 01d9 FA0A0000 		.4byte	.LASF52
 3178 01dd 02       		.uleb128 0x2
 3179 01de 08       		.byte	0x8
 3180 01df 04       		.byte	0x4
 3181 01e0 A30C0000 		.4byte	.LASF53
 3182 01e4 07       		.uleb128 0x7
 3183 01e5 3D100000 		.4byte	.LASF54
 3184 01e9 05       		.byte	0x5
 3185 01ea 9801     		.2byte	0x198
 3186 01ec 37000000 		.4byte	0x37
 3187 01f0 07       		.uleb128 0x7
 3188 01f1 C8140000 		.4byte	.LASF55
 3189 01f5 05       		.byte	0x5
 3190 01f6 9901     		.2byte	0x199
 3191 01f8 50000000 		.4byte	0x50
 3192 01fc 07       		.uleb128 0x7
 3193 01fd EA020000 		.4byte	.LASF56
 3194 0201 05       		.byte	0x5
 3195 0202 A401     		.2byte	0x1a4
 3196 0204 77000000 		.4byte	0x77
 3197 0208 08       		.uleb128 0x8
 3198 0209 01       		.byte	0x1
 3199 020a 07       		.byte	0x7
 3200 020b 4201     		.2byte	0x142
 3201 020d C5030000 		.4byte	0x3c5
 3202 0211 06       		.uleb128 0x6
 3203 0212 BD050000 		.4byte	.LASF57
 3204 0216 00       		.sleb128 0
 3205 0217 06       		.uleb128 0x6
 3206 0218 25030000 		.4byte	.LASF58
 3207 021c 01       		.sleb128 1
 3208 021d 06       		.uleb128 0x6
 3209 021e 820D0000 		.4byte	.LASF59
 3210 0222 02       		.sleb128 2
 3211 0223 06       		.uleb128 0x6
 3212 0224 CE030000 		.4byte	.LASF60
 3213 0228 03       		.sleb128 3
 3214 0229 06       		.uleb128 0x6
ARM GAS  C:\Users\Davit\AppData\Local\Temp\cc4XR0T4.s 			page 66


 3215 022a A0130000 		.4byte	.LASF61
 3216 022e 04       		.sleb128 4
 3217 022f 06       		.uleb128 0x6
 3218 0230 24090000 		.4byte	.LASF62
 3219 0234 05       		.sleb128 5
 3220 0235 06       		.uleb128 0x6
 3221 0236 AF0C0000 		.4byte	.LASF63
 3222 023a 06       		.sleb128 6
 3223 023b 06       		.uleb128 0x6
 3224 023c 69110000 		.4byte	.LASF64
 3225 0240 20       		.sleb128 32
 3226 0241 06       		.uleb128 0x6
 3227 0242 FC010000 		.4byte	.LASF65
 3228 0246 21       		.sleb128 33
 3229 0247 06       		.uleb128 0x6
 3230 0248 C6090000 		.4byte	.LASF66
 3231 024c 22       		.sleb128 34
 3232 024d 06       		.uleb128 0x6
 3233 024e 3D0C0000 		.4byte	.LASF67
 3234 0252 23       		.sleb128 35
 3235 0253 06       		.uleb128 0x6
 3236 0254 FE070000 		.4byte	.LASF68
 3237 0258 24       		.sleb128 36
 3238 0259 06       		.uleb128 0x6
 3239 025a 1A080000 		.4byte	.LASF69
 3240 025e 25       		.sleb128 37
 3241 025f 06       		.uleb128 0x6
 3242 0260 06100000 		.4byte	.LASF70
 3243 0264 26       		.sleb128 38
 3244 0265 06       		.uleb128 0x6
 3245 0266 20050000 		.4byte	.LASF71
 3246 026a 27       		.sleb128 39
 3247 026b 06       		.uleb128 0x6
 3248 026c 4F140000 		.4byte	.LASF72
 3249 0270 28       		.sleb128 40
 3250 0271 06       		.uleb128 0x6
 3251 0272 F50C0000 		.4byte	.LASF73
 3252 0276 29       		.sleb128 41
 3253 0277 06       		.uleb128 0x6
 3254 0278 40090000 		.4byte	.LASF74
 3255 027c 2A       		.sleb128 42
 3256 027d 06       		.uleb128 0x6
 3257 027e 040C0000 		.4byte	.LASF75
 3258 0282 2B       		.sleb128 43
 3259 0283 06       		.uleb128 0x6
 3260 0284 CE120000 		.4byte	.LASF76
 3261 0288 2C       		.sleb128 44
 3262 0289 06       		.uleb128 0x6
 3263 028a 77000000 		.4byte	.LASF77
 3264 028e 2D       		.sleb128 45
 3265 028f 06       		.uleb128 0x6
 3266 0290 5B100000 		.4byte	.LASF78
 3267 0294 2E       		.sleb128 46
 3268 0295 06       		.uleb128 0x6
 3269 0296 31020000 		.4byte	.LASF79
 3270 029a 2F       		.sleb128 47
 3271 029b 06       		.uleb128 0x6
ARM GAS  C:\Users\Davit\AppData\Local\Temp\cc4XR0T4.s 			page 67


 3272 029c 940D0000 		.4byte	.LASF80
 3273 02a0 30       		.sleb128 48
 3274 02a1 06       		.uleb128 0x6
 3275 02a2 21010000 		.4byte	.LASF81
 3276 02a6 31       		.sleb128 49
 3277 02a7 06       		.uleb128 0x6
 3278 02a8 D4050000 		.4byte	.LASF82
 3279 02ac 32       		.sleb128 50
 3280 02ad 06       		.uleb128 0x6
 3281 02ae 63040000 		.4byte	.LASF83
 3282 02b2 33       		.sleb128 51
 3283 02b3 06       		.uleb128 0x6
 3284 02b4 03110000 		.4byte	.LASF84
 3285 02b8 C000     		.sleb128 64
 3286 02ba 06       		.uleb128 0x6
 3287 02bb D1000000 		.4byte	.LASF85
 3288 02bf C100     		.sleb128 65
 3289 02c1 06       		.uleb128 0x6
 3290 02c2 B5130000 		.4byte	.LASF86
 3291 02c6 C200     		.sleb128 66
 3292 02c8 06       		.uleb128 0x6
 3293 02c9 170D0000 		.4byte	.LASF87
 3294 02cd C300     		.sleb128 67
 3295 02cf 06       		.uleb128 0x6
 3296 02d0 2C040000 		.4byte	.LASF88
 3297 02d4 C400     		.sleb128 68
 3298 02d6 06       		.uleb128 0x6
 3299 02d7 F7030000 		.4byte	.LASF89
 3300 02db C500     		.sleb128 69
 3301 02dd 06       		.uleb128 0x6
 3302 02de 800F0000 		.4byte	.LASF90
 3303 02e2 C600     		.sleb128 70
 3304 02e4 06       		.uleb128 0x6
 3305 02e5 620F0000 		.4byte	.LASF91
 3306 02e9 C700     		.sleb128 71
 3307 02eb 06       		.uleb128 0x6
 3308 02ec F9040000 		.4byte	.LASF92
 3309 02f0 C800     		.sleb128 72
 3310 02f2 06       		.uleb128 0x6
 3311 02f3 630C0000 		.4byte	.LASF93
 3312 02f7 C900     		.sleb128 73
 3313 02f9 06       		.uleb128 0x6
 3314 02fa 19060000 		.4byte	.LASF94
 3315 02fe CA00     		.sleb128 74
 3316 0300 06       		.uleb128 0x6
 3317 0301 95050000 		.4byte	.LASF95
 3318 0305 CB00     		.sleb128 75
 3319 0307 06       		.uleb128 0x6
 3320 0308 230C0000 		.4byte	.LASF96
 3321 030c CC00     		.sleb128 76
 3322 030e 06       		.uleb128 0x6
 3323 030f B80F0000 		.4byte	.LASF97
 3324 0313 CD00     		.sleb128 77
 3325 0315 06       		.uleb128 0x6
 3326 0316 B7020000 		.4byte	.LASF98
 3327 031a CE00     		.sleb128 78
 3328 031c 06       		.uleb128 0x6
ARM GAS  C:\Users\Davit\AppData\Local\Temp\cc4XR0T4.s 			page 68


 3329 031d 6D0B0000 		.4byte	.LASF99
 3330 0321 CF00     		.sleb128 79
 3331 0323 06       		.uleb128 0x6
 3332 0324 4A110000 		.4byte	.LASF100
 3333 0328 D000     		.sleb128 80
 3334 032a 06       		.uleb128 0x6
 3335 032b 57060000 		.4byte	.LASF101
 3336 032f D100     		.sleb128 81
 3337 0331 06       		.uleb128 0x6
 3338 0332 DB010000 		.4byte	.LASF102
 3339 0336 D200     		.sleb128 82
 3340 0338 06       		.uleb128 0x6
 3341 0339 7B120000 		.4byte	.LASF103
 3342 033d D300     		.sleb128 83
 3343 033f 06       		.uleb128 0x6
 3344 0340 71140000 		.4byte	.LASF104
 3345 0344 D400     		.sleb128 84
 3346 0346 06       		.uleb128 0x6
 3347 0347 4B010000 		.4byte	.LASF105
 3348 034b D500     		.sleb128 85
 3349 034d 06       		.uleb128 0x6
 3350 034e 83060000 		.4byte	.LASF106
 3351 0352 D600     		.sleb128 86
 3352 0354 06       		.uleb128 0x6
 3353 0355 0A0B0000 		.4byte	.LASF107
 3354 0359 D700     		.sleb128 87
 3355 035b 06       		.uleb128 0x6
 3356 035c 0F140000 		.4byte	.LASF108
 3357 0360 D800     		.sleb128 88
 3358 0362 06       		.uleb128 0x6
 3359 0363 0A130000 		.4byte	.LASF109
 3360 0367 F000     		.sleb128 112
 3361 0369 06       		.uleb128 0x6
 3362 036a A6070000 		.4byte	.LASF110
 3363 036e F100     		.sleb128 113
 3364 0370 06       		.uleb128 0x6
 3365 0371 88030000 		.4byte	.LASF111
 3366 0375 F200     		.sleb128 114
 3367 0377 06       		.uleb128 0x6
 3368 0378 2C110000 		.4byte	.LASF112
 3369 037c F300     		.sleb128 115
 3370 037e 06       		.uleb128 0x6
 3371 037f 7C0C0000 		.4byte	.LASF113
 3372 0383 F400     		.sleb128 116
 3373 0385 06       		.uleb128 0x6
 3374 0386 88090000 		.4byte	.LASF114
 3375 038a F500     		.sleb128 117
 3376 038c 06       		.uleb128 0x6
 3377 038d D8040000 		.4byte	.LASF115
 3378 0391 F600     		.sleb128 118
 3379 0393 06       		.uleb128 0x6
 3380 0394 DD0D0000 		.4byte	.LASF116
 3381 0398 F700     		.sleb128 119
 3382 039a 06       		.uleb128 0x6
 3383 039b 6F010000 		.4byte	.LASF117
 3384 039f F800     		.sleb128 120
 3385 03a1 06       		.uleb128 0x6
ARM GAS  C:\Users\Davit\AppData\Local\Temp\cc4XR0T4.s 			page 69


 3386 03a2 8A040000 		.4byte	.LASF118
 3387 03a6 F900     		.sleb128 121
 3388 03a8 06       		.uleb128 0x6
 3389 03a9 D3130000 		.4byte	.LASF119
 3390 03ad FA00     		.sleb128 122
 3391 03af 06       		.uleb128 0x6
 3392 03b0 B30A0000 		.4byte	.LASF120
 3393 03b4 FA01     		.sleb128 250
 3394 03b6 06       		.uleb128 0x6
 3395 03b7 43120000 		.4byte	.LASF121
 3396 03bb FB01     		.sleb128 251
 3397 03bd 06       		.uleb128 0x6
 3398 03be F60B0000 		.4byte	.LASF122
 3399 03c2 FF01     		.sleb128 255
 3400 03c4 00       		.byte	0
 3401 03c5 05       		.uleb128 0x5
 3402 03c6 5B080000 		.4byte	.LASF123
 3403 03ca 01       		.byte	0x1
 3404 03cb 06       		.byte	0x6
 3405 03cc 16       		.byte	0x16
 3406 03cd F0030000 		.4byte	0x3f0
 3407 03d1 06       		.uleb128 0x6
 3408 03d2 5F000000 		.4byte	.LASF124
 3409 03d6 00       		.sleb128 0
 3410 03d7 06       		.uleb128 0x6
 3411 03d8 F00E0000 		.4byte	.LASF125
 3412 03dc 01       		.sleb128 1
 3413 03dd 06       		.uleb128 0x6
 3414 03de 18070000 		.4byte	.LASF126
 3415 03e2 02       		.sleb128 2
 3416 03e3 06       		.uleb128 0x6
 3417 03e4 92140000 		.4byte	.LASF127
 3418 03e8 03       		.sleb128 3
 3419 03e9 06       		.uleb128 0x6
 3420 03ea E8100000 		.4byte	.LASF128
 3421 03ee 04       		.sleb128 4
 3422 03ef 00       		.byte	0
 3423 03f0 03       		.uleb128 0x3
 3424 03f1 5B080000 		.4byte	.LASF123
 3425 03f5 06       		.byte	0x6
 3426 03f6 1C       		.byte	0x1c
 3427 03f7 C5030000 		.4byte	0x3c5
 3428 03fb 09       		.uleb128 0x9
 3429 03fc 0B0F0000 		.4byte	.LASF134
 3430 0400 14       		.byte	0x14
 3431 0401 06       		.byte	0x6
 3432 0402 1E       		.byte	0x1e
 3433 0403 44040000 		.4byte	0x444
 3434 0407 0A       		.uleb128 0xa
 3435 0408 45010000 		.4byte	.LASF129
 3436 040c 06       		.byte	0x6
 3437 040d 1F       		.byte	0x1f
 3438 040e F0030000 		.4byte	0x3f0
 3439 0412 00       		.byte	0
 3440 0413 0A       		.uleb128 0xa
 3441 0414 330B0000 		.4byte	.LASF130
 3442 0418 06       		.byte	0x6
ARM GAS  C:\Users\Davit\AppData\Local\Temp\cc4XR0T4.s 			page 70


 3443 0419 20       		.byte	0x20
 3444 041a D6010000 		.4byte	0x1d6
 3445 041e 04       		.byte	0x4
 3446 041f 0A       		.uleb128 0xa
 3447 0420 CE100000 		.4byte	.LASF131
 3448 0424 06       		.byte	0x6
 3449 0425 21       		.byte	0x21
 3450 0426 D6010000 		.4byte	0x1d6
 3451 042a 08       		.byte	0x8
 3452 042b 0A       		.uleb128 0xa
 3453 042c D00D0000 		.4byte	.LASF132
 3454 0430 06       		.byte	0x6
 3455 0431 22       		.byte	0x22
 3456 0432 D6010000 		.4byte	0x1d6
 3457 0436 0C       		.byte	0xc
 3458 0437 0A       		.uleb128 0xa
 3459 0438 C50D0000 		.4byte	.LASF133
 3460 043c 06       		.byte	0x6
 3461 043d 23       		.byte	0x23
 3462 043e A2000000 		.4byte	0xa2
 3463 0442 10       		.byte	0x10
 3464 0443 00       		.byte	0
 3465 0444 03       		.uleb128 0x3
 3466 0445 0B0F0000 		.4byte	.LASF134
 3467 0449 06       		.byte	0x6
 3468 044a 24       		.byte	0x24
 3469 044b FB030000 		.4byte	0x3fb
 3470 044f 09       		.uleb128 0x9
 3471 0450 1D110000 		.4byte	.LASF135
 3472 0454 04       		.byte	0x4
 3473 0455 06       		.byte	0x6
 3474 0456 3B       		.byte	0x3b
 3475 0457 74040000 		.4byte	0x474
 3476 045b 0A       		.uleb128 0xa
 3477 045c 94070000 		.4byte	.LASF136
 3478 0460 06       		.byte	0x6
 3479 0461 3C       		.byte	0x3c
 3480 0462 97000000 		.4byte	0x97
 3481 0466 00       		.byte	0
 3482 0467 0A       		.uleb128 0xa
 3483 0468 9C100000 		.4byte	.LASF137
 3484 046c 06       		.byte	0x6
 3485 046d 3D       		.byte	0x3d
 3486 046e 97000000 		.4byte	0x97
 3487 0472 02       		.byte	0x2
 3488 0473 00       		.byte	0
 3489 0474 03       		.uleb128 0x3
 3490 0475 1D110000 		.4byte	.LASF135
 3491 0479 06       		.byte	0x6
 3492 047a 3E       		.byte	0x3e
 3493 047b 4F040000 		.4byte	0x44f
 3494 047f 09       		.uleb128 0x9
 3495 0480 48060000 		.4byte	.LASF138
 3496 0484 40       		.byte	0x40
 3497 0485 06       		.byte	0x6
 3498 0486 51       		.byte	0x51
 3499 0487 D4040000 		.4byte	0x4d4
ARM GAS  C:\Users\Davit\AppData\Local\Temp\cc4XR0T4.s 			page 71


 3500 048b 0A       		.uleb128 0xa
 3501 048c C6030000 		.4byte	.LASF139
 3502 0490 06       		.byte	0x6
 3503 0491 52       		.byte	0x52
 3504 0492 D4040000 		.4byte	0x4d4
 3505 0496 00       		.byte	0
 3506 0497 0A       		.uleb128 0xa
 3507 0498 910A0000 		.4byte	.LASF140
 3508 049c 06       		.byte	0x6
 3509 049d 54       		.byte	0x54
 3510 049e D6010000 		.4byte	0x1d6
 3511 04a2 2C       		.byte	0x2c
 3512 04a3 0A       		.uleb128 0xa
 3513 04a4 78090000 		.4byte	.LASF141
 3514 04a8 06       		.byte	0x6
 3515 04a9 55       		.byte	0x55
 3516 04aa D6010000 		.4byte	0x1d6
 3517 04ae 30       		.byte	0x30
 3518 04af 0A       		.uleb128 0xa
 3519 04b0 83070000 		.4byte	.LASF142
 3520 04b4 06       		.byte	0x6
 3521 04b5 56       		.byte	0x56
 3522 04b6 8C000000 		.4byte	0x8c
 3523 04ba 34       		.byte	0x34
 3524 04bb 0A       		.uleb128 0xa
 3525 04bc E7030000 		.4byte	.LASF143
 3526 04c0 06       		.byte	0x6
 3527 04c1 57       		.byte	0x57
 3528 04c2 A2000000 		.4byte	0xa2
 3529 04c6 38       		.byte	0x38
 3530 04c7 0A       		.uleb128 0xa
 3531 04c8 120D0000 		.4byte	.LASF144
 3532 04cc 06       		.byte	0x6
 3533 04cd 58       		.byte	0x58
 3534 04ce 8C000000 		.4byte	0x8c
 3535 04d2 3C       		.byte	0x3c
 3536 04d3 00       		.byte	0
 3537 04d4 0B       		.uleb128 0xb
 3538 04d5 8C000000 		.4byte	0x8c
 3539 04d9 E4040000 		.4byte	0x4e4
 3540 04dd 0C       		.uleb128 0xc
 3541 04de C1010000 		.4byte	0x1c1
 3542 04e2 2A       		.byte	0x2a
 3543 04e3 00       		.byte	0
 3544 04e4 03       		.uleb128 0x3
 3545 04e5 48060000 		.4byte	.LASF138
 3546 04e9 06       		.byte	0x6
 3547 04ea 59       		.byte	0x59
 3548 04eb 7F040000 		.4byte	0x47f
 3549 04ef 09       		.uleb128 0x9
 3550 04f0 7E030000 		.4byte	.LASF145
 3551 04f4 08       		.byte	0x8
 3552 04f5 06       		.byte	0x6
 3553 04f6 63       		.byte	0x63
 3554 04f7 14050000 		.4byte	0x514
 3555 04fb 0A       		.uleb128 0xa
 3556 04fc 92020000 		.4byte	.LASF146
ARM GAS  C:\Users\Davit\AppData\Local\Temp\cc4XR0T4.s 			page 72


 3557 0500 06       		.byte	0x6
 3558 0501 64       		.byte	0x64
 3559 0502 D6010000 		.4byte	0x1d6
 3560 0506 00       		.byte	0
 3561 0507 0D       		.uleb128 0xd
 3562 0508 64637700 		.ascii	"dcw\000"
 3563 050c 06       		.byte	0x6
 3564 050d 65       		.byte	0x65
 3565 050e D6010000 		.4byte	0x1d6
 3566 0512 04       		.byte	0x4
 3567 0513 00       		.byte	0
 3568 0514 03       		.uleb128 0x3
 3569 0515 7E030000 		.4byte	.LASF145
 3570 0519 06       		.byte	0x6
 3571 051a 66       		.byte	0x66
 3572 051b EF040000 		.4byte	0x4ef
 3573 051f 09       		.uleb128 0x9
 3574 0520 FC0D0000 		.4byte	.LASF147
 3575 0524 08       		.byte	0x8
 3576 0525 06       		.byte	0x6
 3577 0526 6E       		.byte	0x6e
 3578 0527 36050000 		.4byte	0x536
 3579 052b 0D       		.uleb128 0xd
 3580 052c 7600     		.ascii	"v\000"
 3581 052e 06       		.byte	0x6
 3582 052f 6F       		.byte	0x6f
 3583 0530 36050000 		.4byte	0x536
 3584 0534 00       		.byte	0
 3585 0535 00       		.byte	0
 3586 0536 0B       		.uleb128 0xb
 3587 0537 D6010000 		.4byte	0x1d6
 3588 053b 46050000 		.4byte	0x546
 3589 053f 0C       		.uleb128 0xc
 3590 0540 C1010000 		.4byte	0x1c1
 3591 0544 01       		.byte	0x1
 3592 0545 00       		.byte	0
 3593 0546 03       		.uleb128 0x3
 3594 0547 FC0D0000 		.4byte	.LASF147
 3595 054b 06       		.byte	0x6
 3596 054c 70       		.byte	0x70
 3597 054d 1F050000 		.4byte	0x51f
 3598 0551 05       		.uleb128 0x5
 3599 0552 98020000 		.4byte	.LASF148
 3600 0556 01       		.byte	0x1
 3601 0557 06       		.byte	0x6
 3602 0558 7E       		.byte	0x7e
 3603 0559 70050000 		.4byte	0x570
 3604 055d 06       		.uleb128 0x6
 3605 055e 93080000 		.4byte	.LASF149
 3606 0562 00       		.sleb128 0
 3607 0563 06       		.uleb128 0x6
 3608 0564 390A0000 		.4byte	.LASF150
 3609 0568 01       		.sleb128 1
 3610 0569 06       		.uleb128 0x6
 3611 056a 13020000 		.4byte	.LASF151
 3612 056e 02       		.sleb128 2
 3613 056f 00       		.byte	0
ARM GAS  C:\Users\Davit\AppData\Local\Temp\cc4XR0T4.s 			page 73


 3614 0570 03       		.uleb128 0x3
 3615 0571 98020000 		.4byte	.LASF148
 3616 0575 06       		.byte	0x6
 3617 0576 82       		.byte	0x82
 3618 0577 51050000 		.4byte	0x551
 3619 057b 05       		.uleb128 0x5
 3620 057c 00000000 		.4byte	.LASF152
 3621 0580 01       		.byte	0x1
 3622 0581 06       		.byte	0x6
 3623 0582 84       		.byte	0x84
 3624 0583 A0050000 		.4byte	0x5a0
 3625 0587 06       		.uleb128 0x6
 3626 0588 EA090000 		.4byte	.LASF153
 3627 058c 00       		.sleb128 0
 3628 058d 06       		.uleb128 0x6
 3629 058e 4E130000 		.4byte	.LASF154
 3630 0592 01       		.sleb128 1
 3631 0593 06       		.uleb128 0x6
 3632 0594 A8100000 		.4byte	.LASF155
 3633 0598 02       		.sleb128 2
 3634 0599 06       		.uleb128 0x6
 3635 059a 2F000000 		.4byte	.LASF156
 3636 059e 03       		.sleb128 3
 3637 059f 00       		.byte	0
 3638 05a0 03       		.uleb128 0x3
 3639 05a1 00000000 		.4byte	.LASF152
 3640 05a5 06       		.byte	0x6
 3641 05a6 89       		.byte	0x89
 3642 05a7 7B050000 		.4byte	0x57b
 3643 05ab 09       		.uleb128 0x9
 3644 05ac D20F0000 		.4byte	.LASF157
 3645 05b0 40       		.byte	0x40
 3646 05b1 06       		.byte	0x6
 3647 05b2 8B       		.byte	0x8b
 3648 05b3 78060000 		.4byte	0x678
 3649 05b7 0A       		.uleb128 0xa
 3650 05b8 45010000 		.4byte	.LASF129
 3651 05bc 06       		.byte	0x6
 3652 05bd 8C       		.byte	0x8c
 3653 05be 70050000 		.4byte	0x570
 3654 05c2 00       		.byte	0
 3655 05c3 0A       		.uleb128 0xa
 3656 05c4 FD080000 		.4byte	.LASF158
 3657 05c8 06       		.byte	0x6
 3658 05c9 8D       		.byte	0x8d
 3659 05ca A0050000 		.4byte	0x5a0
 3660 05ce 01       		.byte	0x1
 3661 05cf 0A       		.uleb128 0xa
 3662 05d0 310F0000 		.4byte	.LASF159
 3663 05d4 06       		.byte	0x6
 3664 05d5 8E       		.byte	0x8e
 3665 05d6 A2000000 		.4byte	0xa2
 3666 05da 04       		.byte	0x4
 3667 05db 0A       		.uleb128 0xa
 3668 05dc 8D110000 		.4byte	.LASF160
 3669 05e0 06       		.byte	0x6
 3670 05e1 8F       		.byte	0x8f
ARM GAS  C:\Users\Davit\AppData\Local\Temp\cc4XR0T4.s 			page 74


 3671 05e2 A2000000 		.4byte	0xa2
 3672 05e6 08       		.byte	0x8
 3673 05e7 0A       		.uleb128 0xa
 3674 05e8 210A0000 		.4byte	.LASF161
 3675 05ec 06       		.byte	0x6
 3676 05ed 90       		.byte	0x90
 3677 05ee A2000000 		.4byte	0xa2
 3678 05f2 0C       		.byte	0xc
 3679 05f3 0A       		.uleb128 0xa
 3680 05f4 AD040000 		.4byte	.LASF162
 3681 05f8 06       		.byte	0x6
 3682 05f9 91       		.byte	0x91
 3683 05fa A2000000 		.4byte	0xa2
 3684 05fe 10       		.byte	0x10
 3685 05ff 0A       		.uleb128 0xa
 3686 0600 43100000 		.4byte	.LASF163
 3687 0604 06       		.byte	0x6
 3688 0605 92       		.byte	0x92
 3689 0606 A2000000 		.4byte	0xa2
 3690 060a 14       		.byte	0x14
 3691 060b 0A       		.uleb128 0xa
 3692 060c 5A020000 		.4byte	.LASF164
 3693 0610 06       		.byte	0x6
 3694 0611 93       		.byte	0x93
 3695 0612 A2000000 		.4byte	0xa2
 3696 0616 18       		.byte	0x18
 3697 0617 0A       		.uleb128 0xa
 3698 0618 AB020000 		.4byte	.LASF165
 3699 061c 06       		.byte	0x6
 3700 061d 94       		.byte	0x94
 3701 061e 8C000000 		.4byte	0x8c
 3702 0622 1C       		.byte	0x1c
 3703 0623 0A       		.uleb128 0xa
 3704 0624 0A010000 		.4byte	.LASF166
 3705 0628 06       		.byte	0x6
 3706 0629 96       		.byte	0x96
 3707 062a 78060000 		.4byte	0x678
 3708 062e 20       		.byte	0x20
 3709 062f 0A       		.uleb128 0xa
 3710 0630 A70A0000 		.4byte	.LASF167
 3711 0634 06       		.byte	0x6
 3712 0635 97       		.byte	0x97
 3713 0636 7E060000 		.4byte	0x67e
 3714 063a 24       		.byte	0x24
 3715 063b 0A       		.uleb128 0xa
 3716 063c 3D0B0000 		.4byte	.LASF168
 3717 0640 06       		.byte	0x6
 3718 0641 98       		.byte	0x98
 3719 0642 7E060000 		.4byte	0x67e
 3720 0646 28       		.byte	0x28
 3721 0647 0D       		.uleb128 0xd
 3722 0648 6C706600 		.ascii	"lpf\000"
 3723 064c 06       		.byte	0x6
 3724 064d 99       		.byte	0x99
 3725 064e 84060000 		.4byte	0x684
 3726 0652 2C       		.byte	0x2c
 3727 0653 0A       		.uleb128 0xa
ARM GAS  C:\Users\Davit\AppData\Local\Temp\cc4XR0T4.s 			page 75


 3728 0654 A5060000 		.4byte	.LASF169
 3729 0658 06       		.byte	0x6
 3730 0659 9A       		.byte	0x9a
 3731 065a 8A060000 		.4byte	0x68a
 3732 065e 30       		.byte	0x30
 3733 065f 0D       		.uleb128 0xd
 3734 0660 68726D00 		.ascii	"hrm\000"
 3735 0664 06       		.byte	0x6
 3736 0665 9B       		.byte	0x9b
 3737 0666 90060000 		.4byte	0x690
 3738 066a 34       		.byte	0x34
 3739 066b 0A       		.uleb128 0xa
 3740 066c EA0F0000 		.4byte	.LASF170
 3741 0670 06       		.byte	0x6
 3742 0671 9F       		.byte	0x9f
 3743 0672 FC010000 		.4byte	0x1fc
 3744 0676 38       		.byte	0x38
 3745 0677 00       		.byte	0
 3746 0678 0E       		.uleb128 0xe
 3747 0679 04       		.byte	0x4
 3748 067a 44040000 		.4byte	0x444
 3749 067e 0E       		.uleb128 0xe
 3750 067f 04       		.byte	0x4
 3751 0680 14050000 		.4byte	0x514
 3752 0684 0E       		.uleb128 0xe
 3753 0685 04       		.byte	0x4
 3754 0686 46050000 		.4byte	0x546
 3755 068a 0E       		.uleb128 0xe
 3756 068b 04       		.byte	0x4
 3757 068c E4040000 		.4byte	0x4e4
 3758 0690 0E       		.uleb128 0xe
 3759 0691 04       		.byte	0x4
 3760 0692 74040000 		.4byte	0x474
 3761 0696 03       		.uleb128 0x3
 3762 0697 D20F0000 		.4byte	.LASF157
 3763 069b 06       		.byte	0x6
 3764 069c A0       		.byte	0xa0
 3765 069d AB050000 		.4byte	0x5ab
 3766 06a1 0F       		.uleb128 0xf
 3767 06a2 6D696E00 		.ascii	"min\000"
 3768 06a6 01       		.byte	0x1
 3769 06a7 03       		.byte	0x3
 3770 06a8 CF010000 		.4byte	0x1cf
 3771 06ac 00000000 		.4byte	.LFB37
 3772 06b0 32000000 		.4byte	.LFE37-.LFB37
 3773 06b4 01       		.uleb128 0x1
 3774 06b5 9C       		.byte	0x9c
 3775 06b6 D3060000 		.4byte	0x6d3
 3776 06ba 10       		.uleb128 0x10
 3777 06bb 6100     		.ascii	"a\000"
 3778 06bd 01       		.byte	0x1
 3779 06be 03       		.byte	0x3
 3780 06bf CF010000 		.4byte	0x1cf
 3781 06c3 02       		.uleb128 0x2
 3782 06c4 91       		.byte	0x91
 3783 06c5 68       		.sleb128 -24
 3784 06c6 10       		.uleb128 0x10
ARM GAS  C:\Users\Davit\AppData\Local\Temp\cc4XR0T4.s 			page 76


 3785 06c7 6200     		.ascii	"b\000"
 3786 06c9 01       		.byte	0x1
 3787 06ca 03       		.byte	0x3
 3788 06cb CF010000 		.4byte	0x1cf
 3789 06cf 02       		.uleb128 0x2
 3790 06d0 91       		.byte	0x91
 3791 06d1 60       		.sleb128 -32
 3792 06d2 00       		.byte	0
 3793 06d3 11       		.uleb128 0x11
 3794 06d4 97010000 		.4byte	.LASF178
 3795 06d8 01       		.byte	0x1
 3796 06d9 07       		.byte	0x7
 3797 06da 00000000 		.4byte	.LFB38
 3798 06de 38000000 		.4byte	.LFE38-.LFB38
 3799 06e2 01       		.uleb128 0x1
 3800 06e3 9C       		.byte	0x9c
 3801 06e4 12       		.uleb128 0x12
 3802 06e5 6C070000 		.4byte	.LASF171
 3803 06e9 01       		.byte	0x1
 3804 06ea 0F       		.byte	0xf
 3805 06eb C8010000 		.4byte	0x1c8
 3806 06ef 00000000 		.4byte	.LFB39
 3807 06f3 1A000000 		.4byte	.LFE39-.LFB39
 3808 06f7 01       		.uleb128 0x1
 3809 06f8 9C       		.byte	0x9c
 3810 06f9 0C070000 		.4byte	0x70c
 3811 06fd 13       		.uleb128 0x13
 3812 06fe B4060000 		.4byte	.LASF172
 3813 0702 01       		.byte	0x1
 3814 0703 0F       		.byte	0xf
 3815 0704 D6010000 		.4byte	0x1d6
 3816 0708 02       		.uleb128 0x2
 3817 0709 91       		.byte	0x91
 3818 070a 74       		.sleb128 -12
 3819 070b 00       		.byte	0
 3820 070c 14       		.uleb128 0x14
 3821 070d A0110000 		.4byte	.LASF173
 3822 0711 01       		.byte	0x1
 3823 0712 14       		.byte	0x14
 3824 0713 D6010000 		.4byte	0x1d6
 3825 0717 00000000 		.4byte	.LFB40
 3826 071b 54000000 		.4byte	.LFE40-.LFB40
 3827 071f 01       		.uleb128 0x1
 3828 0720 9C       		.byte	0x9c
 3829 0721 15       		.uleb128 0x15
 3830 0722 C7110000 		.4byte	.LASF174
 3831 0726 01       		.byte	0x1
 3832 0727 1C       		.byte	0x1c
 3833 0728 D6010000 		.4byte	0x1d6
 3834 072c 00000000 		.4byte	.LFB41
 3835 0730 14000000 		.4byte	.LFE41-.LFB41
 3836 0734 01       		.uleb128 0x1
 3837 0735 9C       		.byte	0x9c
 3838 0736 12       		.uleb128 0x12
 3839 0737 E00A0000 		.4byte	.LASF175
 3840 073b 01       		.byte	0x1
 3841 073c 20       		.byte	0x20
ARM GAS  C:\Users\Davit\AppData\Local\Temp\cc4XR0T4.s 			page 77


 3842 073d C8010000 		.4byte	0x1c8
 3843 0741 00000000 		.4byte	.LFB42
 3844 0745 08020000 		.4byte	.LFE42-.LFB42
 3845 0749 01       		.uleb128 0x1
 3846 074a 9C       		.byte	0x9c
 3847 074b 84070000 		.4byte	0x784
 3848 074f 13       		.uleb128 0x13
 3849 0750 B4060000 		.4byte	.LASF172
 3850 0754 01       		.byte	0x1
 3851 0755 20       		.byte	0x20
 3852 0756 D6010000 		.4byte	0x1d6
 3853 075a 02       		.uleb128 0x2
 3854 075b 91       		.byte	0x91
 3855 075c 5C       		.sleb128 -36
 3856 075d 16       		.uleb128 0x16
 3857 075e 76060000 		.4byte	.LASF176
 3858 0762 01       		.byte	0x1
 3859 0763 21       		.byte	0x21
 3860 0764 C8010000 		.4byte	0x1c8
 3861 0768 02       		.uleb128 0x2
 3862 0769 91       		.byte	0x91
 3863 076a 67       		.sleb128 -25
 3864 076b 17       		.uleb128 0x17
 3865 076c 08010000 		.4byte	.LBB2
 3866 0770 A4000000 		.4byte	.LBE2-.LBB2
 3867 0774 16       		.uleb128 0x16
 3868 0775 080E0000 		.4byte	.LASF177
 3869 0779 01       		.byte	0x1
 3870 077a 47       		.byte	0x47
 3871 077b D6010000 		.4byte	0x1d6
 3872 077f 02       		.uleb128 0x2
 3873 0780 91       		.byte	0x91
 3874 0781 60       		.sleb128 -32
 3875 0782 00       		.byte	0
 3876 0783 00       		.byte	0
 3877 0784 18       		.uleb128 0x18
 3878 0785 F9060000 		.4byte	.LASF179
 3879 0789 01       		.byte	0x1
 3880 078a 5E       		.byte	0x5e
 3881 078b 00000000 		.4byte	.LFB43
 3882 078f 10010000 		.4byte	.LFE43-.LFB43
 3883 0793 01       		.uleb128 0x1
 3884 0794 9C       		.byte	0x9c
 3885 0795 18       		.uleb128 0x18
 3886 0796 FA020000 		.4byte	.LASF180
 3887 079a 01       		.byte	0x1
 3888 079b 6D       		.byte	0x6d
 3889 079c 00000000 		.4byte	.LFB44
 3890 07a0 2E000000 		.4byte	.LFE44-.LFB44
 3891 07a4 01       		.uleb128 0x1
 3892 07a5 9C       		.byte	0x9c
 3893 07a6 19       		.uleb128 0x19
 3894 07a7 C7080000 		.4byte	.LASF182
 3895 07ab 01       		.byte	0x1
 3896 07ac 7B       		.byte	0x7b
 3897 07ad 00000000 		.4byte	.LFB45
 3898 07b1 1E000000 		.4byte	.LFE45-.LFB45
ARM GAS  C:\Users\Davit\AppData\Local\Temp\cc4XR0T4.s 			page 78


 3899 07b5 01       		.uleb128 0x1
 3900 07b6 9C       		.byte	0x9c
 3901 07b7 CA070000 		.4byte	0x7ca
 3902 07bb 13       		.uleb128 0x13
 3903 07bc D9100000 		.4byte	.LASF181
 3904 07c0 01       		.byte	0x1
 3905 07c1 7B       		.byte	0x7b
 3906 07c2 C6000000 		.4byte	0xc6
 3907 07c6 02       		.uleb128 0x2
 3908 07c7 91       		.byte	0x91
 3909 07c8 77       		.sleb128 -9
 3910 07c9 00       		.byte	0
 3911 07ca 19       		.uleb128 0x19
 3912 07cb BD040000 		.4byte	.LASF183
 3913 07cf 01       		.byte	0x1
 3914 07d0 7F       		.byte	0x7f
 3915 07d1 00000000 		.4byte	.LFB46
 3916 07d5 42000000 		.4byte	.LFE46-.LFB46
 3917 07d9 01       		.uleb128 0x1
 3918 07da 9C       		.byte	0x9c
 3919 07db FC070000 		.4byte	0x7fc
 3920 07df 13       		.uleb128 0x13
 3921 07e0 A4030000 		.4byte	.LASF184
 3922 07e4 01       		.byte	0x1
 3923 07e5 7F       		.byte	0x7f
 3924 07e6 3E010000 		.4byte	0x13e
 3925 07ea 02       		.uleb128 0x2
 3926 07eb 91       		.byte	0x91
 3927 07ec 67       		.sleb128 -25
 3928 07ed 16       		.uleb128 0x16
 3929 07ee 9A0C0000 		.4byte	.LASF185
 3930 07f2 01       		.byte	0x1
 3931 07f3 80       		.byte	0x80
 3932 07f4 8C000000 		.4byte	0x8c
 3933 07f8 02       		.uleb128 0x2
 3934 07f9 91       		.byte	0x91
 3935 07fa 6F       		.sleb128 -17
 3936 07fb 00       		.byte	0
 3937 07fc 19       		.uleb128 0x19
 3938 07fd C2010000 		.4byte	.LASF186
 3939 0801 01       		.byte	0x1
 3940 0802 84       		.byte	0x84
 3941 0803 00000000 		.4byte	.LFB47
 3942 0807 46000000 		.4byte	.LFE47-.LFB47
 3943 080b 01       		.uleb128 0x1
 3944 080c 9C       		.byte	0x9c
 3945 080d 2E080000 		.4byte	0x82e
 3946 0811 13       		.uleb128 0x13
 3947 0812 D8080000 		.4byte	.LASF187
 3948 0816 01       		.byte	0x1
 3949 0817 84       		.byte	0x84
 3950 0818 0E010000 		.4byte	0x10e
 3951 081c 02       		.uleb128 0x2
 3952 081d 91       		.byte	0x91
 3953 081e 67       		.sleb128 -25
 3954 081f 16       		.uleb128 0x16
 3955 0820 9A0C0000 		.4byte	.LASF185
ARM GAS  C:\Users\Davit\AppData\Local\Temp\cc4XR0T4.s 			page 79


 3956 0824 01       		.byte	0x1
 3957 0825 85       		.byte	0x85
 3958 0826 8C000000 		.4byte	0x8c
 3959 082a 02       		.uleb128 0x2
 3960 082b 91       		.byte	0x91
 3961 082c 6F       		.sleb128 -17
 3962 082d 00       		.byte	0
 3963 082e 19       		.uleb128 0x19
 3964 082f F2120000 		.4byte	.LASF188
 3965 0833 01       		.byte	0x1
 3966 0834 89       		.byte	0x89
 3967 0835 00000000 		.4byte	.LFB48
 3968 0839 32000000 		.4byte	.LFE48-.LFB48
 3969 083d 01       		.uleb128 0x1
 3970 083e 9C       		.byte	0x9c
 3971 083f 60080000 		.4byte	0x860
 3972 0843 13       		.uleb128 0x13
 3973 0844 DB0B0000 		.4byte	.LASF189
 3974 0848 01       		.byte	0x1
 3975 0849 89       		.byte	0x89
 3976 084a B6010000 		.4byte	0x1b6
 3977 084e 02       		.uleb128 0x2
 3978 084f 91       		.byte	0x91
 3979 0850 77       		.sleb128 -9
 3980 0851 13       		.uleb128 0x13
 3981 0852 E80B0000 		.4byte	.LASF190
 3982 0856 01       		.byte	0x1
 3983 0857 89       		.byte	0x89
 3984 0858 B6010000 		.4byte	0x1b6
 3985 085c 02       		.uleb128 0x2
 3986 085d 91       		.byte	0x91
 3987 085e 76       		.sleb128 -10
 3988 085f 00       		.byte	0
 3989 0860 19       		.uleb128 0x19
 3990 0861 3C080000 		.4byte	.LASF191
 3991 0865 01       		.byte	0x1
 3992 0866 8D       		.byte	0x8d
 3993 0867 00000000 		.4byte	.LFB49
 3994 086b 52000000 		.4byte	.LFE49-.LFB49
 3995 086f 01       		.uleb128 0x1
 3996 0870 9C       		.byte	0x9c
 3997 0871 92080000 		.4byte	0x892
 3998 0875 13       		.uleb128 0x13
 3999 0876 34080000 		.4byte	.LASF192
 4000 087a 01       		.byte	0x1
 4001 087b 8D       		.byte	0x8d
 4002 087c C8010000 		.4byte	0x1c8
 4003 0880 02       		.uleb128 0x2
 4004 0881 91       		.byte	0x91
 4005 0882 67       		.sleb128 -25
 4006 0883 16       		.uleb128 0x16
 4007 0884 9A0C0000 		.4byte	.LASF185
 4008 0888 01       		.byte	0x1
 4009 0889 8E       		.byte	0x8e
 4010 088a 8C000000 		.4byte	0x8c
 4011 088e 02       		.uleb128 0x2
 4012 088f 91       		.byte	0x91
ARM GAS  C:\Users\Davit\AppData\Local\Temp\cc4XR0T4.s 			page 80


 4013 0890 6F       		.sleb128 -17
 4014 0891 00       		.byte	0
 4015 0892 18       		.uleb128 0x18
 4016 0893 85050000 		.4byte	.LASF193
 4017 0897 01       		.byte	0x1
 4018 0898 96       		.byte	0x96
 4019 0899 00000000 		.4byte	.LFB50
 4020 089d 0C000000 		.4byte	.LFE50-.LFB50
 4021 08a1 01       		.uleb128 0x1
 4022 08a2 9C       		.byte	0x9c
 4023 08a3 12       		.uleb128 0x12
 4024 08a4 0A120000 		.4byte	.LASF194
 4025 08a8 01       		.byte	0x1
 4026 08a9 9A       		.byte	0x9a
 4027 08aa 8C000000 		.4byte	0x8c
 4028 08ae 00000000 		.4byte	.LFB51
 4029 08b2 70000000 		.4byte	.LFE51-.LFB51
 4030 08b6 01       		.uleb128 0x1
 4031 08b7 9C       		.byte	0x9c
 4032 08b8 E7080000 		.4byte	0x8e7
 4033 08bc 13       		.uleb128 0x13
 4034 08bd AC080000 		.4byte	.LASF195
 4035 08c1 01       		.byte	0x1
 4036 08c2 9A       		.byte	0x9a
 4037 08c3 8C000000 		.4byte	0x8c
 4038 08c7 02       		.uleb128 0x2
 4039 08c8 91       		.byte	0x91
 4040 08c9 6F       		.sleb128 -17
 4041 08ca 16       		.uleb128 0x16
 4042 08cb 180F0000 		.4byte	.LASF196
 4043 08cf 01       		.byte	0x1
 4044 08d0 A2       		.byte	0xa2
 4045 08d1 E7080000 		.4byte	0x8e7
 4046 08d5 02       		.uleb128 0x2
 4047 08d6 91       		.byte	0x91
 4048 08d7 74       		.sleb128 -12
 4049 08d8 16       		.uleb128 0x16
 4050 08d9 1C030000 		.4byte	.LASF197
 4051 08dd 01       		.byte	0x1
 4052 08de A5       		.byte	0xa5
 4053 08df E7080000 		.4byte	0x8e7
 4054 08e3 02       		.uleb128 0x2
 4055 08e4 91       		.byte	0x91
 4056 08e5 70       		.sleb128 -16
 4057 08e6 00       		.byte	0
 4058 08e7 0B       		.uleb128 0xb
 4059 08e8 E4010000 		.4byte	0x1e4
 4060 08ec F7080000 		.4byte	0x8f7
 4061 08f0 0C       		.uleb128 0xc
 4062 08f1 C1010000 		.4byte	0x1c1
 4063 08f5 00       		.byte	0
 4064 08f6 00       		.byte	0
 4065 08f7 19       		.uleb128 0x19
 4066 08f8 540D0000 		.4byte	.LASF198
 4067 08fc 01       		.byte	0x1
 4068 08fd B2       		.byte	0xb2
 4069 08fe 00000000 		.4byte	.LFB52
ARM GAS  C:\Users\Davit\AppData\Local\Temp\cc4XR0T4.s 			page 81


 4070 0902 54000000 		.4byte	.LFE52-.LFB52
 4071 0906 01       		.uleb128 0x1
 4072 0907 9C       		.byte	0x9c
 4073 0908 37090000 		.4byte	0x937
 4074 090c 13       		.uleb128 0x13
 4075 090d AC080000 		.4byte	.LASF195
 4076 0911 01       		.byte	0x1
 4077 0912 B2       		.byte	0xb2
 4078 0913 8C000000 		.4byte	0x8c
 4079 0917 02       		.uleb128 0x2
 4080 0918 91       		.byte	0x91
 4081 0919 6F       		.sleb128 -17
 4082 091a 13       		.uleb128 0x13
 4083 091b 32140000 		.4byte	.LASF199
 4084 091f 01       		.byte	0x1
 4085 0920 B2       		.byte	0xb2
 4086 0921 8C000000 		.4byte	0x8c
 4087 0925 02       		.uleb128 0x2
 4088 0926 91       		.byte	0x91
 4089 0927 6E       		.sleb128 -18
 4090 0928 16       		.uleb128 0x16
 4091 0929 180F0000 		.4byte	.LASF196
 4092 092d 01       		.byte	0x1
 4093 092e B8       		.byte	0xb8
 4094 092f 37090000 		.4byte	0x937
 4095 0933 02       		.uleb128 0x2
 4096 0934 91       		.byte	0x91
 4097 0935 74       		.sleb128 -12
 4098 0936 00       		.byte	0
 4099 0937 0B       		.uleb128 0xb
 4100 0938 E4010000 		.4byte	0x1e4
 4101 093c 47090000 		.4byte	0x947
 4102 0940 0C       		.uleb128 0xc
 4103 0941 C1010000 		.4byte	0x1c1
 4104 0945 01       		.byte	0x1
 4105 0946 00       		.byte	0
 4106 0947 19       		.uleb128 0x19
 4107 0948 B4080000 		.4byte	.LASF200
 4108 094c 01       		.byte	0x1
 4109 094d C3       		.byte	0xc3
 4110 094e 00000000 		.4byte	.LFB53
 4111 0952 6C000000 		.4byte	.LFE53-.LFB53
 4112 0956 01       		.uleb128 0x1
 4113 0957 9C       		.byte	0x9c
 4114 0958 95090000 		.4byte	0x995
 4115 095c 13       		.uleb128 0x13
 4116 095d 37120000 		.4byte	.LASF201
 4117 0961 01       		.byte	0x1
 4118 0962 C3       		.byte	0xc3
 4119 0963 8C000000 		.4byte	0x8c
 4120 0967 02       		.uleb128 0x2
 4121 0968 91       		.byte	0x91
 4122 0969 6F       		.sleb128 -17
 4123 096a 13       		.uleb128 0x13
 4124 096b 9F070000 		.4byte	.LASF202
 4125 096f 01       		.byte	0x1
 4126 0970 C3       		.byte	0xc3
ARM GAS  C:\Users\Davit\AppData\Local\Temp\cc4XR0T4.s 			page 82


 4127 0971 95090000 		.4byte	0x995
 4128 0975 02       		.uleb128 0x2
 4129 0976 91       		.byte	0x91
 4130 0977 68       		.sleb128 -24
 4131 0978 13       		.uleb128 0x13
 4132 0979 B50D0000 		.4byte	.LASF203
 4133 097d 01       		.byte	0x1
 4134 097e C3       		.byte	0xc3
 4135 097f 8C000000 		.4byte	0x8c
 4136 0983 02       		.uleb128 0x2
 4137 0984 91       		.byte	0x91
 4138 0985 6E       		.sleb128 -18
 4139 0986 16       		.uleb128 0x16
 4140 0987 180F0000 		.4byte	.LASF196
 4141 098b 01       		.byte	0x1
 4142 098c D3       		.byte	0xd3
 4143 098d E7080000 		.4byte	0x8e7
 4144 0991 02       		.uleb128 0x2
 4145 0992 91       		.byte	0x91
 4146 0993 74       		.sleb128 -12
 4147 0994 00       		.byte	0
 4148 0995 0E       		.uleb128 0xe
 4149 0996 04       		.byte	0x4
 4150 0997 8C000000 		.4byte	0x8c
 4151 099b 1A       		.uleb128 0x1a
 4152 099c 0B0A0000 		.4byte	.LASF204
 4153 09a0 01       		.byte	0x1
 4154 09a1 E1       		.byte	0xe1
 4155 09a2 00000000 		.4byte	.LFB54
 4156 09a6 50000000 		.4byte	.LFE54-.LFB54
 4157 09aa 01       		.uleb128 0x1
 4158 09ab 9C       		.byte	0x9c
 4159 09ac BF090000 		.4byte	0x9bf
 4160 09b0 16       		.uleb128 0x16
 4161 09b1 9F070000 		.4byte	.LASF202
 4162 09b5 01       		.byte	0x1
 4163 09b6 E2       		.byte	0xe2
 4164 09b7 BF090000 		.4byte	0x9bf
 4165 09bb 02       		.uleb128 0x2
 4166 09bc 91       		.byte	0x91
 4167 09bd 74       		.sleb128 -12
 4168 09be 00       		.byte	0
 4169 09bf 0B       		.uleb128 0xb
 4170 09c0 8C000000 		.4byte	0x8c
 4171 09c4 CF090000 		.4byte	0x9cf
 4172 09c8 0C       		.uleb128 0xc
 4173 09c9 C1010000 		.4byte	0x1c1
 4174 09cd 03       		.byte	0x3
 4175 09ce 00       		.byte	0
 4176 09cf 1B       		.uleb128 0x1b
 4177 09d0 B4140000 		.4byte	.LASF205
 4178 09d4 01       		.byte	0x1
 4179 09d5 EF       		.byte	0xef
 4180 09d6 00000000 		.4byte	.LFB55
 4181 09da 10010000 		.4byte	.LFE55-.LFB55
 4182 09de 01       		.uleb128 0x1
 4183 09df 9C       		.byte	0x9c
ARM GAS  C:\Users\Davit\AppData\Local\Temp\cc4XR0T4.s 			page 83


 4184 09e0 F1090000 		.4byte	0x9f1
 4185 09e4 1C       		.uleb128 0x1c
 4186 09e5 6900     		.ascii	"i\000"
 4187 09e7 01       		.byte	0x1
 4188 09e8 F3       		.byte	0xf3
 4189 09e9 7E000000 		.4byte	0x7e
 4190 09ed 02       		.uleb128 0x2
 4191 09ee 91       		.byte	0x91
 4192 09ef 74       		.sleb128 -12
 4193 09f0 00       		.byte	0
 4194 09f1 1D       		.uleb128 0x1d
 4195 09f2 0E0E0000 		.4byte	.LASF206
 4196 09f6 01       		.byte	0x1
 4197 09f7 0C01     		.2byte	0x10c
 4198 09f9 00000000 		.4byte	.LFB56
 4199 09fd 94010000 		.4byte	.LFE56-.LFB56
 4200 0a01 01       		.uleb128 0x1
 4201 0a02 9C       		.byte	0x9c
 4202 0a03 5D0A0000 		.4byte	0xa5d
 4203 0a07 1E       		.uleb128 0x1e
 4204 0a08 000B0000 		.4byte	.LASF207
 4205 0a0c 01       		.byte	0x1
 4206 0a0d 0C01     		.2byte	0x10c
 4207 0a0f D6010000 		.4byte	0x1d6
 4208 0a13 02       		.uleb128 0x2
 4209 0a14 91       		.byte	0x91
 4210 0a15 5C       		.sleb128 -36
 4211 0a16 1E       		.uleb128 0x1e
 4212 0a17 30130000 		.4byte	.LASF208
 4213 0a1b 01       		.byte	0x1
 4214 0a1c 0C01     		.2byte	0x10c
 4215 0a1e D6010000 		.4byte	0x1d6
 4216 0a22 02       		.uleb128 0x2
 4217 0a23 91       		.byte	0x91
 4218 0a24 58       		.sleb128 -40
 4219 0a25 1E       		.uleb128 0x1e
 4220 0a26 76060000 		.4byte	.LASF176
 4221 0a2a 01       		.byte	0x1
 4222 0a2b 0C01     		.2byte	0x10c
 4223 0a2d C8010000 		.4byte	0x1c8
 4224 0a31 02       		.uleb128 0x2
 4225 0a32 91       		.byte	0x91
 4226 0a33 57       		.sleb128 -41
 4227 0a34 17       		.uleb128 0x17
 4228 0a35 80000000 		.4byte	.LBB3
 4229 0a39 FC000000 		.4byte	.LBE3-.LBB3
 4230 0a3d 1F       		.uleb128 0x1f
 4231 0a3e DE100000 		.4byte	.LASF209
 4232 0a42 01       		.byte	0x1
 4233 0a43 1401     		.2byte	0x114
 4234 0a45 D6010000 		.4byte	0x1d6
 4235 0a49 02       		.uleb128 0x2
 4236 0a4a 91       		.byte	0x91
 4237 0a4b 60       		.sleb128 -32
 4238 0a4c 1F       		.uleb128 0x1f
 4239 0a4d 26110000 		.4byte	.LASF210
 4240 0a51 01       		.byte	0x1
ARM GAS  C:\Users\Davit\AppData\Local\Temp\cc4XR0T4.s 			page 84


 4241 0a52 1901     		.2byte	0x119
 4242 0a54 8C000000 		.4byte	0x8c
 4243 0a58 02       		.uleb128 0x2
 4244 0a59 91       		.byte	0x91
 4245 0a5a 67       		.sleb128 -25
 4246 0a5b 00       		.byte	0
 4247 0a5c 00       		.byte	0
 4248 0a5d 20       		.uleb128 0x20
 4249 0a5e 69030000 		.4byte	.LASF211
 4250 0a62 01       		.byte	0x1
 4251 0a63 2701     		.2byte	0x127
 4252 0a65 00000000 		.4byte	.LFB57
 4253 0a69 38000000 		.4byte	.LFE57-.LFB57
 4254 0a6d 01       		.uleb128 0x1
 4255 0a6e 9C       		.byte	0x9c
 4256 0a6f 21       		.uleb128 0x21
 4257 0a70 55070000 		.4byte	.LASF212
 4258 0a74 01       		.byte	0x1
 4259 0a75 2F01     		.2byte	0x12f
 4260 0a77 8C000000 		.4byte	0x8c
 4261 0a7b 00000000 		.4byte	.LFB58
 4262 0a7f 18000000 		.4byte	.LFE58-.LFB58
 4263 0a83 01       		.uleb128 0x1
 4264 0a84 9C       		.byte	0x9c
 4265 0a85 22       		.uleb128 0x22
 4266 0a86 69090000 		.4byte	.LASF213
 4267 0a8a 01       		.byte	0x1
 4268 0a8b 3301     		.2byte	0x133
 4269 0a8d 00000000 		.4byte	.LFB59
 4270 0a91 4C000000 		.4byte	.LFE59-.LFB59
 4271 0a95 01       		.uleb128 0x1
 4272 0a96 9C       		.byte	0x9c
 4273 0a97 BA0A0000 		.4byte	0xaba
 4274 0a9b 1E       		.uleb128 0x1e
 4275 0a9c 92010000 		.4byte	.LASF214
 4276 0aa0 01       		.byte	0x1
 4277 0aa1 3301     		.2byte	0x133
 4278 0aa3 C8010000 		.4byte	0x1c8
 4279 0aa7 02       		.uleb128 0x2
 4280 0aa8 91       		.byte	0x91
 4281 0aa9 77       		.sleb128 -9
 4282 0aaa 1E       		.uleb128 0x1e
 4283 0aab 92020000 		.4byte	.LASF146
 4284 0aaf 01       		.byte	0x1
 4285 0ab0 3301     		.2byte	0x133
 4286 0ab2 D6010000 		.4byte	0x1d6
 4287 0ab6 02       		.uleb128 0x2
 4288 0ab7 91       		.byte	0x91
 4289 0ab8 70       		.sleb128 -16
 4290 0ab9 00       		.byte	0
 4291 0aba 23       		.uleb128 0x23
 4292 0abb 220F0000 		.4byte	.LASF215
 4293 0abf 01       		.byte	0x1
 4294 0ac0 3D01     		.2byte	0x13d
 4295 0ac2 D6010000 		.4byte	0x1d6
 4296 0ac6 00000000 		.4byte	.LFB60
 4297 0aca AC000000 		.4byte	.LFE60-.LFB60
ARM GAS  C:\Users\Davit\AppData\Local\Temp\cc4XR0T4.s 			page 85


 4298 0ace 01       		.uleb128 0x1
 4299 0acf 9C       		.byte	0x9c
 4300 0ad0 270B0000 		.4byte	0xb27
 4301 0ad4 1E       		.uleb128 0x1e
 4302 0ad5 92010000 		.4byte	.LASF214
 4303 0ad9 01       		.byte	0x1
 4304 0ada 3D01     		.2byte	0x13d
 4305 0adc C8010000 		.4byte	0x1c8
 4306 0ae0 02       		.uleb128 0x2
 4307 0ae1 91       		.byte	0x91
 4308 0ae2 67       		.sleb128 -25
 4309 0ae3 24       		.uleb128 0x24
 4310 0ae4 7800     		.ascii	"x\000"
 4311 0ae6 01       		.byte	0x1
 4312 0ae7 3D01     		.2byte	0x13d
 4313 0ae9 D6010000 		.4byte	0x1d6
 4314 0aed 02       		.uleb128 0x2
 4315 0aee 91       		.byte	0x91
 4316 0aef 60       		.sleb128 -32
 4317 0af0 25       		.uleb128 0x25
 4318 0af1 16000000 		.4byte	.LBB4
 4319 0af5 40000000 		.4byte	.LBE4-.LBB4
 4320 0af9 0D0B0000 		.4byte	0xb0d
 4321 0afd 1F       		.uleb128 0x1f
 4322 0afe A50B0000 		.4byte	.LASF216
 4323 0b02 01       		.byte	0x1
 4324 0b03 3F01     		.2byte	0x13f
 4325 0b05 D6010000 		.4byte	0x1d6
 4326 0b09 02       		.uleb128 0x2
 4327 0b0a 91       		.byte	0x91
 4328 0b0b 6C       		.sleb128 -20
 4329 0b0c 00       		.byte	0
 4330 0b0d 17       		.uleb128 0x17
 4331 0b0e 5E000000 		.4byte	.LBB5
 4332 0b12 40000000 		.4byte	.LBE5-.LBB5
 4333 0b16 1F       		.uleb128 0x1f
 4334 0b17 A50B0000 		.4byte	.LASF216
 4335 0b1b 01       		.byte	0x1
 4336 0b1c 4401     		.2byte	0x144
 4337 0b1e D6010000 		.4byte	0x1d6
 4338 0b22 02       		.uleb128 0x2
 4339 0b23 91       		.byte	0x91
 4340 0b24 68       		.sleb128 -24
 4341 0b25 00       		.byte	0
 4342 0b26 00       		.byte	0
 4343 0b27 26       		.uleb128 0x26
 4344 0b28 9C120000 		.4byte	.LASF217
 4345 0b2c 01       		.byte	0x1
 4346 0b2d 4C01     		.2byte	0x14c
 4347 0b2f D6010000 		.4byte	0x1d6
 4348 0b33 00000000 		.4byte	.LFB61
 4349 0b37 3C000000 		.4byte	.LFE61-.LFB61
 4350 0b3b 01       		.uleb128 0x1
 4351 0b3c 9C       		.byte	0x9c
 4352 0b3d 510B0000 		.4byte	0xb51
 4353 0b41 1E       		.uleb128 0x1e
 4354 0b42 92010000 		.4byte	.LASF214
ARM GAS  C:\Users\Davit\AppData\Local\Temp\cc4XR0T4.s 			page 86


 4355 0b46 01       		.byte	0x1
 4356 0b47 4C01     		.2byte	0x14c
 4357 0b49 C8010000 		.4byte	0x1c8
 4358 0b4d 02       		.uleb128 0x2
 4359 0b4e 91       		.byte	0x91
 4360 0b4f 77       		.sleb128 -9
 4361 0b50 00       		.byte	0
 4362 0b51 20       		.uleb128 0x20
 4363 0b52 FC140000 		.4byte	.LASF218
 4364 0b56 01       		.byte	0x1
 4365 0b57 5501     		.2byte	0x155
 4366 0b59 00000000 		.4byte	.LFB62
 4367 0b5d 14000000 		.4byte	.LFE62-.LFB62
 4368 0b61 01       		.uleb128 0x1
 4369 0b62 9C       		.byte	0x9c
 4370 0b63 23       		.uleb128 0x23
 4371 0b64 37060000 		.4byte	.LASF219
 4372 0b68 01       		.byte	0x1
 4373 0b69 5901     		.2byte	0x159
 4374 0b6b D6010000 		.4byte	0x1d6
 4375 0b6f 00000000 		.4byte	.LFB63
 4376 0b73 A0000000 		.4byte	.LFE63-.LFB63
 4377 0b77 01       		.uleb128 0x1
 4378 0b78 9C       		.byte	0x9c
 4379 0b79 8B0B0000 		.4byte	0xb8b
 4380 0b7d 24       		.uleb128 0x24
 4381 0b7e 7800     		.ascii	"x\000"
 4382 0b80 01       		.byte	0x1
 4383 0b81 5901     		.2byte	0x159
 4384 0b83 D6010000 		.4byte	0x1d6
 4385 0b87 02       		.uleb128 0x2
 4386 0b88 91       		.byte	0x91
 4387 0b89 64       		.sleb128 -28
 4388 0b8a 00       		.byte	0
 4389 0b8b 27       		.uleb128 0x27
 4390 0b8c 7F100000 		.4byte	.LASF220
 4391 0b90 01       		.byte	0x1
 4392 0b91 6001     		.2byte	0x160
 4393 0b93 00000000 		.4byte	.LFB64
 4394 0b97 98000000 		.4byte	.LFE64-.LFB64
 4395 0b9b 01       		.uleb128 0x1
 4396 0b9c 9C       		.byte	0x9c
 4397 0b9d 28       		.uleb128 0x28
 4398 0b9e 3B070000 		.4byte	.LASF221
 4399 0ba2 01       		.byte	0x1
 4400 0ba3 7A01     		.2byte	0x17a
 4401 0ba5 57000000 		.4byte	0x57
 4402 0ba9 00000000 		.4byte	.LFB65
 4403 0bad 30000000 		.4byte	.LFE65-.LFB65
 4404 0bb1 01       		.uleb128 0x1
 4405 0bb2 9C       		.byte	0x9c
 4406 0bb3 1D       		.uleb128 0x1d
 4407 0bb4 7F080000 		.4byte	.LASF222
 4408 0bb8 01       		.byte	0x1
 4409 0bb9 7E01     		.2byte	0x17e
 4410 0bbb 00000000 		.4byte	.LFB66
 4411 0bbf 50000000 		.4byte	.LFE66-.LFB66
ARM GAS  C:\Users\Davit\AppData\Local\Temp\cc4XR0T4.s 			page 87


 4412 0bc3 01       		.uleb128 0x1
 4413 0bc4 9C       		.byte	0x9c
 4414 0bc5 D90B0000 		.4byte	0xbd9
 4415 0bc9 1E       		.uleb128 0x1e
 4416 0bca 2E100000 		.4byte	.LASF223
 4417 0bce 01       		.byte	0x1
 4418 0bcf 7E01     		.2byte	0x17e
 4419 0bd1 A0050000 		.4byte	0x5a0
 4420 0bd5 02       		.uleb128 0x2
 4421 0bd6 91       		.byte	0x91
 4422 0bd7 77       		.sleb128 -9
 4423 0bd8 00       		.byte	0
 4424 0bd9 27       		.uleb128 0x27
 4425 0bda D5020000 		.4byte	.LASF224
 4426 0bde 01       		.byte	0x1
 4427 0bdf 8C01     		.2byte	0x18c
 4428 0be1 00000000 		.4byte	.LFB67
 4429 0be5 50000000 		.4byte	.LFE67-.LFB67
 4430 0be9 01       		.uleb128 0x1
 4431 0bea 9C       		.byte	0x9c
 4432 0beb 28       		.uleb128 0x28
 4433 0bec DE060000 		.4byte	.LASF225
 4434 0bf0 01       		.byte	0x1
 4435 0bf1 9201     		.2byte	0x192
 4436 0bf3 D6010000 		.4byte	0x1d6
 4437 0bf7 00000000 		.4byte	.LFB68
 4438 0bfb 10000000 		.4byte	.LFE68-.LFB68
 4439 0bff 01       		.uleb128 0x1
 4440 0c00 9C       		.byte	0x9c
 4441 0c01 28       		.uleb128 0x28
 4442 0c02 4A0B0000 		.4byte	.LASF226
 4443 0c06 01       		.byte	0x1
 4444 0c07 9701     		.2byte	0x197
 4445 0c09 8C000000 		.4byte	0x8c
 4446 0c0d 00000000 		.4byte	.LFB69
 4447 0c11 10000000 		.4byte	.LFE69-.LFB69
 4448 0c15 01       		.uleb128 0x1
 4449 0c16 9C       		.byte	0x9c
 4450 0c17 21       		.uleb128 0x21
 4451 0c18 BB060000 		.4byte	.LASF227
 4452 0c1c 01       		.byte	0x1
 4453 0c1d 9C01     		.2byte	0x19c
 4454 0c1f 8C000000 		.4byte	0x8c
 4455 0c23 00000000 		.4byte	.LFB70
 4456 0c27 14000000 		.4byte	.LFE70-.LFB70
 4457 0c2b 01       		.uleb128 0x1
 4458 0c2c 9C       		.byte	0x9c
 4459 0c2d 22       		.uleb128 0x22
 4460 0c2e C80C0000 		.4byte	.LASF228
 4461 0c32 01       		.byte	0x1
 4462 0c33 A101     		.2byte	0x1a1
 4463 0c35 00000000 		.4byte	.LFB71
 4464 0c39 0E000000 		.4byte	.LFE71-.LFB71
 4465 0c3d 01       		.uleb128 0x1
 4466 0c3e 9C       		.byte	0x9c
 4467 0c3f 520C0000 		.4byte	0xc52
 4468 0c43 24       		.uleb128 0x24
ARM GAS  C:\Users\Davit\AppData\Local\Temp\cc4XR0T4.s 			page 88


 4469 0c44 636200   		.ascii	"cb\000"
 4470 0c47 01       		.byte	0x1
 4471 0c48 A101     		.2byte	0x1a1
 4472 0c4a 590C0000 		.4byte	0xc59
 4473 0c4e 02       		.uleb128 0x2
 4474 0c4f 91       		.byte	0x91
 4475 0c50 74       		.sleb128 -12
 4476 0c51 00       		.byte	0
 4477 0c52 29       		.uleb128 0x29
 4478 0c53 590C0000 		.4byte	0xc59
 4479 0c57 2A       		.uleb128 0x2a
 4480 0c58 00       		.byte	0
 4481 0c59 0E       		.uleb128 0xe
 4482 0c5a 04       		.byte	0x4
 4483 0c5b 520C0000 		.4byte	0xc52
 4484 0c5f 2B       		.uleb128 0x2b
 4485 0c60 4F030000 		.4byte	.LASF229
 4486 0c64 01       		.byte	0x1
 4487 0c65 A601     		.2byte	0x1a6
 4488 0c67 00000000 		.4byte	.LFB72
 4489 0c6b F4000000 		.4byte	.LFE72-.LFB72
 4490 0c6f 01       		.uleb128 0x1
 4491 0c70 9C       		.byte	0x9c
 4492 0c71 BC0C0000 		.4byte	0xcbc
 4493 0c75 17       		.uleb128 0x17
 4494 0c76 2E000000 		.4byte	.LBB6
 4495 0c7a B4000000 		.4byte	.LBE6-.LBB6
 4496 0c7e 1F       		.uleb128 0x1f
 4497 0c7f 000B0000 		.4byte	.LASF207
 4498 0c83 01       		.byte	0x1
 4499 0c84 AA01     		.2byte	0x1aa
 4500 0c86 D6010000 		.4byte	0x1d6
 4501 0c8a 02       		.uleb128 0x2
 4502 0c8b 91       		.byte	0x91
 4503 0c8c 6C       		.sleb128 -20
 4504 0c8d 1F       		.uleb128 0x1f
 4505 0c8e 30130000 		.4byte	.LASF208
 4506 0c92 01       		.byte	0x1
 4507 0c93 AB01     		.2byte	0x1ab
 4508 0c95 D6010000 		.4byte	0x1d6
 4509 0c99 02       		.uleb128 0x2
 4510 0c9a 91       		.byte	0x91
 4511 0c9b 68       		.sleb128 -24
 4512 0c9c 1F       		.uleb128 0x1f
 4513 0c9d 240E0000 		.4byte	.LASF230
 4514 0ca1 01       		.byte	0x1
 4515 0ca2 AE01     		.2byte	0x1ae
 4516 0ca4 D6010000 		.4byte	0x1d6
 4517 0ca8 02       		.uleb128 0x2
 4518 0ca9 91       		.byte	0x91
 4519 0caa 64       		.sleb128 -28
 4520 0cab 1F       		.uleb128 0x1f
 4521 0cac 76060000 		.4byte	.LASF176
 4522 0cb0 01       		.byte	0x1
 4523 0cb1 AF01     		.2byte	0x1af
 4524 0cb3 C8010000 		.4byte	0x1c8
 4525 0cb7 02       		.uleb128 0x2
ARM GAS  C:\Users\Davit\AppData\Local\Temp\cc4XR0T4.s 			page 89


 4526 0cb8 91       		.byte	0x91
 4527 0cb9 63       		.sleb128 -29
 4528 0cba 00       		.byte	0
 4529 0cbb 00       		.byte	0
 4530 0cbc 2B       		.uleb128 0x2b
 4531 0cbd 350D0000 		.4byte	.LASF231
 4532 0cc1 01       		.byte	0x1
 4533 0cc2 C001     		.2byte	0x1c0
 4534 0cc4 00000000 		.4byte	.LFB73
 4535 0cc8 E0000000 		.4byte	.LFE73-.LFB73
 4536 0ccc 01       		.uleb128 0x1
 4537 0ccd 9C       		.byte	0x9c
 4538 0cce EC0C0000 		.4byte	0xcec
 4539 0cd2 17       		.uleb128 0x17
 4540 0cd3 1C000000 		.4byte	.LBB7
 4541 0cd7 B4000000 		.4byte	.LBE7-.LBB7
 4542 0cdb 1F       		.uleb128 0x1f
 4543 0cdc 57000000 		.4byte	.LASF232
 4544 0ce0 01       		.byte	0x1
 4545 0ce1 C501     		.2byte	0x1c5
 4546 0ce3 C8010000 		.4byte	0x1c8
 4547 0ce7 02       		.uleb128 0x2
 4548 0ce8 91       		.byte	0x91
 4549 0ce9 6F       		.sleb128 -17
 4550 0cea 00       		.byte	0
 4551 0ceb 00       		.byte	0
 4552 0cec 2C       		.uleb128 0x2c
 4553 0ced 540E0000 		.4byte	.LASF233
 4554 0cf1 06       		.byte	0x6
 4555 0cf2 A2       		.byte	0xa2
 4556 0cf3 96060000 		.4byte	0x696
 4557 0cf7 05       		.uleb128 0x5
 4558 0cf8 03       		.byte	0x3
 4559 0cf9 00000000 		.4byte	pulseOximeter
 4560 0cfd 2C       		.uleb128 0x2c
 4561 0cfe 42070000 		.4byte	.LASF234
 4562 0d02 06       		.byte	0x6
 4563 0d03 A3       		.byte	0xa3
 4564 0d04 44040000 		.4byte	0x444
 4565 0d08 05       		.uleb128 0x5
 4566 0d09 03       		.byte	0x3
 4567 0d0a 00000000 		.4byte	globalBeatDetector
 4568 0d0e 2C       		.uleb128 0x2c
 4569 0d0f B5110000 		.4byte	.LASF235
 4570 0d13 06       		.byte	0x6
 4571 0d14 A4       		.byte	0xa4
 4572 0d15 14050000 		.4byte	0x514
 4573 0d19 05       		.uleb128 0x5
 4574 0d1a 03       		.byte	0x3
 4575 0d1b 00000000 		.4byte	globalIrDCRemover
 4576 0d1f 2C       		.uleb128 0x2c
 4577 0d20 09030000 		.4byte	.LASF236
 4578 0d24 06       		.byte	0x6
 4579 0d25 A5       		.byte	0xa5
 4580 0d26 14050000 		.4byte	0x514
 4581 0d2a 05       		.uleb128 0x5
 4582 0d2b 03       		.byte	0x3
ARM GAS  C:\Users\Davit\AppData\Local\Temp\cc4XR0T4.s 			page 90


 4583 0d2c 00000000 		.4byte	globalRedDCRemover
 4584 0d30 2C       		.uleb128 0x2c
 4585 0d31 E00F0000 		.4byte	.LASF237
 4586 0d35 06       		.byte	0x6
 4587 0d36 A6       		.byte	0xa6
 4588 0d37 46050000 		.4byte	0x546
 4589 0d3b 05       		.uleb128 0x5
 4590 0d3c 03       		.byte	0x3
 4591 0d3d 00000000 		.4byte	globalLpf
 4592 0d41 2C       		.uleb128 0x2c
 4593 0d42 8B130000 		.4byte	.LASF238
 4594 0d46 06       		.byte	0x6
 4595 0d47 A7       		.byte	0xa7
 4596 0d48 E4040000 		.4byte	0x4e4
 4597 0d4c 05       		.uleb128 0x5
 4598 0d4d 03       		.byte	0x3
 4599 0d4e 00000000 		.4byte	globalSpO2calculator
 4600 0d52 2C       		.uleb128 0x2c
 4601 0d53 17010000 		.4byte	.LASF239
 4602 0d57 06       		.byte	0x6
 4603 0d58 A8       		.byte	0xa8
 4604 0d59 74040000 		.4byte	0x474
 4605 0d5d 05       		.uleb128 0x5
 4606 0d5e 03       		.byte	0x3
 4607 0d5f 00000000 		.4byte	globalHrm
 4608 0d63 2C       		.uleb128 0x2c
 4609 0d64 B4050000 		.4byte	.LASF240
 4610 0d68 06       		.byte	0x6
 4611 0d69 BB       		.byte	0xbb
 4612 0d6a 7E000000 		.4byte	0x7e
 4613 0d6e 05       		.uleb128 0x5
 4614 0d6f 03       		.byte	0x3
 4615 0d70 00000000 		.4byte	numBeats
 4616 0d74 00       		.byte	0
 4617              		.section	.debug_abbrev,"",%progbits
 4618              	.Ldebug_abbrev0:
 4619 0000 01       		.uleb128 0x1
 4620 0001 11       		.uleb128 0x11
 4621 0002 01       		.byte	0x1
 4622 0003 25       		.uleb128 0x25
 4623 0004 0E       		.uleb128 0xe
 4624 0005 13       		.uleb128 0x13
 4625 0006 0B       		.uleb128 0xb
 4626 0007 03       		.uleb128 0x3
 4627 0008 0E       		.uleb128 0xe
 4628 0009 1B       		.uleb128 0x1b
 4629 000a 0E       		.uleb128 0xe
 4630 000b 55       		.uleb128 0x55
 4631 000c 17       		.uleb128 0x17
 4632 000d 11       		.uleb128 0x11
 4633 000e 01       		.uleb128 0x1
 4634 000f 10       		.uleb128 0x10
 4635 0010 17       		.uleb128 0x17
 4636 0011 00       		.byte	0
 4637 0012 00       		.byte	0
 4638 0013 02       		.uleb128 0x2
 4639 0014 24       		.uleb128 0x24
ARM GAS  C:\Users\Davit\AppData\Local\Temp\cc4XR0T4.s 			page 91


 4640 0015 00       		.byte	0
 4641 0016 0B       		.uleb128 0xb
 4642 0017 0B       		.uleb128 0xb
 4643 0018 3E       		.uleb128 0x3e
 4644 0019 0B       		.uleb128 0xb
 4645 001a 03       		.uleb128 0x3
 4646 001b 0E       		.uleb128 0xe
 4647 001c 00       		.byte	0
 4648 001d 00       		.byte	0
 4649 001e 03       		.uleb128 0x3
 4650 001f 16       		.uleb128 0x16
 4651 0020 00       		.byte	0
 4652 0021 03       		.uleb128 0x3
 4653 0022 0E       		.uleb128 0xe
 4654 0023 3A       		.uleb128 0x3a
 4655 0024 0B       		.uleb128 0xb
 4656 0025 3B       		.uleb128 0x3b
 4657 0026 0B       		.uleb128 0xb
 4658 0027 49       		.uleb128 0x49
 4659 0028 13       		.uleb128 0x13
 4660 0029 00       		.byte	0
 4661 002a 00       		.byte	0
 4662 002b 04       		.uleb128 0x4
 4663 002c 24       		.uleb128 0x24
 4664 002d 00       		.byte	0
 4665 002e 0B       		.uleb128 0xb
 4666 002f 0B       		.uleb128 0xb
 4667 0030 3E       		.uleb128 0x3e
 4668 0031 0B       		.uleb128 0xb
 4669 0032 03       		.uleb128 0x3
 4670 0033 08       		.uleb128 0x8
 4671 0034 00       		.byte	0
 4672 0035 00       		.byte	0
 4673 0036 05       		.uleb128 0x5
 4674 0037 04       		.uleb128 0x4
 4675 0038 01       		.byte	0x1
 4676 0039 03       		.uleb128 0x3
 4677 003a 0E       		.uleb128 0xe
 4678 003b 0B       		.uleb128 0xb
 4679 003c 0B       		.uleb128 0xb
 4680 003d 3A       		.uleb128 0x3a
 4681 003e 0B       		.uleb128 0xb
 4682 003f 3B       		.uleb128 0x3b
 4683 0040 0B       		.uleb128 0xb
 4684 0041 01       		.uleb128 0x1
 4685 0042 13       		.uleb128 0x13
 4686 0043 00       		.byte	0
 4687 0044 00       		.byte	0
 4688 0045 06       		.uleb128 0x6
 4689 0046 28       		.uleb128 0x28
 4690 0047 00       		.byte	0
 4691 0048 03       		.uleb128 0x3
 4692 0049 0E       		.uleb128 0xe
 4693 004a 1C       		.uleb128 0x1c
 4694 004b 0D       		.uleb128 0xd
 4695 004c 00       		.byte	0
 4696 004d 00       		.byte	0
ARM GAS  C:\Users\Davit\AppData\Local\Temp\cc4XR0T4.s 			page 92


 4697 004e 07       		.uleb128 0x7
 4698 004f 16       		.uleb128 0x16
 4699 0050 00       		.byte	0
 4700 0051 03       		.uleb128 0x3
 4701 0052 0E       		.uleb128 0xe
 4702 0053 3A       		.uleb128 0x3a
 4703 0054 0B       		.uleb128 0xb
 4704 0055 3B       		.uleb128 0x3b
 4705 0056 05       		.uleb128 0x5
 4706 0057 49       		.uleb128 0x49
 4707 0058 13       		.uleb128 0x13
 4708 0059 00       		.byte	0
 4709 005a 00       		.byte	0
 4710 005b 08       		.uleb128 0x8
 4711 005c 04       		.uleb128 0x4
 4712 005d 01       		.byte	0x1
 4713 005e 0B       		.uleb128 0xb
 4714 005f 0B       		.uleb128 0xb
 4715 0060 3A       		.uleb128 0x3a
 4716 0061 0B       		.uleb128 0xb
 4717 0062 3B       		.uleb128 0x3b
 4718 0063 05       		.uleb128 0x5
 4719 0064 01       		.uleb128 0x1
 4720 0065 13       		.uleb128 0x13
 4721 0066 00       		.byte	0
 4722 0067 00       		.byte	0
 4723 0068 09       		.uleb128 0x9
 4724 0069 13       		.uleb128 0x13
 4725 006a 01       		.byte	0x1
 4726 006b 03       		.uleb128 0x3
 4727 006c 0E       		.uleb128 0xe
 4728 006d 0B       		.uleb128 0xb
 4729 006e 0B       		.uleb128 0xb
 4730 006f 3A       		.uleb128 0x3a
 4731 0070 0B       		.uleb128 0xb
 4732 0071 3B       		.uleb128 0x3b
 4733 0072 0B       		.uleb128 0xb
 4734 0073 01       		.uleb128 0x1
 4735 0074 13       		.uleb128 0x13
 4736 0075 00       		.byte	0
 4737 0076 00       		.byte	0
 4738 0077 0A       		.uleb128 0xa
 4739 0078 0D       		.uleb128 0xd
 4740 0079 00       		.byte	0
 4741 007a 03       		.uleb128 0x3
 4742 007b 0E       		.uleb128 0xe
 4743 007c 3A       		.uleb128 0x3a
 4744 007d 0B       		.uleb128 0xb
 4745 007e 3B       		.uleb128 0x3b
 4746 007f 0B       		.uleb128 0xb
 4747 0080 49       		.uleb128 0x49
 4748 0081 13       		.uleb128 0x13
 4749 0082 38       		.uleb128 0x38
 4750 0083 0B       		.uleb128 0xb
 4751 0084 00       		.byte	0
 4752 0085 00       		.byte	0
 4753 0086 0B       		.uleb128 0xb
ARM GAS  C:\Users\Davit\AppData\Local\Temp\cc4XR0T4.s 			page 93


 4754 0087 01       		.uleb128 0x1
 4755 0088 01       		.byte	0x1
 4756 0089 49       		.uleb128 0x49
 4757 008a 13       		.uleb128 0x13
 4758 008b 01       		.uleb128 0x1
 4759 008c 13       		.uleb128 0x13
 4760 008d 00       		.byte	0
 4761 008e 00       		.byte	0
 4762 008f 0C       		.uleb128 0xc
 4763 0090 21       		.uleb128 0x21
 4764 0091 00       		.byte	0
 4765 0092 49       		.uleb128 0x49
 4766 0093 13       		.uleb128 0x13
 4767 0094 2F       		.uleb128 0x2f
 4768 0095 0B       		.uleb128 0xb
 4769 0096 00       		.byte	0
 4770 0097 00       		.byte	0
 4771 0098 0D       		.uleb128 0xd
 4772 0099 0D       		.uleb128 0xd
 4773 009a 00       		.byte	0
 4774 009b 03       		.uleb128 0x3
 4775 009c 08       		.uleb128 0x8
 4776 009d 3A       		.uleb128 0x3a
 4777 009e 0B       		.uleb128 0xb
 4778 009f 3B       		.uleb128 0x3b
 4779 00a0 0B       		.uleb128 0xb
 4780 00a1 49       		.uleb128 0x49
 4781 00a2 13       		.uleb128 0x13
 4782 00a3 38       		.uleb128 0x38
 4783 00a4 0B       		.uleb128 0xb
 4784 00a5 00       		.byte	0
 4785 00a6 00       		.byte	0
 4786 00a7 0E       		.uleb128 0xe
 4787 00a8 0F       		.uleb128 0xf
 4788 00a9 00       		.byte	0
 4789 00aa 0B       		.uleb128 0xb
 4790 00ab 0B       		.uleb128 0xb
 4791 00ac 49       		.uleb128 0x49
 4792 00ad 13       		.uleb128 0x13
 4793 00ae 00       		.byte	0
 4794 00af 00       		.byte	0
 4795 00b0 0F       		.uleb128 0xf
 4796 00b1 2E       		.uleb128 0x2e
 4797 00b2 01       		.byte	0x1
 4798 00b3 3F       		.uleb128 0x3f
 4799 00b4 19       		.uleb128 0x19
 4800 00b5 03       		.uleb128 0x3
 4801 00b6 08       		.uleb128 0x8
 4802 00b7 3A       		.uleb128 0x3a
 4803 00b8 0B       		.uleb128 0xb
 4804 00b9 3B       		.uleb128 0x3b
 4805 00ba 0B       		.uleb128 0xb
 4806 00bb 27       		.uleb128 0x27
 4807 00bc 19       		.uleb128 0x19
 4808 00bd 49       		.uleb128 0x49
 4809 00be 13       		.uleb128 0x13
 4810 00bf 11       		.uleb128 0x11
ARM GAS  C:\Users\Davit\AppData\Local\Temp\cc4XR0T4.s 			page 94


 4811 00c0 01       		.uleb128 0x1
 4812 00c1 12       		.uleb128 0x12
 4813 00c2 06       		.uleb128 0x6
 4814 00c3 40       		.uleb128 0x40
 4815 00c4 18       		.uleb128 0x18
 4816 00c5 9642     		.uleb128 0x2116
 4817 00c7 19       		.uleb128 0x19
 4818 00c8 01       		.uleb128 0x1
 4819 00c9 13       		.uleb128 0x13
 4820 00ca 00       		.byte	0
 4821 00cb 00       		.byte	0
 4822 00cc 10       		.uleb128 0x10
 4823 00cd 05       		.uleb128 0x5
 4824 00ce 00       		.byte	0
 4825 00cf 03       		.uleb128 0x3
 4826 00d0 08       		.uleb128 0x8
 4827 00d1 3A       		.uleb128 0x3a
 4828 00d2 0B       		.uleb128 0xb
 4829 00d3 3B       		.uleb128 0x3b
 4830 00d4 0B       		.uleb128 0xb
 4831 00d5 49       		.uleb128 0x49
 4832 00d6 13       		.uleb128 0x13
 4833 00d7 02       		.uleb128 0x2
 4834 00d8 18       		.uleb128 0x18
 4835 00d9 00       		.byte	0
 4836 00da 00       		.byte	0
 4837 00db 11       		.uleb128 0x11
 4838 00dc 2E       		.uleb128 0x2e
 4839 00dd 00       		.byte	0
 4840 00de 3F       		.uleb128 0x3f
 4841 00df 19       		.uleb128 0x19
 4842 00e0 03       		.uleb128 0x3
 4843 00e1 0E       		.uleb128 0xe
 4844 00e2 3A       		.uleb128 0x3a
 4845 00e3 0B       		.uleb128 0xb
 4846 00e4 3B       		.uleb128 0x3b
 4847 00e5 0B       		.uleb128 0xb
 4848 00e6 11       		.uleb128 0x11
 4849 00e7 01       		.uleb128 0x1
 4850 00e8 12       		.uleb128 0x12
 4851 00e9 06       		.uleb128 0x6
 4852 00ea 40       		.uleb128 0x40
 4853 00eb 18       		.uleb128 0x18
 4854 00ec 9742     		.uleb128 0x2117
 4855 00ee 19       		.uleb128 0x19
 4856 00ef 00       		.byte	0
 4857 00f0 00       		.byte	0
 4858 00f1 12       		.uleb128 0x12
 4859 00f2 2E       		.uleb128 0x2e
 4860 00f3 01       		.byte	0x1
 4861 00f4 3F       		.uleb128 0x3f
 4862 00f5 19       		.uleb128 0x19
 4863 00f6 03       		.uleb128 0x3
 4864 00f7 0E       		.uleb128 0xe
 4865 00f8 3A       		.uleb128 0x3a
 4866 00f9 0B       		.uleb128 0xb
 4867 00fa 3B       		.uleb128 0x3b
ARM GAS  C:\Users\Davit\AppData\Local\Temp\cc4XR0T4.s 			page 95


 4868 00fb 0B       		.uleb128 0xb
 4869 00fc 27       		.uleb128 0x27
 4870 00fd 19       		.uleb128 0x19
 4871 00fe 49       		.uleb128 0x49
 4872 00ff 13       		.uleb128 0x13
 4873 0100 11       		.uleb128 0x11
 4874 0101 01       		.uleb128 0x1
 4875 0102 12       		.uleb128 0x12
 4876 0103 06       		.uleb128 0x6
 4877 0104 40       		.uleb128 0x40
 4878 0105 18       		.uleb128 0x18
 4879 0106 9642     		.uleb128 0x2116
 4880 0108 19       		.uleb128 0x19
 4881 0109 01       		.uleb128 0x1
 4882 010a 13       		.uleb128 0x13
 4883 010b 00       		.byte	0
 4884 010c 00       		.byte	0
 4885 010d 13       		.uleb128 0x13
 4886 010e 05       		.uleb128 0x5
 4887 010f 00       		.byte	0
 4888 0110 03       		.uleb128 0x3
 4889 0111 0E       		.uleb128 0xe
 4890 0112 3A       		.uleb128 0x3a
 4891 0113 0B       		.uleb128 0xb
 4892 0114 3B       		.uleb128 0x3b
 4893 0115 0B       		.uleb128 0xb
 4894 0116 49       		.uleb128 0x49
 4895 0117 13       		.uleb128 0x13
 4896 0118 02       		.uleb128 0x2
 4897 0119 18       		.uleb128 0x18
 4898 011a 00       		.byte	0
 4899 011b 00       		.byte	0
 4900 011c 14       		.uleb128 0x14
 4901 011d 2E       		.uleb128 0x2e
 4902 011e 00       		.byte	0
 4903 011f 3F       		.uleb128 0x3f
 4904 0120 19       		.uleb128 0x19
 4905 0121 03       		.uleb128 0x3
 4906 0122 0E       		.uleb128 0xe
 4907 0123 3A       		.uleb128 0x3a
 4908 0124 0B       		.uleb128 0xb
 4909 0125 3B       		.uleb128 0x3b
 4910 0126 0B       		.uleb128 0xb
 4911 0127 49       		.uleb128 0x49
 4912 0128 13       		.uleb128 0x13
 4913 0129 11       		.uleb128 0x11
 4914 012a 01       		.uleb128 0x1
 4915 012b 12       		.uleb128 0x12
 4916 012c 06       		.uleb128 0x6
 4917 012d 40       		.uleb128 0x40
 4918 012e 18       		.uleb128 0x18
 4919 012f 9642     		.uleb128 0x2116
 4920 0131 19       		.uleb128 0x19
 4921 0132 00       		.byte	0
 4922 0133 00       		.byte	0
 4923 0134 15       		.uleb128 0x15
 4924 0135 2E       		.uleb128 0x2e
ARM GAS  C:\Users\Davit\AppData\Local\Temp\cc4XR0T4.s 			page 96


 4925 0136 00       		.byte	0
 4926 0137 3F       		.uleb128 0x3f
 4927 0138 19       		.uleb128 0x19
 4928 0139 03       		.uleb128 0x3
 4929 013a 0E       		.uleb128 0xe
 4930 013b 3A       		.uleb128 0x3a
 4931 013c 0B       		.uleb128 0xb
 4932 013d 3B       		.uleb128 0x3b
 4933 013e 0B       		.uleb128 0xb
 4934 013f 49       		.uleb128 0x49
 4935 0140 13       		.uleb128 0x13
 4936 0141 11       		.uleb128 0x11
 4937 0142 01       		.uleb128 0x1
 4938 0143 12       		.uleb128 0x12
 4939 0144 06       		.uleb128 0x6
 4940 0145 40       		.uleb128 0x40
 4941 0146 18       		.uleb128 0x18
 4942 0147 9742     		.uleb128 0x2117
 4943 0149 19       		.uleb128 0x19
 4944 014a 00       		.byte	0
 4945 014b 00       		.byte	0
 4946 014c 16       		.uleb128 0x16
 4947 014d 34       		.uleb128 0x34
 4948 014e 00       		.byte	0
 4949 014f 03       		.uleb128 0x3
 4950 0150 0E       		.uleb128 0xe
 4951 0151 3A       		.uleb128 0x3a
 4952 0152 0B       		.uleb128 0xb
 4953 0153 3B       		.uleb128 0x3b
 4954 0154 0B       		.uleb128 0xb
 4955 0155 49       		.uleb128 0x49
 4956 0156 13       		.uleb128 0x13
 4957 0157 02       		.uleb128 0x2
 4958 0158 18       		.uleb128 0x18
 4959 0159 00       		.byte	0
 4960 015a 00       		.byte	0
 4961 015b 17       		.uleb128 0x17
 4962 015c 0B       		.uleb128 0xb
 4963 015d 01       		.byte	0x1
 4964 015e 11       		.uleb128 0x11
 4965 015f 01       		.uleb128 0x1
 4966 0160 12       		.uleb128 0x12
 4967 0161 06       		.uleb128 0x6
 4968 0162 00       		.byte	0
 4969 0163 00       		.byte	0
 4970 0164 18       		.uleb128 0x18
 4971 0165 2E       		.uleb128 0x2e
 4972 0166 00       		.byte	0
 4973 0167 3F       		.uleb128 0x3f
 4974 0168 19       		.uleb128 0x19
 4975 0169 03       		.uleb128 0x3
 4976 016a 0E       		.uleb128 0xe
 4977 016b 3A       		.uleb128 0x3a
 4978 016c 0B       		.uleb128 0xb
 4979 016d 3B       		.uleb128 0x3b
 4980 016e 0B       		.uleb128 0xb
 4981 016f 11       		.uleb128 0x11
ARM GAS  C:\Users\Davit\AppData\Local\Temp\cc4XR0T4.s 			page 97


 4982 0170 01       		.uleb128 0x1
 4983 0171 12       		.uleb128 0x12
 4984 0172 06       		.uleb128 0x6
 4985 0173 40       		.uleb128 0x40
 4986 0174 18       		.uleb128 0x18
 4987 0175 9642     		.uleb128 0x2116
 4988 0177 19       		.uleb128 0x19
 4989 0178 00       		.byte	0
 4990 0179 00       		.byte	0
 4991 017a 19       		.uleb128 0x19
 4992 017b 2E       		.uleb128 0x2e
 4993 017c 01       		.byte	0x1
 4994 017d 3F       		.uleb128 0x3f
 4995 017e 19       		.uleb128 0x19
 4996 017f 03       		.uleb128 0x3
 4997 0180 0E       		.uleb128 0xe
 4998 0181 3A       		.uleb128 0x3a
 4999 0182 0B       		.uleb128 0xb
 5000 0183 3B       		.uleb128 0x3b
 5001 0184 0B       		.uleb128 0xb
 5002 0185 27       		.uleb128 0x27
 5003 0186 19       		.uleb128 0x19
 5004 0187 11       		.uleb128 0x11
 5005 0188 01       		.uleb128 0x1
 5006 0189 12       		.uleb128 0x12
 5007 018a 06       		.uleb128 0x6
 5008 018b 40       		.uleb128 0x40
 5009 018c 18       		.uleb128 0x18
 5010 018d 9642     		.uleb128 0x2116
 5011 018f 19       		.uleb128 0x19
 5012 0190 01       		.uleb128 0x1
 5013 0191 13       		.uleb128 0x13
 5014 0192 00       		.byte	0
 5015 0193 00       		.byte	0
 5016 0194 1A       		.uleb128 0x1a
 5017 0195 2E       		.uleb128 0x2e
 5018 0196 01       		.byte	0x1
 5019 0197 3F       		.uleb128 0x3f
 5020 0198 19       		.uleb128 0x19
 5021 0199 03       		.uleb128 0x3
 5022 019a 0E       		.uleb128 0xe
 5023 019b 3A       		.uleb128 0x3a
 5024 019c 0B       		.uleb128 0xb
 5025 019d 3B       		.uleb128 0x3b
 5026 019e 0B       		.uleb128 0xb
 5027 019f 11       		.uleb128 0x11
 5028 01a0 01       		.uleb128 0x1
 5029 01a1 12       		.uleb128 0x12
 5030 01a2 06       		.uleb128 0x6
 5031 01a3 40       		.uleb128 0x40
 5032 01a4 18       		.uleb128 0x18
 5033 01a5 9642     		.uleb128 0x2116
 5034 01a7 19       		.uleb128 0x19
 5035 01a8 01       		.uleb128 0x1
 5036 01a9 13       		.uleb128 0x13
 5037 01aa 00       		.byte	0
 5038 01ab 00       		.byte	0
ARM GAS  C:\Users\Davit\AppData\Local\Temp\cc4XR0T4.s 			page 98


 5039 01ac 1B       		.uleb128 0x1b
 5040 01ad 2E       		.uleb128 0x2e
 5041 01ae 01       		.byte	0x1
 5042 01af 3F       		.uleb128 0x3f
 5043 01b0 19       		.uleb128 0x19
 5044 01b1 03       		.uleb128 0x3
 5045 01b2 0E       		.uleb128 0xe
 5046 01b3 3A       		.uleb128 0x3a
 5047 01b4 0B       		.uleb128 0xb
 5048 01b5 3B       		.uleb128 0x3b
 5049 01b6 0B       		.uleb128 0xb
 5050 01b7 11       		.uleb128 0x11
 5051 01b8 01       		.uleb128 0x1
 5052 01b9 12       		.uleb128 0x12
 5053 01ba 06       		.uleb128 0x6
 5054 01bb 40       		.uleb128 0x40
 5055 01bc 18       		.uleb128 0x18
 5056 01bd 9742     		.uleb128 0x2117
 5057 01bf 19       		.uleb128 0x19
 5058 01c0 01       		.uleb128 0x1
 5059 01c1 13       		.uleb128 0x13
 5060 01c2 00       		.byte	0
 5061 01c3 00       		.byte	0
 5062 01c4 1C       		.uleb128 0x1c
 5063 01c5 34       		.uleb128 0x34
 5064 01c6 00       		.byte	0
 5065 01c7 03       		.uleb128 0x3
 5066 01c8 08       		.uleb128 0x8
 5067 01c9 3A       		.uleb128 0x3a
 5068 01ca 0B       		.uleb128 0xb
 5069 01cb 3B       		.uleb128 0x3b
 5070 01cc 0B       		.uleb128 0xb
 5071 01cd 49       		.uleb128 0x49
 5072 01ce 13       		.uleb128 0x13
 5073 01cf 02       		.uleb128 0x2
 5074 01d0 18       		.uleb128 0x18
 5075 01d1 00       		.byte	0
 5076 01d2 00       		.byte	0
 5077 01d3 1D       		.uleb128 0x1d
 5078 01d4 2E       		.uleb128 0x2e
 5079 01d5 01       		.byte	0x1
 5080 01d6 3F       		.uleb128 0x3f
 5081 01d7 19       		.uleb128 0x19
 5082 01d8 03       		.uleb128 0x3
 5083 01d9 0E       		.uleb128 0xe
 5084 01da 3A       		.uleb128 0x3a
 5085 01db 0B       		.uleb128 0xb
 5086 01dc 3B       		.uleb128 0x3b
 5087 01dd 05       		.uleb128 0x5
 5088 01de 27       		.uleb128 0x27
 5089 01df 19       		.uleb128 0x19
 5090 01e0 11       		.uleb128 0x11
 5091 01e1 01       		.uleb128 0x1
 5092 01e2 12       		.uleb128 0x12
 5093 01e3 06       		.uleb128 0x6
 5094 01e4 40       		.uleb128 0x40
 5095 01e5 18       		.uleb128 0x18
ARM GAS  C:\Users\Davit\AppData\Local\Temp\cc4XR0T4.s 			page 99


 5096 01e6 9642     		.uleb128 0x2116
 5097 01e8 19       		.uleb128 0x19
 5098 01e9 01       		.uleb128 0x1
 5099 01ea 13       		.uleb128 0x13
 5100 01eb 00       		.byte	0
 5101 01ec 00       		.byte	0
 5102 01ed 1E       		.uleb128 0x1e
 5103 01ee 05       		.uleb128 0x5
 5104 01ef 00       		.byte	0
 5105 01f0 03       		.uleb128 0x3
 5106 01f1 0E       		.uleb128 0xe
 5107 01f2 3A       		.uleb128 0x3a
 5108 01f3 0B       		.uleb128 0xb
 5109 01f4 3B       		.uleb128 0x3b
 5110 01f5 05       		.uleb128 0x5
 5111 01f6 49       		.uleb128 0x49
 5112 01f7 13       		.uleb128 0x13
 5113 01f8 02       		.uleb128 0x2
 5114 01f9 18       		.uleb128 0x18
 5115 01fa 00       		.byte	0
 5116 01fb 00       		.byte	0
 5117 01fc 1F       		.uleb128 0x1f
 5118 01fd 34       		.uleb128 0x34
 5119 01fe 00       		.byte	0
 5120 01ff 03       		.uleb128 0x3
 5121 0200 0E       		.uleb128 0xe
 5122 0201 3A       		.uleb128 0x3a
 5123 0202 0B       		.uleb128 0xb
 5124 0203 3B       		.uleb128 0x3b
 5125 0204 05       		.uleb128 0x5
 5126 0205 49       		.uleb128 0x49
 5127 0206 13       		.uleb128 0x13
 5128 0207 02       		.uleb128 0x2
 5129 0208 18       		.uleb128 0x18
 5130 0209 00       		.byte	0
 5131 020a 00       		.byte	0
 5132 020b 20       		.uleb128 0x20
 5133 020c 2E       		.uleb128 0x2e
 5134 020d 00       		.byte	0
 5135 020e 3F       		.uleb128 0x3f
 5136 020f 19       		.uleb128 0x19
 5137 0210 03       		.uleb128 0x3
 5138 0211 0E       		.uleb128 0xe
 5139 0212 3A       		.uleb128 0x3a
 5140 0213 0B       		.uleb128 0xb
 5141 0214 3B       		.uleb128 0x3b
 5142 0215 05       		.uleb128 0x5
 5143 0216 11       		.uleb128 0x11
 5144 0217 01       		.uleb128 0x1
 5145 0218 12       		.uleb128 0x12
 5146 0219 06       		.uleb128 0x6
 5147 021a 40       		.uleb128 0x40
 5148 021b 18       		.uleb128 0x18
 5149 021c 9742     		.uleb128 0x2117
 5150 021e 19       		.uleb128 0x19
 5151 021f 00       		.byte	0
 5152 0220 00       		.byte	0
ARM GAS  C:\Users\Davit\AppData\Local\Temp\cc4XR0T4.s 			page 100


 5153 0221 21       		.uleb128 0x21
 5154 0222 2E       		.uleb128 0x2e
 5155 0223 00       		.byte	0
 5156 0224 3F       		.uleb128 0x3f
 5157 0225 19       		.uleb128 0x19
 5158 0226 03       		.uleb128 0x3
 5159 0227 0E       		.uleb128 0xe
 5160 0228 3A       		.uleb128 0x3a
 5161 0229 0B       		.uleb128 0xb
 5162 022a 3B       		.uleb128 0x3b
 5163 022b 05       		.uleb128 0x5
 5164 022c 49       		.uleb128 0x49
 5165 022d 13       		.uleb128 0x13
 5166 022e 11       		.uleb128 0x11
 5167 022f 01       		.uleb128 0x1
 5168 0230 12       		.uleb128 0x12
 5169 0231 06       		.uleb128 0x6
 5170 0232 40       		.uleb128 0x40
 5171 0233 18       		.uleb128 0x18
 5172 0234 9742     		.uleb128 0x2117
 5173 0236 19       		.uleb128 0x19
 5174 0237 00       		.byte	0
 5175 0238 00       		.byte	0
 5176 0239 22       		.uleb128 0x22
 5177 023a 2E       		.uleb128 0x2e
 5178 023b 01       		.byte	0x1
 5179 023c 3F       		.uleb128 0x3f
 5180 023d 19       		.uleb128 0x19
 5181 023e 03       		.uleb128 0x3
 5182 023f 0E       		.uleb128 0xe
 5183 0240 3A       		.uleb128 0x3a
 5184 0241 0B       		.uleb128 0xb
 5185 0242 3B       		.uleb128 0x3b
 5186 0243 05       		.uleb128 0x5
 5187 0244 27       		.uleb128 0x27
 5188 0245 19       		.uleb128 0x19
 5189 0246 11       		.uleb128 0x11
 5190 0247 01       		.uleb128 0x1
 5191 0248 12       		.uleb128 0x12
 5192 0249 06       		.uleb128 0x6
 5193 024a 40       		.uleb128 0x40
 5194 024b 18       		.uleb128 0x18
 5195 024c 9742     		.uleb128 0x2117
 5196 024e 19       		.uleb128 0x19
 5197 024f 01       		.uleb128 0x1
 5198 0250 13       		.uleb128 0x13
 5199 0251 00       		.byte	0
 5200 0252 00       		.byte	0
 5201 0253 23       		.uleb128 0x23
 5202 0254 2E       		.uleb128 0x2e
 5203 0255 01       		.byte	0x1
 5204 0256 3F       		.uleb128 0x3f
 5205 0257 19       		.uleb128 0x19
 5206 0258 03       		.uleb128 0x3
 5207 0259 0E       		.uleb128 0xe
 5208 025a 3A       		.uleb128 0x3a
 5209 025b 0B       		.uleb128 0xb
ARM GAS  C:\Users\Davit\AppData\Local\Temp\cc4XR0T4.s 			page 101


 5210 025c 3B       		.uleb128 0x3b
 5211 025d 05       		.uleb128 0x5
 5212 025e 27       		.uleb128 0x27
 5213 025f 19       		.uleb128 0x19
 5214 0260 49       		.uleb128 0x49
 5215 0261 13       		.uleb128 0x13
 5216 0262 11       		.uleb128 0x11
 5217 0263 01       		.uleb128 0x1
 5218 0264 12       		.uleb128 0x12
 5219 0265 06       		.uleb128 0x6
 5220 0266 40       		.uleb128 0x40
 5221 0267 18       		.uleb128 0x18
 5222 0268 9642     		.uleb128 0x2116
 5223 026a 19       		.uleb128 0x19
 5224 026b 01       		.uleb128 0x1
 5225 026c 13       		.uleb128 0x13
 5226 026d 00       		.byte	0
 5227 026e 00       		.byte	0
 5228 026f 24       		.uleb128 0x24
 5229 0270 05       		.uleb128 0x5
 5230 0271 00       		.byte	0
 5231 0272 03       		.uleb128 0x3
 5232 0273 08       		.uleb128 0x8
 5233 0274 3A       		.uleb128 0x3a
 5234 0275 0B       		.uleb128 0xb
 5235 0276 3B       		.uleb128 0x3b
 5236 0277 05       		.uleb128 0x5
 5237 0278 49       		.uleb128 0x49
 5238 0279 13       		.uleb128 0x13
 5239 027a 02       		.uleb128 0x2
 5240 027b 18       		.uleb128 0x18
 5241 027c 00       		.byte	0
 5242 027d 00       		.byte	0
 5243 027e 25       		.uleb128 0x25
 5244 027f 0B       		.uleb128 0xb
 5245 0280 01       		.byte	0x1
 5246 0281 11       		.uleb128 0x11
 5247 0282 01       		.uleb128 0x1
 5248 0283 12       		.uleb128 0x12
 5249 0284 06       		.uleb128 0x6
 5250 0285 01       		.uleb128 0x1
 5251 0286 13       		.uleb128 0x13
 5252 0287 00       		.byte	0
 5253 0288 00       		.byte	0
 5254 0289 26       		.uleb128 0x26
 5255 028a 2E       		.uleb128 0x2e
 5256 028b 01       		.byte	0x1
 5257 028c 3F       		.uleb128 0x3f
 5258 028d 19       		.uleb128 0x19
 5259 028e 03       		.uleb128 0x3
 5260 028f 0E       		.uleb128 0xe
 5261 0290 3A       		.uleb128 0x3a
 5262 0291 0B       		.uleb128 0xb
 5263 0292 3B       		.uleb128 0x3b
 5264 0293 05       		.uleb128 0x5
 5265 0294 27       		.uleb128 0x27
 5266 0295 19       		.uleb128 0x19
ARM GAS  C:\Users\Davit\AppData\Local\Temp\cc4XR0T4.s 			page 102


 5267 0296 49       		.uleb128 0x49
 5268 0297 13       		.uleb128 0x13
 5269 0298 11       		.uleb128 0x11
 5270 0299 01       		.uleb128 0x1
 5271 029a 12       		.uleb128 0x12
 5272 029b 06       		.uleb128 0x6
 5273 029c 40       		.uleb128 0x40
 5274 029d 18       		.uleb128 0x18
 5275 029e 9742     		.uleb128 0x2117
 5276 02a0 19       		.uleb128 0x19
 5277 02a1 01       		.uleb128 0x1
 5278 02a2 13       		.uleb128 0x13
 5279 02a3 00       		.byte	0
 5280 02a4 00       		.byte	0
 5281 02a5 27       		.uleb128 0x27
 5282 02a6 2E       		.uleb128 0x2e
 5283 02a7 00       		.byte	0
 5284 02a8 3F       		.uleb128 0x3f
 5285 02a9 19       		.uleb128 0x19
 5286 02aa 03       		.uleb128 0x3
 5287 02ab 0E       		.uleb128 0xe
 5288 02ac 3A       		.uleb128 0x3a
 5289 02ad 0B       		.uleb128 0xb
 5290 02ae 3B       		.uleb128 0x3b
 5291 02af 05       		.uleb128 0x5
 5292 02b0 11       		.uleb128 0x11
 5293 02b1 01       		.uleb128 0x1
 5294 02b2 12       		.uleb128 0x12
 5295 02b3 06       		.uleb128 0x6
 5296 02b4 40       		.uleb128 0x40
 5297 02b5 18       		.uleb128 0x18
 5298 02b6 9642     		.uleb128 0x2116
 5299 02b8 19       		.uleb128 0x19
 5300 02b9 00       		.byte	0
 5301 02ba 00       		.byte	0
 5302 02bb 28       		.uleb128 0x28
 5303 02bc 2E       		.uleb128 0x2e
 5304 02bd 00       		.byte	0
 5305 02be 3F       		.uleb128 0x3f
 5306 02bf 19       		.uleb128 0x19
 5307 02c0 03       		.uleb128 0x3
 5308 02c1 0E       		.uleb128 0xe
 5309 02c2 3A       		.uleb128 0x3a
 5310 02c3 0B       		.uleb128 0xb
 5311 02c4 3B       		.uleb128 0x3b
 5312 02c5 05       		.uleb128 0x5
 5313 02c6 49       		.uleb128 0x49
 5314 02c7 13       		.uleb128 0x13
 5315 02c8 11       		.uleb128 0x11
 5316 02c9 01       		.uleb128 0x1
 5317 02ca 12       		.uleb128 0x12
 5318 02cb 06       		.uleb128 0x6
 5319 02cc 40       		.uleb128 0x40
 5320 02cd 18       		.uleb128 0x18
 5321 02ce 9642     		.uleb128 0x2116
 5322 02d0 19       		.uleb128 0x19
 5323 02d1 00       		.byte	0
ARM GAS  C:\Users\Davit\AppData\Local\Temp\cc4XR0T4.s 			page 103


 5324 02d2 00       		.byte	0
 5325 02d3 29       		.uleb128 0x29
 5326 02d4 15       		.uleb128 0x15
 5327 02d5 01       		.byte	0x1
 5328 02d6 01       		.uleb128 0x1
 5329 02d7 13       		.uleb128 0x13
 5330 02d8 00       		.byte	0
 5331 02d9 00       		.byte	0
 5332 02da 2A       		.uleb128 0x2a
 5333 02db 18       		.uleb128 0x18
 5334 02dc 00       		.byte	0
 5335 02dd 00       		.byte	0
 5336 02de 00       		.byte	0
 5337 02df 2B       		.uleb128 0x2b
 5338 02e0 2E       		.uleb128 0x2e
 5339 02e1 01       		.byte	0x1
 5340 02e2 3F       		.uleb128 0x3f
 5341 02e3 19       		.uleb128 0x19
 5342 02e4 03       		.uleb128 0x3
 5343 02e5 0E       		.uleb128 0xe
 5344 02e6 3A       		.uleb128 0x3a
 5345 02e7 0B       		.uleb128 0xb
 5346 02e8 3B       		.uleb128 0x3b
 5347 02e9 05       		.uleb128 0x5
 5348 02ea 11       		.uleb128 0x11
 5349 02eb 01       		.uleb128 0x1
 5350 02ec 12       		.uleb128 0x12
 5351 02ed 06       		.uleb128 0x6
 5352 02ee 40       		.uleb128 0x40
 5353 02ef 18       		.uleb128 0x18
 5354 02f0 9642     		.uleb128 0x2116
 5355 02f2 19       		.uleb128 0x19
 5356 02f3 01       		.uleb128 0x1
 5357 02f4 13       		.uleb128 0x13
 5358 02f5 00       		.byte	0
 5359 02f6 00       		.byte	0
 5360 02f7 2C       		.uleb128 0x2c
 5361 02f8 34       		.uleb128 0x34
 5362 02f9 00       		.byte	0
 5363 02fa 03       		.uleb128 0x3
 5364 02fb 0E       		.uleb128 0xe
 5365 02fc 3A       		.uleb128 0x3a
 5366 02fd 0B       		.uleb128 0xb
 5367 02fe 3B       		.uleb128 0x3b
 5368 02ff 0B       		.uleb128 0xb
 5369 0300 49       		.uleb128 0x49
 5370 0301 13       		.uleb128 0x13
 5371 0302 3F       		.uleb128 0x3f
 5372 0303 19       		.uleb128 0x19
 5373 0304 02       		.uleb128 0x2
 5374 0305 18       		.uleb128 0x18
 5375 0306 00       		.byte	0
 5376 0307 00       		.byte	0
 5377 0308 00       		.byte	0
 5378              		.section	.debug_aranges,"",%progbits
 5379 0000 3C010000 		.4byte	0x13c
 5380 0004 0200     		.2byte	0x2
ARM GAS  C:\Users\Davit\AppData\Local\Temp\cc4XR0T4.s 			page 104


 5381 0006 00000000 		.4byte	.Ldebug_info0
 5382 000a 04       		.byte	0x4
 5383 000b 00       		.byte	0
 5384 000c 0000     		.2byte	0
 5385 000e 0000     		.2byte	0
 5386 0010 00000000 		.4byte	.LFB37
 5387 0014 32000000 		.4byte	.LFE37-.LFB37
 5388 0018 00000000 		.4byte	.LFB38
 5389 001c 38000000 		.4byte	.LFE38-.LFB38
 5390 0020 00000000 		.4byte	.LFB39
 5391 0024 1A000000 		.4byte	.LFE39-.LFB39
 5392 0028 00000000 		.4byte	.LFB40
 5393 002c 54000000 		.4byte	.LFE40-.LFB40
 5394 0030 00000000 		.4byte	.LFB41
 5395 0034 14000000 		.4byte	.LFE41-.LFB41
 5396 0038 00000000 		.4byte	.LFB42
 5397 003c 08020000 		.4byte	.LFE42-.LFB42
 5398 0040 00000000 		.4byte	.LFB43
 5399 0044 10010000 		.4byte	.LFE43-.LFB43
 5400 0048 00000000 		.4byte	.LFB44
 5401 004c 2E000000 		.4byte	.LFE44-.LFB44
 5402 0050 00000000 		.4byte	.LFB45
 5403 0054 1E000000 		.4byte	.LFE45-.LFB45
 5404 0058 00000000 		.4byte	.LFB46
 5405 005c 42000000 		.4byte	.LFE46-.LFB46
 5406 0060 00000000 		.4byte	.LFB47
 5407 0064 46000000 		.4byte	.LFE47-.LFB47
 5408 0068 00000000 		.4byte	.LFB48
 5409 006c 32000000 		.4byte	.LFE48-.LFB48
 5410 0070 00000000 		.4byte	.LFB49
 5411 0074 52000000 		.4byte	.LFE49-.LFB49
 5412 0078 00000000 		.4byte	.LFB50
 5413 007c 0C000000 		.4byte	.LFE50-.LFB50
 5414 0080 00000000 		.4byte	.LFB51
 5415 0084 70000000 		.4byte	.LFE51-.LFB51
 5416 0088 00000000 		.4byte	.LFB52
 5417 008c 54000000 		.4byte	.LFE52-.LFB52
 5418 0090 00000000 		.4byte	.LFB53
 5419 0094 6C000000 		.4byte	.LFE53-.LFB53
 5420 0098 00000000 		.4byte	.LFB54
 5421 009c 50000000 		.4byte	.LFE54-.LFB54
 5422 00a0 00000000 		.4byte	.LFB55
 5423 00a4 10010000 		.4byte	.LFE55-.LFB55
 5424 00a8 00000000 		.4byte	.LFB56
 5425 00ac 94010000 		.4byte	.LFE56-.LFB56
 5426 00b0 00000000 		.4byte	.LFB57
 5427 00b4 38000000 		.4byte	.LFE57-.LFB57
 5428 00b8 00000000 		.4byte	.LFB58
 5429 00bc 18000000 		.4byte	.LFE58-.LFB58
 5430 00c0 00000000 		.4byte	.LFB59
 5431 00c4 4C000000 		.4byte	.LFE59-.LFB59
 5432 00c8 00000000 		.4byte	.LFB60
 5433 00cc AC000000 		.4byte	.LFE60-.LFB60
 5434 00d0 00000000 		.4byte	.LFB61
 5435 00d4 3C000000 		.4byte	.LFE61-.LFB61
 5436 00d8 00000000 		.4byte	.LFB62
 5437 00dc 14000000 		.4byte	.LFE62-.LFB62
ARM GAS  C:\Users\Davit\AppData\Local\Temp\cc4XR0T4.s 			page 105


 5438 00e0 00000000 		.4byte	.LFB63
 5439 00e4 A0000000 		.4byte	.LFE63-.LFB63
 5440 00e8 00000000 		.4byte	.LFB64
 5441 00ec 98000000 		.4byte	.LFE64-.LFB64
 5442 00f0 00000000 		.4byte	.LFB65
 5443 00f4 30000000 		.4byte	.LFE65-.LFB65
 5444 00f8 00000000 		.4byte	.LFB66
 5445 00fc 50000000 		.4byte	.LFE66-.LFB66
 5446 0100 00000000 		.4byte	.LFB67
 5447 0104 50000000 		.4byte	.LFE67-.LFB67
 5448 0108 00000000 		.4byte	.LFB68
 5449 010c 10000000 		.4byte	.LFE68-.LFB68
 5450 0110 00000000 		.4byte	.LFB69
 5451 0114 10000000 		.4byte	.LFE69-.LFB69
 5452 0118 00000000 		.4byte	.LFB70
 5453 011c 14000000 		.4byte	.LFE70-.LFB70
 5454 0120 00000000 		.4byte	.LFB71
 5455 0124 0E000000 		.4byte	.LFE71-.LFB71
 5456 0128 00000000 		.4byte	.LFB72
 5457 012c F4000000 		.4byte	.LFE72-.LFB72
 5458 0130 00000000 		.4byte	.LFB73
 5459 0134 E0000000 		.4byte	.LFE73-.LFB73
 5460 0138 00000000 		.4byte	0
 5461 013c 00000000 		.4byte	0
 5462              		.section	.debug_ranges,"",%progbits
 5463              	.Ldebug_ranges0:
 5464 0000 00000000 		.4byte	.LFB37
 5465 0004 32000000 		.4byte	.LFE37
 5466 0008 00000000 		.4byte	.LFB38
 5467 000c 38000000 		.4byte	.LFE38
 5468 0010 00000000 		.4byte	.LFB39
 5469 0014 1A000000 		.4byte	.LFE39
 5470 0018 00000000 		.4byte	.LFB40
 5471 001c 54000000 		.4byte	.LFE40
 5472 0020 00000000 		.4byte	.LFB41
 5473 0024 14000000 		.4byte	.LFE41
 5474 0028 00000000 		.4byte	.LFB42
 5475 002c 08020000 		.4byte	.LFE42
 5476 0030 00000000 		.4byte	.LFB43
 5477 0034 10010000 		.4byte	.LFE43
 5478 0038 00000000 		.4byte	.LFB44
 5479 003c 2E000000 		.4byte	.LFE44
 5480 0040 00000000 		.4byte	.LFB45
 5481 0044 1E000000 		.4byte	.LFE45
 5482 0048 00000000 		.4byte	.LFB46
 5483 004c 42000000 		.4byte	.LFE46
 5484 0050 00000000 		.4byte	.LFB47
 5485 0054 46000000 		.4byte	.LFE47
 5486 0058 00000000 		.4byte	.LFB48
 5487 005c 32000000 		.4byte	.LFE48
 5488 0060 00000000 		.4byte	.LFB49
 5489 0064 52000000 		.4byte	.LFE49
 5490 0068 00000000 		.4byte	.LFB50
 5491 006c 0C000000 		.4byte	.LFE50
 5492 0070 00000000 		.4byte	.LFB51
 5493 0074 70000000 		.4byte	.LFE51
 5494 0078 00000000 		.4byte	.LFB52
ARM GAS  C:\Users\Davit\AppData\Local\Temp\cc4XR0T4.s 			page 106


 5495 007c 54000000 		.4byte	.LFE52
 5496 0080 00000000 		.4byte	.LFB53
 5497 0084 6C000000 		.4byte	.LFE53
 5498 0088 00000000 		.4byte	.LFB54
 5499 008c 50000000 		.4byte	.LFE54
 5500 0090 00000000 		.4byte	.LFB55
 5501 0094 10010000 		.4byte	.LFE55
 5502 0098 00000000 		.4byte	.LFB56
 5503 009c 94010000 		.4byte	.LFE56
 5504 00a0 00000000 		.4byte	.LFB57
 5505 00a4 38000000 		.4byte	.LFE57
 5506 00a8 00000000 		.4byte	.LFB58
 5507 00ac 18000000 		.4byte	.LFE58
 5508 00b0 00000000 		.4byte	.LFB59
 5509 00b4 4C000000 		.4byte	.LFE59
 5510 00b8 00000000 		.4byte	.LFB60
 5511 00bc AC000000 		.4byte	.LFE60
 5512 00c0 00000000 		.4byte	.LFB61
 5513 00c4 3C000000 		.4byte	.LFE61
 5514 00c8 00000000 		.4byte	.LFB62
 5515 00cc 14000000 		.4byte	.LFE62
 5516 00d0 00000000 		.4byte	.LFB63
 5517 00d4 A0000000 		.4byte	.LFE63
 5518 00d8 00000000 		.4byte	.LFB64
 5519 00dc 98000000 		.4byte	.LFE64
 5520 00e0 00000000 		.4byte	.LFB65
 5521 00e4 30000000 		.4byte	.LFE65
 5522 00e8 00000000 		.4byte	.LFB66
 5523 00ec 50000000 		.4byte	.LFE66
 5524 00f0 00000000 		.4byte	.LFB67
 5525 00f4 50000000 		.4byte	.LFE67
 5526 00f8 00000000 		.4byte	.LFB68
 5527 00fc 10000000 		.4byte	.LFE68
 5528 0100 00000000 		.4byte	.LFB69
 5529 0104 10000000 		.4byte	.LFE69
 5530 0108 00000000 		.4byte	.LFB70
 5531 010c 14000000 		.4byte	.LFE70
 5532 0110 00000000 		.4byte	.LFB71
 5533 0114 0E000000 		.4byte	.LFE71
 5534 0118 00000000 		.4byte	.LFB72
 5535 011c F4000000 		.4byte	.LFE72
 5536 0120 00000000 		.4byte	.LFB73
 5537 0124 E0000000 		.4byte	.LFE73
 5538 0128 00000000 		.4byte	0
 5539 012c 00000000 		.4byte	0
 5540              		.section	.debug_line,"",%progbits
 5541              	.Ldebug_line0:
 5542 0000 AB050000 		.section	.debug_str,"MS",%progbits,1
 5542      02008001 
 5542      00000201 
 5542      FB0E0D00 
 5542      01010101 
 5543              	.LASF152:
 5544 0000 50756C73 		.ascii	"PulseOximeterDebuggingMode\000"
 5544      654F7869 
 5544      6D657465 
 5544      72446562 
ARM GAS  C:\Users\Davit\AppData\Local\Temp\cc4XR0T4.s 			page 107


 5544      75676769 
 5545              	.LASF49:
 5546 001b 73697A65 		.ascii	"sizetype\000"
 5546      74797065 
 5546      00
 5547              	.LASF32:
 5548 0024 4C454443 		.ascii	"LEDCurrent\000"
 5548      75727265 
 5548      6E7400
 5549              	.LASF156:
 5550 002f 50554C53 		.ascii	"PULSEOXIMETER_DEBUGGINGMODE_PULSEDETECT\000"
 5550      454F5849 
 5550      4D455445 
 5550      525F4445 
 5550      42554747 
 5551              	.LASF232:
 5552 0057 6368616E 		.ascii	"changed\000"
 5552      67656400 
 5553              	.LASF124:
 5554 005f 42454154 		.ascii	"BEATDETECTOR_STATE_INIT\000"
 5554      44455445 
 5554      43544F52 
 5554      5F535441 
 5554      54455F49 
 5555              	.LASF77:
 5556 0077 4359424C 		.ascii	"CYBLE_EVT_GAP_NUMERIC_COMPARISON_REQUEST\000"
 5556      455F4556 
 5556      545F4741 
 5556      505F4E55 
 5556      4D455249 
 5557              	.LASF21:
 5558 00a0 4D415833 		.ascii	"MAX30100_SAMPRATE_167HZ\000"
 5558      30313030 
 5558      5F53414D 
 5558      50524154 
 5558      455F3136 
 5559              	.LASF43:
 5560 00b8 4D415833 		.ascii	"MAX30100_LED_CURR_33_8MA\000"
 5560      30313030 
 5560      5F4C4544 
 5560      5F435552 
 5560      525F3333 
 5561              	.LASF85:
 5562 00d1 4359424C 		.ascii	"CYBLE_EVT_GATT_CONNECT_IND\000"
 5562      455F4556 
 5562      545F4741 
 5562      54545F43 
 5562      4F4E4E45 
 5563              	.LASF31:
 5564 00ec 4D415833 		.ascii	"MAX30100_SPC_PW_1600US_16BITS\000"
 5564      30313030 
 5564      5F535043 
 5564      5F50575F 
 5564      31363030 
 5565              	.LASF166:
 5566 010a 62656174 		.ascii	"beatDetector\000"
 5566      44657465 
ARM GAS  C:\Users\Davit\AppData\Local\Temp\cc4XR0T4.s 			page 108


 5566      63746F72 
 5566      00
 5567              	.LASF239:
 5568 0117 676C6F62 		.ascii	"globalHrm\000"
 5568      616C4872 
 5568      6D00
 5569              	.LASF81:
 5570 0121 4359424C 		.ascii	"CYBLE_EVT_GAP_ENHANCE_CONN_COMPLETE\000"
 5570      455F4556 
 5570      545F4741 
 5570      505F454E 
 5570      48414E43 
 5571              	.LASF129:
 5572 0145 73746174 		.ascii	"state\000"
 5572      6500
 5573              	.LASF105:
 5574 014b 4359424C 		.ascii	"CYBLE_EVT_GATTS_DATA_SIGNED_CMD_REQ\000"
 5574      455F4556 
 5574      545F4741 
 5574      5454535F 
 5574      44415441 
 5575              	.LASF117:
 5576 016f 4359424C 		.ascii	"CYBLE_EVT_L2CAP_CBFC_RX_CREDIT_IND\000"
 5576      455F4556 
 5576      545F4C32 
 5576      4341505F 
 5576      43424643 
 5577              	.LASF214:
 5578 0192 74797065 		.ascii	"type\000"
 5578      00
 5579              	.LASF178:
 5580 0197 42656174 		.ascii	"BeatDetector_Init\000"
 5580      44657465 
 5580      63746F72 
 5580      5F496E69 
 5580      7400
 5581              	.LASF42:
 5582 01a9 4D415833 		.ascii	"MAX30100_LED_CURR_30_6MA\000"
 5582      30313030 
 5582      5F4C4544 
 5582      5F435552 
 5582      525F3330 
 5583              	.LASF186:
 5584 01c2 4D415833 		.ascii	"MAX30100_setSamplingRate\000"
 5584      30313030 
 5584      5F736574 
 5584      53616D70 
 5584      6C696E67 
 5585              	.LASF102:
 5586 01db 4359424C 		.ascii	"CYBLE_EVT_GATTC_HANDLE_VALUE_NTF\000"
 5586      455F4556 
 5586      545F4741 
 5586      5454435F 
 5586      48414E44 
 5587              	.LASF65:
 5588 01fc 4359424C 		.ascii	"CYBLE_EVT_GAP_AUTH_REQ\000"
 5588      455F4556 
ARM GAS  C:\Users\Davit\AppData\Local\Temp\cc4XR0T4.s 			page 109


 5588      545F4741 
 5588      505F4155 
 5588      54485F52 
 5589              	.LASF151:
 5590 0213 50554C53 		.ascii	"PULSEOXIMETER_STATE_DETECTING\000"
 5590      454F5849 
 5590      4D455445 
 5590      525F5354 
 5590      4154455F 
 5591              	.LASF79:
 5592 0231 4359424C 		.ascii	"CYBLE_EVT_GAP_OOB_GENERATED_NOTIFICATION\000"
 5592      455F4556 
 5592      545F4741 
 5592      505F4F4F 
 5592      425F4745 
 5593              	.LASF164:
 5594 025a 74734C61 		.ascii	"tsLastTemperaturePoll\000"
 5594      73745465 
 5594      6D706572 
 5594      61747572 
 5594      65506F6C 
 5595              	.LASF3:
 5596 0270 5F5F7569 		.ascii	"__uint8_t\000"
 5596      6E74385F 
 5596      7400
 5597              	.LASF23:
 5598 027a 4D415833 		.ascii	"MAX30100_SAMPRATE_400HZ\000"
 5598      30313030 
 5598      5F53414D 
 5598      50524154 
 5598      455F3430 
 5599              	.LASF146:
 5600 0292 616C7068 		.ascii	"alpha\000"
 5600      6100
 5601              	.LASF148:
 5602 0298 50756C73 		.ascii	"PulseOximeterState\000"
 5602      654F7869 
 5602      6D657465 
 5602      72537461 
 5602      746500
 5603              	.LASF165:
 5604 02ab 7265644C 		.ascii	"redLedPower\000"
 5604      6564506F 
 5604      77657200 
 5605              	.LASF98:
 5606 02b7 4359424C 		.ascii	"CYBLE_EVT_GATTS_WRITE_CMD_REQ\000"
 5606      455F4556 
 5606      545F4741 
 5606      5454535F 
 5606      57524954 
 5607              	.LASF224:
 5608 02d5 50756C73 		.ascii	"PulseOximeter_update\000"
 5608      654F7869 
 5608      6D657465 
 5608      725F7570 
 5608      64617465 
 5609              	.LASF56:
ARM GAS  C:\Users\Davit\AppData\Local\Temp\cc4XR0T4.s 			page 110


 5610 02ea 75696E74 		.ascii	"uint64\000"
 5610      363400
 5611              	.LASF6:
 5612 02f1 6C6F6E67 		.ascii	"long int\000"
 5612      20696E74 
 5612      00
 5613              	.LASF180:
 5614 02fa 4D415833 		.ascii	"MAX30100_begin\000"
 5614      30313030 
 5614      5F626567 
 5614      696E00
 5615              	.LASF236:
 5616 0309 676C6F62 		.ascii	"globalRedDCRemover\000"
 5616      616C5265 
 5616      64444352 
 5616      656D6F76 
 5616      657200
 5617              	.LASF197:
 5618 031c 52656164 		.ascii	"Read_Buf\000"
 5618      5F427566 
 5618      00
 5619              	.LASF58:
 5620 0325 4359424C 		.ascii	"CYBLE_EVT_STACK_ON\000"
 5620      455F4556 
 5620      545F5354 
 5620      41434B5F 
 5620      4F4E00
 5621              	.LASF19:
 5622 0338 4D415833 		.ascii	"MAX30100_SAMPRATE_50HZ\000"
 5622      30313030 
 5622      5F53414D 
 5622      50524154 
 5622      455F3530 
 5623              	.LASF229:
 5624 034f 50756C73 		.ascii	"PulseOximeter_checkSample\000"
 5624      654F7869 
 5624      6D657465 
 5624      725F6368 
 5624      65636B53 
 5625              	.LASF211:
 5626 0369 53704F32 		.ascii	"SpO2Calculator_reset\000"
 5626      43616C63 
 5626      756C6174 
 5626      6F725F72 
 5626      65736574 
 5627              	.LASF145:
 5628 037e 44435265 		.ascii	"DCRemover\000"
 5628      6D6F7665 
 5628      7200
 5629              	.LASF111:
 5630 0388 4359424C 		.ascii	"CYBLE_EVT_L2CAP_COMMAND_REJ\000"
 5630      455F4556 
 5630      545F4C32 
 5630      4341505F 
 5630      434F4D4D 
 5631              	.LASF184:
 5632 03a4 6C656450 		.ascii	"ledPulseWidth\000"
ARM GAS  C:\Users\Davit\AppData\Local\Temp\cc4XR0T4.s 			page 111


 5632      756C7365 
 5632      57696474 
 5632      6800
 5633              	.LASF0:
 5634 03b2 7369676E 		.ascii	"signed char\000"
 5634      65642063 
 5634      68617200 
 5635              	.LASF12:
 5636 03be 75696E74 		.ascii	"uint8_t\000"
 5636      385F7400 
 5637              	.LASF139:
 5638 03c6 73704F32 		.ascii	"spO2LUT\000"
 5638      4C555400 
 5639              	.LASF60:
 5640 03ce 4359424C 		.ascii	"CYBLE_EVT_HARDWARE_ERROR\000"
 5640      455F4556 
 5640      545F4841 
 5640      52445741 
 5640      52455F45 
 5641              	.LASF143:
 5642 03e7 73616D70 		.ascii	"samplesRecorded\000"
 5642      6C657352 
 5642      65636F72 
 5642      64656400 
 5643              	.LASF89:
 5644 03f7 4359424C 		.ascii	"CYBLE_EVT_GATTC_READ_BY_GROUP_TYPE_RSP\000"
 5644      455F4556 
 5644      545F4741 
 5644      5454435F 
 5644      52454144 
 5645              	.LASF1:
 5646 041e 756E7369 		.ascii	"unsigned char\000"
 5646      676E6564 
 5646      20636861 
 5646      7200
 5647              	.LASF88:
 5648 042c 4359424C 		.ascii	"CYBLE_EVT_GATTC_XCHNG_MTU_RSP\000"
 5648      455F4556 
 5648      545F4741 
 5648      5454435F 
 5648      5843484E 
 5649              	.LASF45:
 5650 044a 4D415833 		.ascii	"MAX30100_LED_CURR_40_2MA\000"
 5650      30313030 
 5650      5F4C4544 
 5650      5F435552 
 5650      525F3430 
 5651              	.LASF83:
 5652 0463 4359424C 		.ascii	"CYBLE_EVT_GAP_SMP_NEGOTIATED_AUTH_INFO\000"
 5652      455F4556 
 5652      545F4741 
 5652      505F534D 
 5652      505F4E45 
 5653              	.LASF118:
 5654 048a 4359424C 		.ascii	"CYBLE_EVT_L2CAP_CBFC_TX_CREDIT_IND\000"
 5654      455F4556 
 5654      545F4C32 
ARM GAS  C:\Users\Davit\AppData\Local\Temp\cc4XR0T4.s 			page 112


 5654      4341505F 
 5654      43424643 
 5655              	.LASF162:
 5656 04ad 74734C61 		.ascii	"tsLastBiasCheck\000"
 5656      73744269 
 5656      61734368 
 5656      65636B00 
 5657              	.LASF183:
 5658 04bd 4D415833 		.ascii	"MAX30100_setLedsPulseWidth\000"
 5658      30313030 
 5658      5F736574 
 5658      4C656473 
 5658      50756C73 
 5659              	.LASF115:
 5660 04d8 4359424C 		.ascii	"CYBLE_EVT_L2CAP_CBFC_DISCONN_CNF\000"
 5660      455F4556 
 5660      545F4C32 
 5660      4341505F 
 5660      43424643 
 5661              	.LASF92:
 5662 04f9 4359424C 		.ascii	"CYBLE_EVT_GATTC_FIND_BY_TYPE_VALUE_RSP\000"
 5662      455F4556 
 5662      545F4741 
 5662      5454435F 
 5662      46494E44 
 5663              	.LASF71:
 5664 0520 4359424C 		.ascii	"CYBLE_EVT_GAP_DEVICE_CONNECTED\000"
 5664      455F4556 
 5664      545F4741 
 5664      505F4445 
 5664      56494345 
 5665              	.LASF50:
 5666 053f 63686172 		.ascii	"char\000"
 5666      00
 5667              	.LASF243:
 5668 0544 433A5C55 		.ascii	"C:\\Users\\Davit\\Documents\\GitHub\\BioSnap\\Maste"
 5668      73657273 
 5668      5C446176 
 5668      69745C44 
 5668      6F63756D 
 5669 0571 725F7632 		.ascii	"r_v2\\Master_2.cydsn\000"
 5669      5C4D6173 
 5669      7465725F 
 5669      322E6379 
 5669      64736E00 
 5670              	.LASF193:
 5671 0585 4D415833 		.ascii	"MAX30100_update\000"
 5671      30313030 
 5671      5F757064 
 5671      61746500 
 5672              	.LASF95:
 5673 0595 4359424C 		.ascii	"CYBLE_EVT_GATTC_READ_MULTI_RSP\000"
 5673      455F4556 
 5673      545F4741 
 5673      5454435F 
 5673      52454144 
 5674              	.LASF240:
ARM GAS  C:\Users\Davit\AppData\Local\Temp\cc4XR0T4.s 			page 113


 5675 05b4 6E756D42 		.ascii	"numBeats\000"
 5675      65617473 
 5675      00
 5676              	.LASF57:
 5677 05bd 4359424C 		.ascii	"CYBLE_EVT_HOST_INVALID\000"
 5677      455F4556 
 5677      545F484F 
 5677      53545F49 
 5677      4E56414C 
 5678              	.LASF82:
 5679 05d4 4359424C 		.ascii	"CYBLE_EVT_GAPC_DIRECT_ADV_REPORT\000"
 5679      455F4556 
 5679      545F4741 
 5679      50435F44 
 5679      49524543 
 5680              	.LASF26:
 5681 05f5 4D415833 		.ascii	"MAX30100_SAMPRATE_1000HZ\000"
 5681      30313030 
 5681      5F53414D 
 5681      50524154 
 5681      455F3130 
 5682              	.LASF4:
 5683 060e 5F5F7569 		.ascii	"__uint16_t\000"
 5683      6E743136 
 5683      5F7400
 5684              	.LASF94:
 5685 0619 4359424C 		.ascii	"CYBLE_EVT_GATTC_READ_BLOB_RSP\000"
 5685      455F4556 
 5685      545F4741 
 5685      5454435F 
 5685      52454144 
 5686              	.LASF219:
 5687 0637 46696C74 		.ascii	"FilterBuLp1_step\000"
 5687      65724275 
 5687      4C70315F 
 5687      73746570 
 5687      00
 5688              	.LASF138:
 5689 0648 53704F32 		.ascii	"SpO2Calculator\000"
 5689      43616C63 
 5689      756C6174 
 5689      6F7200
 5690              	.LASF101:
 5691 0657 4359424C 		.ascii	"CYBLE_EVT_GATTC_EXEC_WRITE_RSP\000"
 5691      455F4556 
 5691      545F4741 
 5691      5454435F 
 5691      45584543 
 5692              	.LASF176:
 5693 0676 62656174 		.ascii	"beatDetected\000"
 5693      44657465 
 5693      63746564 
 5693      00
 5694              	.LASF106:
 5695 0683 4359424C 		.ascii	"CYBLE_EVT_GATTC_STOP_CMD_COMPLETE\000"
 5695      455F4556 
 5695      545F4741 
ARM GAS  C:\Users\Davit\AppData\Local\Temp\cc4XR0T4.s 			page 114


 5695      5454435F 
 5695      53544F50 
 5696              	.LASF169:
 5697 06a5 73704F32 		.ascii	"spO2calculator\000"
 5697      63616C63 
 5697      756C6174 
 5697      6F7200
 5698              	.LASF172:
 5699 06b4 73616D70 		.ascii	"sample\000"
 5699      6C6500
 5700              	.LASF227:
 5701 06bb 50756C73 		.ascii	"PulseOximeter_getRedLedCurrentBias\000"
 5701      654F7869 
 5701      6D657465 
 5701      725F6765 
 5701      74526564 
 5702              	.LASF225:
 5703 06de 50756C73 		.ascii	"PulseOximeter_getHeartRate\000"
 5703      654F7869 
 5703      6D657465 
 5703      725F6765 
 5703      74486561 
 5704              	.LASF179:
 5705 06f9 42656174 		.ascii	"BeatDetector_decreaseThreshold\000"
 5705      44657465 
 5705      63746F72 
 5705      5F646563 
 5705      72656173 
 5706              	.LASF126:
 5707 0718 42454154 		.ascii	"BEATDETECTOR_STATE_FOLLOWING_SLOPE\000"
 5707      44455445 
 5707      43544F52 
 5707      5F535441 
 5707      54455F46 
 5708              	.LASF221:
 5709 073b 6D696C6C 		.ascii	"millis\000"
 5709      697300
 5710              	.LASF234:
 5711 0742 676C6F62 		.ascii	"globalBeatDetector\000"
 5711      616C4265 
 5711      61744465 
 5711      74656374 
 5711      6F7200
 5712              	.LASF212:
 5713 0755 53704F32 		.ascii	"SpO2Calculator_getSpO2\000"
 5713      43616C63 
 5713      756C6174 
 5713      6F725F67 
 5713      65745370 
 5714              	.LASF171:
 5715 076c 42656174 		.ascii	"BeatDetector_addSample\000"
 5715      44657465 
 5715      63746F72 
 5715      5F616464 
 5715      53616D70 
 5716              	.LASF142:
 5717 0783 62656174 		.ascii	"beatsDetectedNum\000"
ARM GAS  C:\Users\Davit\AppData\Local\Temp\cc4XR0T4.s 			page 115


 5717      73446574 
 5717      65637465 
 5717      644E756D 
 5717      00
 5718              	.LASF136:
 5719 0794 72617749 		.ascii	"rawIRValue\000"
 5719      5256616C 
 5719      756500
 5720              	.LASF202:
 5721 079f 62756666 		.ascii	"buffer\000"
 5721      657200
 5722              	.LASF110:
 5723 07a6 4359424C 		.ascii	"CYBLE_EVT_L2CAP_CONN_PARAM_UPDATE_RSP\000"
 5723      455F4556 
 5723      545F4C32 
 5723      4341505F 
 5723      434F4E4E 
 5724              	.LASF38:
 5725 07cc 4D415833 		.ascii	"MAX30100_LED_CURR_17_4MA\000"
 5725      30313030 
 5725      5F4C4544 
 5725      5F435552 
 5725      525F3137 
 5726              	.LASF41:
 5727 07e5 4D415833 		.ascii	"MAX30100_LED_CURR_27_1MA\000"
 5727      30313030 
 5727      5F4C4544 
 5727      5F435552 
 5727      525F3237 
 5728              	.LASF68:
 5729 07fe 4359424C 		.ascii	"CYBLE_EVT_GAP_AUTH_COMPLETE\000"
 5729      455F4556 
 5729      545F4741 
 5729      505F4155 
 5729      54485F43 
 5730              	.LASF69:
 5731 081a 4359424C 		.ascii	"CYBLE_EVT_GAP_AUTH_FAILED\000"
 5731      455F4556 
 5731      545F4741 
 5731      505F4155 
 5731      54485F46 
 5732              	.LASF192:
 5733 0834 656E6162 		.ascii	"enabled\000"
 5733      6C656400 
 5734              	.LASF191:
 5735 083c 4D415833 		.ascii	"MAX30100_setHighresModeEnabled\000"
 5735      30313030 
 5735      5F736574 
 5735      48696768 
 5735      7265734D 
 5736              	.LASF123:
 5737 085b 42656174 		.ascii	"BeatDetectorState\000"
 5737      44657465 
 5737      63746F72 
 5737      53746174 
 5737      6500
 5738              	.LASF8:
ARM GAS  C:\Users\Davit\AppData\Local\Temp\cc4XR0T4.s 			page 116


 5739 086d 6C6F6E67 		.ascii	"long unsigned int\000"
 5739      20756E73 
 5739      69676E65 
 5739      6420696E 
 5739      7400
 5740              	.LASF222:
 5741 087f 50756C73 		.ascii	"PulseOximeter_begin\000"
 5741      654F7869 
 5741      6D657465 
 5741      725F6265 
 5741      67696E00 
 5742              	.LASF149:
 5743 0893 50554C53 		.ascii	"PULSEOXIMETER_STATE_INIT\000"
 5743      454F5849 
 5743      4D455445 
 5743      525F5354 
 5743      4154455F 
 5744              	.LASF195:
 5745 08ac 61646472 		.ascii	"address\000"
 5745      65737300 
 5746              	.LASF200:
 5747 08b4 4D415833 		.ascii	"MAX30100_burstRead\000"
 5747      30313030 
 5747      5F627572 
 5747      73745265 
 5747      616400
 5748              	.LASF182:
 5749 08c7 4D415833 		.ascii	"MAX30100_setMode\000"
 5749      30313030 
 5749      5F736574 
 5749      4D6F6465 
 5749      00
 5750              	.LASF187:
 5751 08d8 73616D70 		.ascii	"samplingRate\000"
 5751      6C696E67 
 5751      52617465 
 5751      00
 5752              	.LASF22:
 5753 08e5 4D415833 		.ascii	"MAX30100_SAMPRATE_200HZ\000"
 5753      30313030 
 5753      5F53414D 
 5753      50524154 
 5753      455F3230 
 5754              	.LASF158:
 5755 08fd 64656275 		.ascii	"debuggingMode\000"
 5755      6767696E 
 5755      674D6F64 
 5755      6500
 5756              	.LASF37:
 5757 090b 4D415833 		.ascii	"MAX30100_LED_CURR_14_2MA\000"
 5757      30313030 
 5757      5F4C4544 
 5757      5F435552 
 5757      525F3134 
 5758              	.LASF62:
 5759 0924 4359424C 		.ascii	"CYBLE_EVT_STACK_BUSY_STATUS\000"
 5759      455F4556 
ARM GAS  C:\Users\Davit\AppData\Local\Temp\cc4XR0T4.s 			page 117


 5759      545F5354 
 5759      41434B5F 
 5759      42555359 
 5760              	.LASF74:
 5761 0940 4359424C 		.ascii	"CYBLE_EVT_GAP_CONNECTION_UPDATE_COMPLETE\000"
 5761      455F4556 
 5761      545F4741 
 5761      505F434F 
 5761      4E4E4543 
 5762              	.LASF213:
 5763 0969 44435265 		.ascii	"DCRemover_Init\000"
 5763      6D6F7665 
 5763      725F496E 
 5763      697400
 5764              	.LASF141:
 5765 0978 72656441 		.ascii	"redACValueSqSum\000"
 5765      4356616C 
 5765      75655371 
 5765      53756D00 
 5766              	.LASF114:
 5767 0988 4359424C 		.ascii	"CYBLE_EVT_L2CAP_CBFC_DISCONN_IND\000"
 5767      455F4556 
 5767      545F4C32 
 5767      4341505F 
 5767      43424643 
 5768              	.LASF29:
 5769 09a9 4D415833 		.ascii	"MAX30100_SPC_PW_400US_14BITS\000"
 5769      30313030 
 5769      5F535043 
 5769      5F50575F 
 5769      34303055 
 5770              	.LASF66:
 5771 09c6 4359424C 		.ascii	"CYBLE_EVT_GAP_PASSKEY_ENTRY_REQUEST\000"
 5771      455F4556 
 5771      545F4741 
 5771      505F5041 
 5771      53534B45 
 5772              	.LASF153:
 5773 09ea 50554C53 		.ascii	"PULSEOXIMETER_DEBUGGINGMODE_NONE\000"
 5773      454F5849 
 5773      4D455445 
 5773      525F4445 
 5773      42554747 
 5774              	.LASF204:
 5775 0a0b 4D415833 		.ascii	"MAX30100_readFifoData\000"
 5775      30313030 
 5775      5F726561 
 5775      64466966 
 5775      6F446174 
 5776              	.LASF161:
 5777 0a21 74734C61 		.ascii	"tsLastSample\000"
 5777      73745361 
 5777      6D706C65 
 5777      00
 5778              	.LASF7:
 5779 0a2e 5F5F7569 		.ascii	"__uint32_t\000"
 5779      6E743332 
ARM GAS  C:\Users\Davit\AppData\Local\Temp\cc4XR0T4.s 			page 118


 5779      5F7400
 5780              	.LASF150:
 5781 0a39 50554C53 		.ascii	"PULSEOXIMETER_STATE_IDLE\000"
 5781      454F5849 
 5781      4D455445 
 5781      525F5354 
 5781      4154455F 
 5782              	.LASF9:
 5783 0a52 6C6F6E67 		.ascii	"long long int\000"
 5783      206C6F6E 
 5783      6720696E 
 5783      7400
 5784              	.LASF25:
 5785 0a60 4D415833 		.ascii	"MAX30100_SAMPRATE_800HZ\000"
 5785      30313030 
 5785      5F53414D 
 5785      50524154 
 5785      455F3830 
 5786              	.LASF47:
 5787 0a78 4D415833 		.ascii	"MAX30100_LED_CURR_46_8MA\000"
 5787      30313030 
 5787      5F4C4544 
 5787      5F435552 
 5787      525F3436 
 5788              	.LASF140:
 5789 0a91 69724143 		.ascii	"irACValueSqSum\000"
 5789      56616C75 
 5789      65537153 
 5789      756D00
 5790              	.LASF51:
 5791 0aa0 646F7562 		.ascii	"double\000"
 5791      6C6500
 5792              	.LASF167:
 5793 0aa7 69724443 		.ascii	"irDCRemover\000"
 5793      52656D6F 
 5793      76657200 
 5794              	.LASF120:
 5795 0ab3 4359424C 		.ascii	"CYBLE_EVT_PENDING_FLASH_WRITE\000"
 5795      455F4556 
 5795      545F5045 
 5795      4E44494E 
 5795      475F464C 
 5796              	.LASF242:
 5797 0ad1 4D415833 		.ascii	"MAX30100_All.c\000"
 5797      30313030 
 5797      5F416C6C 
 5797      2E6300
 5798              	.LASF175:
 5799 0ae0 42656174 		.ascii	"BeatDetector_checkForBeat\000"
 5799      44657465 
 5799      63746F72 
 5799      5F636865 
 5799      636B466F 
 5800              	.LASF52:
 5801 0afa 666C6F61 		.ascii	"float\000"
 5801      7400
 5802              	.LASF207:
ARM GAS  C:\Users\Davit\AppData\Local\Temp\cc4XR0T4.s 			page 119


 5803 0b00 69724143 		.ascii	"irACValue\000"
 5803      56616C75 
 5803      6500
 5804              	.LASF107:
 5805 0b0a 4359424C 		.ascii	"CYBLE_EVT_GATTS_READ_CHAR_VAL_ACCESS_REQ\000"
 5805      455F4556 
 5805      545F4741 
 5805      5454535F 
 5805      52454144 
 5806              	.LASF130:
 5807 0b33 74687265 		.ascii	"threshold\000"
 5807      73686F6C 
 5807      6400
 5808              	.LASF168:
 5809 0b3d 72656444 		.ascii	"redDCRemover\000"
 5809      4352656D 
 5809      6F766572 
 5809      00
 5810              	.LASF226:
 5811 0b4a 50756C73 		.ascii	"PulseOximeter_getSpO2\000"
 5811      654F7869 
 5811      6D657465 
 5811      725F6765 
 5811      7453704F 
 5812              	.LASF11:
 5813 0b60 756E7369 		.ascii	"unsigned int\000"
 5813      676E6564 
 5813      20696E74 
 5813      00
 5814              	.LASF99:
 5815 0b6d 4359424C 		.ascii	"CYBLE_EVT_GATTS_PREP_WRITE_REQ\000"
 5815      455F4556 
 5815      545F4741 
 5815      5454535F 
 5815      50524550 
 5816              	.LASF46:
 5817 0b8c 4D415833 		.ascii	"MAX30100_LED_CURR_43_6MA\000"
 5817      30313030 
 5817      5F4C4544 
 5817      5F435552 
 5817      525F3433 
 5818              	.LASF216:
 5819 0ba5 6F6C6464 		.ascii	"olddcw\000"
 5819      637700
 5820              	.LASF48:
 5821 0bac 4D415833 		.ascii	"MAX30100_LED_CURR_50MA\000"
 5821      30313030 
 5821      5F4C4544 
 5821      5F435552 
 5821      525F3530 
 5822              	.LASF20:
 5823 0bc3 4D415833 		.ascii	"MAX30100_SAMPRATE_100HZ\000"
 5823      30313030 
 5823      5F53414D 
 5823      50524154 
 5823      455F3130 
 5824              	.LASF189:
ARM GAS  C:\Users\Davit\AppData\Local\Temp\cc4XR0T4.s 			page 120


 5825 0bdb 69724C65 		.ascii	"irLedCurrent\000"
 5825      64437572 
 5825      72656E74 
 5825      00
 5826              	.LASF190:
 5827 0be8 7265644C 		.ascii	"redLedCurrent\000"
 5827      65644375 
 5827      7272656E 
 5827      7400
 5828              	.LASF122:
 5829 0bf6 4359424C 		.ascii	"CYBLE_EVT_MAX\000"
 5829      455F4556 
 5829      545F4D41 
 5829      5800
 5830              	.LASF75:
 5831 0c04 4359424C 		.ascii	"CYBLE_EVT_GAPC_SCAN_START_STOP\000"
 5831      455F4556 
 5831      545F4741 
 5831      50435F53 
 5831      43414E5F 
 5832              	.LASF96:
 5833 0c23 4359424C 		.ascii	"CYBLE_EVT_GATTS_WRITE_REQ\000"
 5833      455F4556 
 5833      545F4741 
 5833      5454535F 
 5833      57524954 
 5834              	.LASF67:
 5835 0c3d 4359424C 		.ascii	"CYBLE_EVT_GAP_PASSKEY_DISPLAY_REQUEST\000"
 5835      455F4556 
 5835      545F4741 
 5835      505F5041 
 5835      53534B45 
 5836              	.LASF93:
 5837 0c63 4359424C 		.ascii	"CYBLE_EVT_GATTC_READ_RSP\000"
 5837      455F4556 
 5837      545F4741 
 5837      5454435F 
 5837      52454144 
 5838              	.LASF113:
 5839 0c7c 4359424C 		.ascii	"CYBLE_EVT_L2CAP_CBFC_CONN_CNF\000"
 5839      455F4556 
 5839      545F4C32 
 5839      4341505F 
 5839      43424643 
 5840              	.LASF185:
 5841 0c9a 70726576 		.ascii	"previous\000"
 5841      696F7573 
 5841      00
 5842              	.LASF53:
 5843 0ca3 6C6F6E67 		.ascii	"long double\000"
 5843      20646F75 
 5843      626C6500 
 5844              	.LASF63:
 5845 0caf 4359424C 		.ascii	"CYBLE_EVT_MEMORY_REQUEST\000"
 5845      455F4556 
 5845      545F4D45 
 5845      4D4F5259 
ARM GAS  C:\Users\Davit\AppData\Local\Temp\cc4XR0T4.s 			page 121


 5845      5F524551 
 5846              	.LASF228:
 5847 0cc8 50756C73 		.ascii	"PulseOximeter_setOnBeatDetectedCallback\000"
 5847      654F7869 
 5847      6D657465 
 5847      725F7365 
 5847      744F6E42 
 5848              	.LASF17:
 5849 0cf0 4D6F6465 		.ascii	"Mode\000"
 5849      00
 5850              	.LASF73:
 5851 0cf5 4359424C 		.ascii	"CYBLE_EVT_GAP_ENCRYPT_CHANGE\000"
 5851      455F4556 
 5851      545F4741 
 5851      505F454E 
 5851      43525950 
 5852              	.LASF144:
 5853 0d12 73704F32 		.ascii	"spO2\000"
 5853      00
 5854              	.LASF87:
 5855 0d17 4359424C 		.ascii	"CYBLE_EVT_GATTS_XCNHG_MTU_REQ\000"
 5855      455F4556 
 5855      545F4741 
 5855      5454535F 
 5855      58434E48 
 5856              	.LASF231:
 5857 0d35 50756C73 		.ascii	"PulseOximeter_checkCurrentBias\000"
 5857      654F7869 
 5857      6D657465 
 5857      725F6368 
 5857      65636B43 
 5858              	.LASF198:
 5859 0d54 4D415833 		.ascii	"MAX30100_writeRegister\000"
 5859      30313030 
 5859      5F777269 
 5859      74655265 
 5859      67697374 
 5860              	.LASF10:
 5861 0d6b 6C6F6E67 		.ascii	"long long unsigned int\000"
 5861      206C6F6E 
 5861      6720756E 
 5861      7369676E 
 5861      65642069 
 5862              	.LASF59:
 5863 0d82 4359424C 		.ascii	"CYBLE_EVT_TIMEOUT\000"
 5863      455F4556 
 5863      545F5449 
 5863      4D454F55 
 5863      5400
 5864              	.LASF80:
 5865 0d94 4359424C 		.ascii	"CYBLE_EVT_GAP_DATA_LENGTH_CHANGE\000"
 5865      455F4556 
 5865      545F4741 
 5865      505F4441 
 5865      54415F4C 
 5866              	.LASF203:
 5867 0db5 6C656E67 		.ascii	"length\000"
ARM GAS  C:\Users\Davit\AppData\Local\Temp\cc4XR0T4.s 			page 122


 5867      746800
 5868              	.LASF13:
 5869 0dbc 75696E74 		.ascii	"uint16_t\000"
 5869      31365F74 
 5869      00
 5870              	.LASF133:
 5871 0dc5 74734C61 		.ascii	"tsLastBeat\000"
 5871      73744265 
 5871      617400
 5872              	.LASF132:
 5873 0dd0 6C617374 		.ascii	"lastMaxValue\000"
 5873      4D617856 
 5873      616C7565 
 5873      00
 5874              	.LASF116:
 5875 0ddd 4359424C 		.ascii	"CYBLE_EVT_L2CAP_CBFC_DATA_READ\000"
 5875      455F4556 
 5875      545F4C32 
 5875      4341505F 
 5875      43424643 
 5876              	.LASF147:
 5877 0dfc 46696C74 		.ascii	"FilterBuLp1\000"
 5877      65724275 
 5877      4C703100 
 5878              	.LASF177:
 5879 0e08 64656C74 		.ascii	"delta\000"
 5879      6100
 5880              	.LASF206:
 5881 0e0e 53704F32 		.ascii	"SpO2Calculator_update\000"
 5881      43616C63 
 5881      756C6174 
 5881      6F725F75 
 5881      70646174 
 5882              	.LASF230:
 5883 0e24 66696C74 		.ascii	"filteredPulseValue\000"
 5883      65726564 
 5883      50756C73 
 5883      6556616C 
 5883      756500
 5884              	.LASF30:
 5885 0e37 4D415833 		.ascii	"MAX30100_SPC_PW_800US_15BITS\000"
 5885      30313030 
 5885      5F535043 
 5885      5F50575F 
 5885      38303055 
 5886              	.LASF233:
 5887 0e54 70756C73 		.ascii	"pulseOximeter\000"
 5887      654F7869 
 5887      6D657465 
 5887      7200
 5888              	.LASF241:
 5889 0e62 474E5520 		.ascii	"GNU C 4.9.3 20150303 (release) [ARM/embedded-4_9-br"
 5889      4320342E 
 5889      392E3320 
 5889      32303135 
 5889      30333033 
 5890 0e95 616E6368 		.ascii	"anch revision 221220] -mcpu=cortex-m0 -mthumb -g -O"
ARM GAS  C:\Users\Davit\AppData\Local\Temp\cc4XR0T4.s 			page 123


 5890      20726576 
 5890      6973696F 
 5890      6E203232 
 5890      31323230 
 5891 0ec8 30202D66 		.ascii	"0 -ffunction-sections -ffat-lto-objects\000"
 5891      66756E63 
 5891      74696F6E 
 5891      2D736563 
 5891      74696F6E 
 5892              	.LASF125:
 5893 0ef0 42454154 		.ascii	"BEATDETECTOR_STATE_WAITING\000"
 5893      44455445 
 5893      43544F52 
 5893      5F535441 
 5893      54455F57 
 5894              	.LASF134:
 5895 0f0b 42656174 		.ascii	"BeatDetector\000"
 5895      44657465 
 5895      63746F72 
 5895      00
 5896              	.LASF196:
 5897 0f18 57726974 		.ascii	"Write_Buf\000"
 5897      655F4275 
 5897      6600
 5898              	.LASF215:
 5899 0f22 44435265 		.ascii	"DCRemover_step\000"
 5899      6D6F7665 
 5899      725F7374 
 5899      657000
 5900              	.LASF159:
 5901 0f31 74734669 		.ascii	"tsFirstBeatDetected\000"
 5901      72737442 
 5901      65617444 
 5901      65746563 
 5901      74656400 
 5902              	.LASF28:
 5903 0f45 4D415833 		.ascii	"MAX30100_SPC_PW_200US_13BITS\000"
 5903      30313030 
 5903      5F535043 
 5903      5F50575F 
 5903      32303055 
 5904              	.LASF91:
 5905 0f62 4359424C 		.ascii	"CYBLE_EVT_GATTC_FIND_INFO_RSP\000"
 5905      455F4556 
 5905      545F4741 
 5905      5454435F 
 5905      46494E44 
 5906              	.LASF90:
 5907 0f80 4359424C 		.ascii	"CYBLE_EVT_GATTC_READ_BY_TYPE_RSP\000"
 5907      455F4556 
 5907      545F4741 
 5907      5454435F 
 5907      52454144 
 5908              	.LASF36:
 5909 0fa1 4D415833 		.ascii	"MAX30100_LED_CURR_11MA\000"
 5909      30313030 
 5909      5F4C4544 
ARM GAS  C:\Users\Davit\AppData\Local\Temp\cc4XR0T4.s 			page 124


 5909      5F435552 
 5909      525F3131 
 5910              	.LASF97:
 5911 0fb8 4359424C 		.ascii	"CYBLE_EVT_GATTC_WRITE_RSP\000"
 5911      455F4556 
 5911      545F4741 
 5911      5454435F 
 5911      57524954 
 5912              	.LASF157:
 5913 0fd2 50756C73 		.ascii	"PulseOximeter\000"
 5913      654F7869 
 5913      6D657465 
 5913      7200
 5914              	.LASF237:
 5915 0fe0 676C6F62 		.ascii	"globalLpf\000"
 5915      616C4C70 
 5915      6600
 5916              	.LASF170:
 5917 0fea 63757272 		.ascii	"currentMinute\000"
 5917      656E744D 
 5917      696E7574 
 5917      6500
 5918              	.LASF27:
 5919 0ff8 4C454450 		.ascii	"LEDPulseWidth\000"
 5919      756C7365 
 5919      57696474 
 5919      6800
 5920              	.LASF70:
 5921 1006 4359424C 		.ascii	"CYBLE_EVT_GAPP_ADVERTISEMENT_START_STOP\000"
 5921      455F4556 
 5921      545F4741 
 5921      50505F41 
 5921      44564552 
 5922              	.LASF223:
 5923 102e 64656275 		.ascii	"debuggingMode_\000"
 5923      6767696E 
 5923      674D6F64 
 5923      655F00
 5924              	.LASF54:
 5925 103d 75696E74 		.ascii	"uint8\000"
 5925      3800
 5926              	.LASF163:
 5927 1043 74734C61 		.ascii	"tsLastCurrentAdjustment\000"
 5927      73744375 
 5927      7272656E 
 5927      7441646A 
 5927      7573746D 
 5928              	.LASF78:
 5929 105b 4359424C 		.ascii	"CYBLE_EVT_GAP_KEYPRESS_NOTIFICATION\000"
 5929      455F4556 
 5929      545F4741 
 5929      505F4B45 
 5929      59505245 
 5930              	.LASF220:
 5931 107f 50756C73 		.ascii	"PulseOximeter_Init\000"
 5931      654F7869 
 5931      6D657465 
ARM GAS  C:\Users\Davit\AppData\Local\Temp\cc4XR0T4.s 			page 125


 5931      725F496E 
 5931      697400
 5932              	.LASF2:
 5933 1092 73686F72 		.ascii	"short int\000"
 5933      7420696E 
 5933      7400
 5934              	.LASF137:
 5935 109c 72617752 		.ascii	"rawRedValue\000"
 5935      65645661 
 5935      6C756500 
 5936              	.LASF155:
 5937 10a8 50554C53 		.ascii	"PULSEOXIMETER_DEBUGGINGMODE_AC_VALUES\000"
 5937      454F5849 
 5937      4D455445 
 5937      525F4445 
 5937      42554747 
 5938              	.LASF131:
 5939 10ce 62656174 		.ascii	"beatPeriod\000"
 5939      50657269 
 5939      6F6400
 5940              	.LASF181:
 5941 10d9 6D6F6465 		.ascii	"mode\000"
 5941      00
 5942              	.LASF209:
 5943 10de 61635371 		.ascii	"acSqRatio\000"
 5943      52617469 
 5943      6F00
 5944              	.LASF128:
 5945 10e8 42454154 		.ascii	"BEATDETECTOR_STATE_MASKING\000"
 5945      44455445 
 5945      43544F52 
 5945      5F535441 
 5945      54455F4D 
 5946              	.LASF84:
 5947 1103 4359424C 		.ascii	"CYBLE_EVT_GATTC_ERROR_RSP\000"
 5947      455F4556 
 5947      545F4741 
 5947      5454435F 
 5947      4552524F 
 5948              	.LASF135:
 5949 111d 4D415833 		.ascii	"MAX30100\000"
 5949      30313030 
 5949      00
 5950              	.LASF210:
 5951 1126 696E6465 		.ascii	"index\000"
 5951      7800
 5952              	.LASF112:
 5953 112c 4359424C 		.ascii	"CYBLE_EVT_L2CAP_CBFC_CONN_IND\000"
 5953      455F4556 
 5953      545F4C32 
 5953      4341505F 
 5953      43424643 
 5954              	.LASF100:
 5955 114a 4359424C 		.ascii	"CYBLE_EVT_GATTS_EXEC_WRITE_REQ\000"
 5955      455F4556 
 5955      545F4741 
 5955      5454535F 
ARM GAS  C:\Users\Davit\AppData\Local\Temp\cc4XR0T4.s 			page 126


 5955      45584543 
 5956              	.LASF64:
 5957 1169 4359424C 		.ascii	"CYBLE_EVT_GAPC_SCAN_PROGRESS_RESULT\000"
 5957      455F4556 
 5957      545F4741 
 5957      50435F53 
 5957      43414E5F 
 5958              	.LASF160:
 5959 118d 74734C61 		.ascii	"tsLastBeatDetected\000"
 5959      73744265 
 5959      61744465 
 5959      74656374 
 5959      656400
 5960              	.LASF173:
 5961 11a0 42656174 		.ascii	"BeatDetector_getRate\000"
 5961      44657465 
 5961      63746F72 
 5961      5F676574 
 5961      52617465 
 5962              	.LASF235:
 5963 11b5 676C6F62 		.ascii	"globalIrDCRemover\000"
 5963      616C4972 
 5963      44435265 
 5963      6D6F7665 
 5963      7200
 5964              	.LASF174:
 5965 11c7 42656174 		.ascii	"BeatDetector_getCurrentThreshold\000"
 5965      44657465 
 5965      63746F72 
 5965      5F676574 
 5965      43757272 
 5966              	.LASF15:
 5967 11e8 4D415833 		.ascii	"MAX30100_MODE_HRONLY\000"
 5967      30313030 
 5967      5F4D4F44 
 5967      455F4852 
 5967      4F4E4C59 
 5968              	.LASF18:
 5969 11fd 53616D70 		.ascii	"SamplingRate\000"
 5969      6C696E67 
 5969      52617465 
 5969      00
 5970              	.LASF194:
 5971 120a 4D415833 		.ascii	"MAX30100_readRegister\000"
 5971      30313030 
 5971      5F726561 
 5971      64526567 
 5971      69737465 
 5972              	.LASF40:
 5973 1220 4D415833 		.ascii	"MAX30100_LED_CURR_24MA\000"
 5973      30313030 
 5973      5F4C4544 
 5973      5F435552 
 5973      525F3234 
 5974              	.LASF201:
 5975 1237 62617365 		.ascii	"baseAddress\000"
 5975      41646472 
ARM GAS  C:\Users\Davit\AppData\Local\Temp\cc4XR0T4.s 			page 127


 5975      65737300 
 5976              	.LASF121:
 5977 1243 4359424C 		.ascii	"CYBLE_EVT_LE_PING_AUTH_TIMEOUT\000"
 5977      455F4556 
 5977      545F4C45 
 5977      5F50494E 
 5977      475F4155 
 5978              	.LASF39:
 5979 1262 4D415833 		.ascii	"MAX30100_LED_CURR_20_8MA\000"
 5979      30313030 
 5979      5F4C4544 
 5979      5F435552 
 5979      525F3230 
 5980              	.LASF103:
 5981 127b 4359424C 		.ascii	"CYBLE_EVT_GATTC_HANDLE_VALUE_IND\000"
 5981      455F4556 
 5981      545F4741 
 5981      5454435F 
 5981      48414E44 
 5982              	.LASF217:
 5983 129c 44435265 		.ascii	"DCRemover_getDCW\000"
 5983      6D6F7665 
 5983      725F6765 
 5983      74444357 
 5983      00
 5984              	.LASF14:
 5985 12ad 75696E74 		.ascii	"uint32_t\000"
 5985      33325F74 
 5985      00
 5986              	.LASF35:
 5987 12b6 4D415833 		.ascii	"MAX30100_LED_CURR_7_6MA\000"
 5987      30313030 
 5987      5F4C4544 
 5987      5F435552 
 5987      525F375F 
 5988              	.LASF76:
 5989 12ce 4359424C 		.ascii	"CYBLE_EVT_GAP_KEYINFO_EXCHNGE_CMPLT\000"
 5989      455F4556 
 5989      545F4741 
 5989      505F4B45 
 5989      59494E46 
 5990              	.LASF188:
 5991 12f2 4D415833 		.ascii	"MAX30100_setLedsCurrent\000"
 5991      30313030 
 5991      5F736574 
 5991      4C656473 
 5991      43757272 
 5992              	.LASF109:
 5993 130a 4359424C 		.ascii	"CYBLE_EVT_L2CAP_CONN_PARAM_UPDATE_REQ\000"
 5993      455F4556 
 5993      545F4C32 
 5993      4341505F 
 5993      434F4E4E 
 5994              	.LASF208:
 5995 1330 72656441 		.ascii	"redACValue\000"
 5995      4356616C 
 5995      756500
ARM GAS  C:\Users\Davit\AppData\Local\Temp\cc4XR0T4.s 			page 128


 5996              	.LASF5:
 5997 133b 73686F72 		.ascii	"short unsigned int\000"
 5997      7420756E 
 5997      7369676E 
 5997      65642069 
 5997      6E7400
 5998              	.LASF154:
 5999 134e 50554C53 		.ascii	"PULSEOXIMETER_DEBUGGINGMODE_RAW_VALUES\000"
 5999      454F5849 
 5999      4D455445 
 5999      525F4445 
 5999      42554747 
 6000              	.LASF16:
 6001 1375 4D415833 		.ascii	"MAX30100_MODE_SPO2_HR\000"
 6001      30313030 
 6001      5F4D4F44 
 6001      455F5350 
 6001      4F325F48 
 6002              	.LASF238:
 6003 138b 676C6F62 		.ascii	"globalSpO2calculator\000"
 6003      616C5370 
 6003      4F326361 
 6003      6C63756C 
 6003      61746F72 
 6004              	.LASF61:
 6005 13a0 4359424C 		.ascii	"CYBLE_EVT_HCI_STATUS\000"
 6005      455F4556 
 6005      545F4843 
 6005      495F5354 
 6005      41545553 
 6006              	.LASF86:
 6007 13b5 4359424C 		.ascii	"CYBLE_EVT_GATT_DISCONNECT_IND\000"
 6007      455F4556 
 6007      545F4741 
 6007      54545F44 
 6007      4953434F 
 6008              	.LASF119:
 6009 13d3 4359424C 		.ascii	"CYBLE_EVT_L2CAP_CBFC_DATA_WRITE_IND\000"
 6009      455F4556 
 6009      545F4C32 
 6009      4341505F 
 6009      43424643 
 6010              	.LASF34:
 6011 13f7 4D415833 		.ascii	"MAX30100_LED_CURR_4_4MA\000"
 6011      30313030 
 6011      5F4C4544 
 6011      5F435552 
 6011      525F345F 
 6012              	.LASF108:
 6013 140f 4359424C 		.ascii	"CYBLE_EVT_GATTC_LONG_PROCEDURE_END\000"
 6013      455F4556 
 6013      545F4741 
 6013      5454435F 
 6013      4C4F4E47 
 6014              	.LASF199:
 6015 1432 64617461 		.ascii	"data\000"
 6015      00
ARM GAS  C:\Users\Davit\AppData\Local\Temp\cc4XR0T4.s 			page 129


 6016              	.LASF24:
 6017 1437 4D415833 		.ascii	"MAX30100_SAMPRATE_600HZ\000"
 6017      30313030 
 6017      5F53414D 
 6017      50524154 
 6017      455F3630 
 6018              	.LASF72:
 6019 144f 4359424C 		.ascii	"CYBLE_EVT_GAP_DEVICE_DISCONNECTED\000"
 6019      455F4556 
 6019      545F4741 
 6019      505F4445 
 6019      56494345 
 6020              	.LASF104:
 6021 1471 4359424C 		.ascii	"CYBLE_EVT_GATTS_HANDLE_VALUE_CNF\000"
 6021      455F4556 
 6021      545F4741 
 6021      5454535F 
 6021      48414E44 
 6022              	.LASF127:
 6023 1492 42454154 		.ascii	"BEATDETECTOR_STATE_MAYBE_DETECTED\000"
 6023      44455445 
 6023      43544F52 
 6023      5F535441 
 6023      54455F4D 
 6024              	.LASF205:
 6025 14b4 53704F32 		.ascii	"SpO2Calculator_Init\000"
 6025      43616C63 
 6025      756C6174 
 6025      6F725F49 
 6025      6E697400 
 6026              	.LASF55:
 6027 14c8 75696E74 		.ascii	"uint16\000"
 6027      313600
 6028              	.LASF33:
 6029 14cf 4D415833 		.ascii	"MAX30100_LED_CURR_0MA\000"
 6029      30313030 
 6029      5F4C4544 
 6029      5F435552 
 6029      525F304D 
 6030              	.LASF44:
 6031 14e5 4D415833 		.ascii	"MAX30100_LED_CURR_37MA\000"
 6031      30313030 
 6031      5F4C4544 
 6031      5F435552 
 6031      525F3337 
 6032              	.LASF218:
 6033 14fc 46696C74 		.ascii	"FilterBuLp1_Init\000"
 6033      65724275 
 6033      4C70315F 
 6033      496E6974 
 6033      00
 6034              		.ident	"GCC: (GNU Tools for ARM Embedded Processors) 4.9.3 20150303 (release) [ARM/embedded-4_9-br
