ARM GAS  C:\Users\Matthew\AppData\Local\Temp\ccanW4ip.s 			page 1


   1              		.cpu cortex-m0
   2              		.fpu softvfp
   3              		.eabi_attribute 20, 1
   4              		.eabi_attribute 21, 1
   5              		.eabi_attribute 23, 3
   6              		.eabi_attribute 24, 1
   7              		.eabi_attribute 25, 1
   8              		.eabi_attribute 26, 1
   9              		.eabi_attribute 30, 6
  10              		.eabi_attribute 34, 0
  11              		.eabi_attribute 18, 4
  12              		.code	16
  13              		.file	"tempAndBat.c"
  14              		.text
  15              	.Ltext0:
  16              		.cfi_sections	.debug_frame
  17              		.section	.text.initTemperatureAndBattery,"ax",%progbits
  18              		.align	2
  19              		.global	initTemperatureAndBattery
  20              		.code	16
  21              		.thumb_func
  22              		.type	initTemperatureAndBattery, %function
  23              	initTemperatureAndBattery:
  24              	.LFB37:
  25              		.file 1 ".\\tempAndBat.c"
   1:.\tempAndBat.c **** /* ========================================
   2:.\tempAndBat.c ****  *
   3:.\tempAndBat.c ****  * Copyright YOUR COMPANY, THE YEAR
   4:.\tempAndBat.c ****  * All Rights Reserved
   5:.\tempAndBat.c ****  * UNPUBLISHED, LICENSED SOFTWARE.
   6:.\tempAndBat.c ****  *
   7:.\tempAndBat.c ****  * CONFIDENTIAL AND PROPRIETARY INFORMATION
   8:.\tempAndBat.c ****  * WHICH IS THE PROPERTY OF your company.
   9:.\tempAndBat.c ****  *
  10:.\tempAndBat.c ****  * ========================================
  11:.\tempAndBat.c **** */
  12:.\tempAndBat.c **** 
  13:.\tempAndBat.c **** #include <tempAndBat.h>
  14:.\tempAndBat.c **** 
  15:.\tempAndBat.c **** void initTemperatureAndBattery(){
  26              		.loc 1 15 0
  27              		.cfi_startproc
  28 0000 80B5     		push	{r7, lr}
  29              		.cfi_def_cfa_offset 8
  30              		.cfi_offset 7, -8
  31              		.cfi_offset 14, -4
  32 0002 00AF     		add	r7, sp, #0
  33              		.cfi_def_cfa_register 7
  16:.\tempAndBat.c ****     
  17:.\tempAndBat.c **** }
  34              		.loc 1 17 0
  35 0004 BD46     		mov	sp, r7
  36              		@ sp needed
  37 0006 80BD     		pop	{r7, pc}
  38              		.cfi_endproc
  39              	.LFE37:
  40              		.size	initTemperatureAndBattery, .-initTemperatureAndBattery
ARM GAS  C:\Users\Matthew\AppData\Local\Temp\ccanW4ip.s 			page 2


  41              		.section	.text.getTemperature,"ax",%progbits
  42              		.align	2
  43              		.global	getTemperature
  44              		.code	16
  45              		.thumb_func
  46              		.type	getTemperature, %function
  47              	getTemperature:
  48              	.LFB38:
  18:.\tempAndBat.c **** 
  19:.\tempAndBat.c **** uint16 getTemperature(){
  49              		.loc 1 19 0
  50              		.cfi_startproc
  51 0000 80B5     		push	{r7, lr}
  52              		.cfi_def_cfa_offset 8
  53              		.cfi_offset 7, -8
  54              		.cfi_offset 14, -4
  55 0002 00AF     		add	r7, sp, #0
  56              		.cfi_def_cfa_register 7
  20:.\tempAndBat.c ****     // Read from ADC abd convert to millivolts
  21:.\tempAndBat.c ****     return ADC_CountsTo_mVolts(0, ADC_GetResult16(0));
  57              		.loc 1 21 0
  58 0004 0020     		mov	r0, #0
  59 0006 FFF7FEFF 		bl	ADC_GetResult16
  60 000a 031C     		mov	r3, r0
  61 000c 0020     		mov	r0, #0
  62 000e 191C     		mov	r1, r3
  63 0010 FFF7FEFF 		bl	ADC_CountsTo_mVolts
  64 0014 031C     		mov	r3, r0
  65 0016 9BB2     		uxth	r3, r3
  22:.\tempAndBat.c **** }
  66              		.loc 1 22 0
  67 0018 181C     		mov	r0, r3
  68 001a BD46     		mov	sp, r7
  69              		@ sp needed
  70 001c 80BD     		pop	{r7, pc}
  71              		.cfi_endproc
  72              	.LFE38:
  73              		.size	getTemperature, .-getTemperature
  74 001e C046     		.section	.text.getBattery,"ax",%progbits
  75              		.align	2
  76              		.global	getBattery
  77              		.code	16
  78              		.thumb_func
  79              		.type	getBattery, %function
  80              	getBattery:
  81              	.LFB39:
  23:.\tempAndBat.c **** 
  24:.\tempAndBat.c **** uint16 getBattery(){
  82              		.loc 1 24 0
  83              		.cfi_startproc
  84 0000 80B5     		push	{r7, lr}
  85              		.cfi_def_cfa_offset 8
  86              		.cfi_offset 7, -8
  87              		.cfi_offset 14, -4
  88 0002 00AF     		add	r7, sp, #0
  89              		.cfi_def_cfa_register 7
  25:.\tempAndBat.c ****     // Read from ADC abd convert to millivolts
ARM GAS  C:\Users\Matthew\AppData\Local\Temp\ccanW4ip.s 			page 3


  26:.\tempAndBat.c ****     return ADC_CountsTo_mVolts(1, ADC_GetResult16(1));
  90              		.loc 1 26 0
  91 0004 0120     		mov	r0, #1
  92 0006 FFF7FEFF 		bl	ADC_GetResult16
  93 000a 031C     		mov	r3, r0
  94 000c 0120     		mov	r0, #1
  95 000e 191C     		mov	r1, r3
  96 0010 FFF7FEFF 		bl	ADC_CountsTo_mVolts
  97 0014 031C     		mov	r3, r0
  98 0016 9BB2     		uxth	r3, r3
  27:.\tempAndBat.c **** }...
  99              		.loc 1 27 0
 100 0018 181C     		mov	r0, r3
 101 001a BD46     		mov	sp, r7
 102              		@ sp needed
 103 001c 80BD     		pop	{r7, pc}
 104              		.cfi_endproc
 105              	.LFE39:
 106              		.size	getBattery, .-getBattery
 107 001e C046     		.text
 108              	.Letext0:
 109              		.file 2 "Generated_Source\\PSoC4/cytypes.h"