ARM GAS  C:\Users\Matthew\AppData\Local\Temp\ccWksojX.s 			page 1


   1              		.cpu cortex-m0
   2              		.fpu softvfp
   3              		.eabi_attribute 20, 1
   4              		.eabi_attribute 21, 1
   5              		.eabi_attribute 23, 3
   6              		.eabi_attribute 24, 1
   7              		.eabi_attribute 25, 1
   8              		.eabi_attribute 26, 1
   9              		.eabi_attribute 30, 6
  10              		.eabi_attribute 34, 0
  11              		.eabi_attribute 18, 4
  12              		.code	16
  13              		.file	"temperature.c"
  14              		.text
  15              	.Ltext0:
  16              		.cfi_sections	.debug_frame
  17              		.section	.text.initTemperature,"ax",%progbits
  18              		.align	2
  19              		.global	initTemperature
  20              		.code	16
  21              		.thumb_func
  22              		.type	initTemperature, %function
  23              	initTemperature:
  24              	.LFB37:
  25              		.file 1 ".\\temperature.c"
   1:.\temperature.c **** /* ========================================
   2:.\temperature.c ****  *
   3:.\temperature.c ****  * Copyright YOUR COMPANY, THE YEAR
   4:.\temperature.c ****  * All Rights Reserved
   5:.\temperature.c ****  * UNPUBLISHED, LICENSED SOFTWARE.
   6:.\temperature.c ****  *
   7:.\temperature.c ****  * CONFIDENTIAL AND PROPRIETARY INFORMATION
   8:.\temperature.c ****  * WHICH IS THE PROPERTY OF your company.
   9:.\temperature.c ****  *
  10:.\temperature.c ****  * ========================================
  11:.\temperature.c **** */
  12:.\temperature.c **** 
  13:.\temperature.c **** #include <temperature.h>
  14:.\temperature.c **** 
  15:.\temperature.c **** void initTemperature(){
  26              		.loc 1 15 0
  27              		.cfi_startproc
  28 0000 80B5     		push	{r7, lr}
  29              		.cfi_def_cfa_offset 8
  30              		.cfi_offset 7, -8
  31              		.cfi_offset 14, -4
  32 0002 00AF     		add	r7, sp, #0
  33              		.cfi_def_cfa_register 7
  16:.\temperature.c ****     ADC_Start();
  34              		.loc 1 16 0
  35 0004 FFF7FEFF 		bl	ADC_Start
  17:.\temperature.c ****     ADC_StartConvert();
  36              		.loc 1 17 0
  37 0008 FFF7FEFF 		bl	ADC_StartConvert
  18:.\temperature.c **** }
  38              		.loc 1 18 0
  39 000c BD46     		mov	sp, r7
ARM GAS  C:\Users\Matthew\AppData\Local\Temp\ccWksojX.s 			page 2


  40              		@ sp needed
  41 000e 80BD     		pop	{r7, pc}
  42              		.cfi_endproc
  43              	.LFE37:
  44              		.size	initTemperature, .-initTemperature
  45              		.section	.text.getTemperature,"ax",%progbits
  46              		.align	2
  47              		.global	getTemperature
  48              		.code	16
  49              		.thumb_func
  50              		.type	getTemperature, %function
  51              	getTemperature:
  52              	.LFB38:
  19:.\temperature.c **** 
  20:.\temperature.c **** uint16 getTemperature(){
  53              		.loc 1 20 0
  54              		.cfi_startproc
  55 0000 80B5     		push	{r7, lr}
  56              		.cfi_def_cfa_offset 8
  57              		.cfi_offset 7, -8
  58              		.cfi_offset 14, -4
  59 0002 00AF     		add	r7, sp, #0
  60              		.cfi_def_cfa_register 7
  21:.\temperature.c ****     // Read from ADC abd convert to millivolts
  22:.\temperature.c ****     return ADC_CountsTo_mVolts(0, ADC_GetResult16(0));
  61              		.loc 1 22 0
  62 0004 0020     		mov	r0, #0
  63 0006 FFF7FEFF 		bl	ADC_GetResult16
  64 000a 031C     		mov	r3, r0
  65 000c 0020     		mov	r0, #0
  66 000e 191C     		mov	r1, r3
  67 0010 FFF7FEFF 		bl	ADC_CountsTo_mVolts
  68 0014 031C     		mov	r3, r0
  69 0016 9BB2     		uxth	r3, r3
  23:.\temperature.c **** }...
  70              		.loc 1 23 0
  71 0018 181C     		mov	r0, r3
  72 001a BD46     		mov	sp, r7
  73              		@ sp needed
  74 001c 80BD     		pop	{r7, pc}
  75              		.cfi_endproc
  76              	.LFE38:
  77              		.size	getTemperature, .-getTemperature
  78 001e C046     		.text
  79              	.Letext0:
  80              		.file 2 "Generated_Source\\PSoC4/cytypes.h"